ARM GAS  /tmp/ccrTVJfz.s 			page 1


   1              		.syntax unified
   2              		.cpu cortex-m3
   3              		.fpu softvfp
   4              		.eabi_attribute 20, 1
   5              		.eabi_attribute 21, 1
   6              		.eabi_attribute 23, 3
   7              		.eabi_attribute 24, 1
   8              		.eabi_attribute 25, 1
   9              		.eabi_attribute 26, 1
  10              		.eabi_attribute 30, 4
  11              		.eabi_attribute 34, 1
  12              		.eabi_attribute 18, 4
  13              		.thumb
  14              		.file	"chmsg.c"
  15              		.section	.text.chMsgSend,"ax",%progbits
  16              		.align	1
  17              		.global	chMsgSend
  18              		.thumb
  19              		.thumb_func
  20              		.type	chMsgSend, %function
  21              	chMsgSend:
  22              		@ args = 0, pretend = 0, frame = 0
  23              		@ frame_needed = 0, uses_anonymous_args = 0
  24 0000 0D4B     		ldr	r3, .L4
  25 0002 10B5     		push	{r4, lr}
  26 0004 9C69     		ldr	r4, [r3, #24]
  27 0006 2023     		movs	r3, #32
  28              	@ 80 "zubax_chibios///chibios/os/kernel/src/chmsg.c" 1
  29 0008 83F31188 		msr     BASEPRI, r3
  30              	@ 0 "" 2
  31              		.thumb
  32 000c 00F12803 		add	r3, r0, #40
  33 0010 2362     		str	r3, [r4, #32]
  34 0012 2360     		str	r3, [r4]
  35 0014 C36A     		ldr	r3, [r0, #44]
  36 0016 2163     		str	r1, [r4, #48]
  37 0018 6360     		str	r3, [r4, #4]
  38 001a C462     		str	r4, [r0, #44]
  39 001c 1C60     		str	r4, [r3]
  40 001e 037F     		ldrb	r3, [r0, #28]	@ zero_extendqisi2
  41 0020 0C2B     		cmp	r3, #12
  42 0022 01D1     		bne	.L2
  43 0024 FFF7FEFF 		bl	chSchReadyI
  44              	.L2:
  45 0028 0A20     		movs	r0, #10
  46 002a FFF7FEFF 		bl	chSchGoSleepS
  47 002e 206A     		ldr	r0, [r4, #32]
  48 0030 0023     		movs	r3, #0
  49              	@ 88 "zubax_chibios///chibios/os/kernel/src/chmsg.c" 1
  50 0032 83F31188 		msr     BASEPRI, r3
  51              	@ 0 "" 2
  52              		.thumb
  53 0036 10BD     		pop	{r4, pc}
  54              	.L5:
  55              		.align	2
  56              	.L4:
  57 0038 00000000 		.word	rlist
ARM GAS  /tmp/ccrTVJfz.s 			page 2


  58              		.size	chMsgSend, .-chMsgSend
  59              		.section	.text.chMsgWait,"ax",%progbits
  60              		.align	1
  61              		.global	chMsgWait
  62              		.thumb
  63              		.thumb_func
  64              		.type	chMsgWait, %function
  65              	chMsgWait:
  66              		@ args = 0, pretend = 0, frame = 0
  67              		@ frame_needed = 0, uses_anonymous_args = 0
  68 0000 10B5     		push	{r4, lr}
  69 0002 2023     		movs	r3, #32
  70              	@ 109 "zubax_chibios///chibios/os/kernel/src/chmsg.c" 1
  71 0004 83F31188 		msr     BASEPRI, r3
  72              	@ 0 "" 2
  73              		.thumb
  74 0008 0B4B     		ldr	r3, .L8
  75 000a 9A69     		ldr	r2, [r3, #24]
  76 000c 1C46     		mov	r4, r3
  77 000e 02F12801 		add	r1, r2, #40
  78 0012 926A     		ldr	r2, [r2, #40]
  79 0014 8A42     		cmp	r2, r1
  80 0016 02D1     		bne	.L7
  81 0018 0C20     		movs	r0, #12
  82 001a FFF7FEFF 		bl	chSchGoSleepS
  83              	.L7:
  84 001e A369     		ldr	r3, [r4, #24]
  85 0020 986A     		ldr	r0, [r3, #40]
  86 0022 0268     		ldr	r2, [r0]
  87 0024 43F8282F 		str	r2, [r3, #40]!
  88 0028 5360     		str	r3, [r2, #4]
  89 002a 0B23     		movs	r3, #11
  90 002c 0377     		strb	r3, [r0, #28]
  91 002e 0023     		movs	r3, #0
  92              	@ 114 "zubax_chibios///chibios/os/kernel/src/chmsg.c" 1
  93 0030 83F31188 		msr     BASEPRI, r3
  94              	@ 0 "" 2
  95              		.thumb
  96 0034 10BD     		pop	{r4, pc}
  97              	.L9:
  98 0036 00BF     		.align	2
  99              	.L8:
 100 0038 00000000 		.word	rlist
 101              		.size	chMsgWait, .-chMsgWait
 102              		.section	.text.chMsgRelease,"ax",%progbits
 103              		.align	1
 104              		.global	chMsgRelease
 105              		.thumb
 106              		.thumb_func
 107              		.type	chMsgRelease, %function
 108              	chMsgRelease:
 109              		@ args = 0, pretend = 0, frame = 0
 110              		@ frame_needed = 0, uses_anonymous_args = 0
 111 0000 08B5     		push	{r3, lr}
 112 0002 2023     		movs	r3, #32
 113              	@ 130 "zubax_chibios///chibios/os/kernel/src/chmsg.c" 1
 114 0004 83F31188 		msr     BASEPRI, r3
ARM GAS  /tmp/ccrTVJfz.s 			page 3


 115              	@ 0 "" 2
 116              		.thumb
 117 0008 FFF7FEFF 		bl	chSchWakeupS
 118 000c 0023     		movs	r3, #0
 119              	@ 134 "zubax_chibios///chibios/os/kernel/src/chmsg.c" 1
 120 000e 83F31188 		msr     BASEPRI, r3
 121              	@ 0 "" 2
 122              		.thumb
 123 0012 08BD     		pop	{r3, pc}
 124              		.size	chMsgRelease, .-chMsgRelease
 125              		.ident	"GCC: (15:4.9.3+svn231177-1) 4.9.3 20150529 (prerelease)"
ARM GAS  /tmp/ccrTVJfz.s 			page 4

