ARM GAS  /tmp/cck2FWf9.s 			page 1


   1              		.syntax unified
   2              		.cpu cortex-m3
   3              		.fpu softvfp
   4              		.eabi_attribute 20, 1
   5              		.eabi_attribute 21, 1
   6              		.eabi_attribute 23, 3
   7              		.eabi_attribute 24, 1
   8              		.eabi_attribute 25, 1
   9              		.eabi_attribute 26, 1
  10              		.eabi_attribute 30, 4
  11              		.eabi_attribute 34, 1
  12              		.eabi_attribute 18, 4
  13              		.thumb
  14              		.file	"chsem.c"
  15              		.section	.text.chSemInit,"ax",%progbits
  16              		.align	1
  17              		.global	chSemInit
  18              		.thumb
  19              		.thumb_func
  20              		.type	chSemInit, %function
  21              	chSemInit:
  22              		@ args = 0, pretend = 0, frame = 0
  23              		@ frame_needed = 0, uses_anonymous_args = 0
  24              		@ link register save eliminated.
  25 0000 4060     		str	r0, [r0, #4]
  26 0002 0060     		str	r0, [r0]
  27 0004 8160     		str	r1, [r0, #8]
  28 0006 7047     		bx	lr
  29              		.size	chSemInit, .-chSemInit
  30              		.section	.text.chSemResetI,"ax",%progbits
  31              		.align	1
  32              		.global	chSemResetI
  33              		.thumb
  34              		.thumb_func
  35              		.type	chSemResetI, %function
  36              	chSemResetI:
  37              		@ args = 0, pretend = 0, frame = 0
  38              		@ frame_needed = 0, uses_anonymous_args = 0
  39 0000 38B5     		push	{r3, r4, r5, lr}
  40 0002 0446     		mov	r4, r0
  41 0004 8568     		ldr	r5, [r0, #8]
  42 0006 8160     		str	r1, [r0, #8]
  43              	.L3:
  44 0008 0135     		adds	r5, r5, #1
  45 000a 002D     		cmp	r5, #0
  46 000c 09DC     		bgt	.L6
  47 000e 6068     		ldr	r0, [r4, #4]
  48 0010 4368     		ldr	r3, [r0, #4]
  49 0012 6360     		str	r3, [r4, #4]
  50 0014 1C60     		str	r4, [r3]
  51 0016 FFF7FEFF 		bl	chSchReadyI
  52 001a 6FF00103 		mvn	r3, #1
  53 001e 0362     		str	r3, [r0, #32]
  54 0020 F2E7     		b	.L3
  55              	.L6:
  56 0022 38BD     		pop	{r3, r4, r5, pc}
  57              		.size	chSemResetI, .-chSemResetI
ARM GAS  /tmp/cck2FWf9.s 			page 2


  58              		.section	.text.chSemReset,"ax",%progbits
  59              		.align	1
  60              		.global	chSemReset
  61              		.thumb
  62              		.thumb_func
  63              		.type	chSemReset, %function
  64              	chSemReset:
  65              		@ args = 0, pretend = 0, frame = 0
  66              		@ frame_needed = 0, uses_anonymous_args = 0
  67 0000 08B5     		push	{r3, lr}
  68 0002 2023     		movs	r3, #32
  69              	@ 111 "zubax_chibios///chibios/os/kernel/src/chsem.c" 1
  70 0004 83F31188 		msr     BASEPRI, r3
  71              	@ 0 "" 2
  72              		.thumb
  73 0008 FFF7FEFF 		bl	chSemResetI
  74 000c FFF7FEFF 		bl	chSchRescheduleS
  75 0010 0023     		movs	r3, #0
  76              	@ 114 "zubax_chibios///chibios/os/kernel/src/chsem.c" 1
  77 0012 83F31188 		msr     BASEPRI, r3
  78              	@ 0 "" 2
  79              		.thumb
  80 0016 08BD     		pop	{r3, pc}
  81              		.size	chSemReset, .-chSemReset
  82              		.section	.text.chSemWaitS,"ax",%progbits
  83              		.align	1
  84              		.global	chSemWaitS
  85              		.thumb
  86              		.thumb_func
  87              		.type	chSemWaitS, %function
  88              	chSemWaitS:
  89              		@ args = 0, pretend = 0, frame = 0
  90              		@ frame_needed = 0, uses_anonymous_args = 0
  91 0000 8368     		ldr	r3, [r0, #8]
  92 0002 10B5     		push	{r4, lr}
  93 0004 013B     		subs	r3, r3, #1
  94 0006 002B     		cmp	r3, #0
  95 0008 8360     		str	r3, [r0, #8]
  96 000a 0DDA     		bge	.L10
  97 000c 074C     		ldr	r4, .L11
  98 000e A369     		ldr	r3, [r4, #24]
  99 0010 1862     		str	r0, [r3, #32]
 100 0012 4268     		ldr	r2, [r0, #4]
 101 0014 1860     		str	r0, [r3]
 102 0016 5A60     		str	r2, [r3, #4]
 103 0018 4360     		str	r3, [r0, #4]
 104 001a 1360     		str	r3, [r2]
 105 001c 0320     		movs	r0, #3
 106 001e FFF7FEFF 		bl	chSchGoSleepS
 107 0022 A369     		ldr	r3, [r4, #24]
 108 0024 186A     		ldr	r0, [r3, #32]
 109 0026 10BD     		pop	{r4, pc}
 110              	.L10:
 111 0028 0020     		movs	r0, #0
 112 002a 10BD     		pop	{r4, pc}
 113              	.L12:
 114              		.align	2
ARM GAS  /tmp/cck2FWf9.s 			page 3


 115              	.L11:
 116 002c 00000000 		.word	rlist
 117              		.size	chSemWaitS, .-chSemWaitS
 118              		.section	.text.chSemWait,"ax",%progbits
 119              		.align	1
 120              		.global	chSemWait
 121              		.thumb
 122              		.thumb_func
 123              		.type	chSemWait, %function
 124              	chSemWait:
 125              		@ args = 0, pretend = 0, frame = 0
 126              		@ frame_needed = 0, uses_anonymous_args = 0
 127 0000 08B5     		push	{r3, lr}
 128 0002 2023     		movs	r3, #32
 129              	@ 167 "zubax_chibios///chibios/os/kernel/src/chsem.c" 1
 130 0004 83F31188 		msr     BASEPRI, r3
 131              	@ 0 "" 2
 132              		.thumb
 133 0008 FFF7FEFF 		bl	chSemWaitS
 134 000c 0023     		movs	r3, #0
 135              	@ 169 "zubax_chibios///chibios/os/kernel/src/chsem.c" 1
 136 000e 83F31188 		msr     BASEPRI, r3
 137              	@ 0 "" 2
 138              		.thumb
 139 0012 08BD     		pop	{r3, pc}
 140              		.size	chSemWait, .-chSemWait
 141              		.section	.text.chSemWaitTimeoutS,"ax",%progbits
 142              		.align	1
 143              		.global	chSemWaitTimeoutS
 144              		.thumb
 145              		.thumb_func
 146              		.type	chSemWaitTimeoutS, %function
 147              	chSemWaitTimeoutS:
 148              		@ args = 0, pretend = 0, frame = 0
 149              		@ frame_needed = 0, uses_anonymous_args = 0
 150 0000 8368     		ldr	r3, [r0, #8]
 151 0002 10B5     		push	{r4, lr}
 152 0004 5A1E     		subs	r2, r3, #1
 153 0006 002A     		cmp	r2, #0
 154 0008 8260     		str	r2, [r0, #8]
 155 000a 11DA     		bge	.L17
 156 000c 19B9     		cbnz	r1, .L16
 157 000e 8360     		str	r3, [r0, #8]
 158 0010 4FF0FF30 		mov	r0, #-1
 159 0014 10BD     		pop	{r4, pc}
 160              	.L16:
 161 0016 074B     		ldr	r3, .L18
 162 0018 9B69     		ldr	r3, [r3, #24]
 163 001a 1862     		str	r0, [r3, #32]
 164 001c 4268     		ldr	r2, [r0, #4]
 165 001e 1860     		str	r0, [r3]
 166 0020 5A60     		str	r2, [r3, #4]
 167 0022 BDE81040 		pop	{r4, lr}
 168 0026 4360     		str	r3, [r0, #4]
 169 0028 1360     		str	r3, [r2]
 170 002a 0320     		movs	r0, #3
 171 002c FFF7FEBF 		b	chSchGoSleepTimeoutS
ARM GAS  /tmp/cck2FWf9.s 			page 4


 172              	.L17:
 173 0030 0020     		movs	r0, #0
 174 0032 10BD     		pop	{r4, pc}
 175              	.L19:
 176              		.align	2
 177              	.L18:
 178 0034 00000000 		.word	rlist
 179              		.size	chSemWaitTimeoutS, .-chSemWaitTimeoutS
 180              		.section	.text.chSemWaitTimeout,"ax",%progbits
 181              		.align	1
 182              		.global	chSemWaitTimeout
 183              		.thumb
 184              		.thumb_func
 185              		.type	chSemWaitTimeout, %function
 186              	chSemWaitTimeout:
 187              		@ args = 0, pretend = 0, frame = 0
 188              		@ frame_needed = 0, uses_anonymous_args = 0
 189 0000 08B5     		push	{r3, lr}
 190 0002 2023     		movs	r3, #32
 191              	@ 225 "zubax_chibios///chibios/os/kernel/src/chsem.c" 1
 192 0004 83F31188 		msr     BASEPRI, r3
 193              	@ 0 "" 2
 194              		.thumb
 195 0008 FFF7FEFF 		bl	chSemWaitTimeoutS
 196 000c 0023     		movs	r3, #0
 197              	@ 227 "zubax_chibios///chibios/os/kernel/src/chsem.c" 1
 198 000e 83F31188 		msr     BASEPRI, r3
 199              	@ 0 "" 2
 200              		.thumb
 201 0012 08BD     		pop	{r3, pc}
 202              		.size	chSemWaitTimeout, .-chSemWaitTimeout
 203              		.section	.text.chSemSignal,"ax",%progbits
 204              		.align	1
 205              		.global	chSemSignal
 206              		.thumb
 207              		.thumb_func
 208              		.type	chSemSignal, %function
 209              	chSemSignal:
 210              		@ args = 0, pretend = 0, frame = 0
 211              		@ frame_needed = 0, uses_anonymous_args = 0
 212 0000 08B5     		push	{r3, lr}
 213 0002 0246     		mov	r2, r0
 214 0004 2023     		movs	r3, #32
 215              	@ 286 "zubax_chibios///chibios/os/kernel/src/chsem.c" 1
 216 0006 83F31188 		msr     BASEPRI, r3
 217              	@ 0 "" 2
 218              		.thumb
 219 000a 8368     		ldr	r3, [r0, #8]
 220 000c 0133     		adds	r3, r3, #1
 221 000e 002B     		cmp	r3, #0
 222 0010 8360     		str	r3, [r0, #8]
 223 0012 06DC     		bgt	.L22
 224 0014 0068     		ldr	r0, [r0]
 225 0016 0021     		movs	r1, #0
 226 0018 0368     		ldr	r3, [r0]
 227 001a 1360     		str	r3, [r2]
 228 001c 5A60     		str	r2, [r3, #4]
ARM GAS  /tmp/cck2FWf9.s 			page 5


 229 001e FFF7FEFF 		bl	chSchWakeupS
 230              	.L22:
 231 0022 0023     		movs	r3, #0
 232              	@ 289 "zubax_chibios///chibios/os/kernel/src/chsem.c" 1
 233 0024 83F31188 		msr     BASEPRI, r3
 234              	@ 0 "" 2
 235              		.thumb
 236 0028 08BD     		pop	{r3, pc}
 237              		.size	chSemSignal, .-chSemSignal
 238              		.section	.text.chSemSignalI,"ax",%progbits
 239              		.align	1
 240              		.global	chSemSignalI
 241              		.thumb
 242              		.thumb_func
 243              		.type	chSemSignalI, %function
 244              	chSemSignalI:
 245              		@ args = 0, pretend = 0, frame = 0
 246              		@ frame_needed = 0, uses_anonymous_args = 0
 247              		@ link register save eliminated.
 248 0000 8268     		ldr	r2, [r0, #8]
 249 0002 0346     		mov	r3, r0
 250 0004 0132     		adds	r2, r2, #1
 251 0006 002A     		cmp	r2, #0
 252 0008 8260     		str	r2, [r0, #8]
 253 000a 07DC     		bgt	.L23
 254 000c 0068     		ldr	r0, [r0]
 255 000e 0268     		ldr	r2, [r0]
 256 0010 1A60     		str	r2, [r3]
 257 0012 5360     		str	r3, [r2, #4]
 258 0014 0023     		movs	r3, #0
 259 0016 0362     		str	r3, [r0, #32]
 260 0018 FFF7FEBF 		b	chSchReadyI
 261              	.L23:
 262 001c 7047     		bx	lr
 263              		.size	chSemSignalI, .-chSemSignalI
 264              		.section	.text.chSemAddCounterI,"ax",%progbits
 265              		.align	1
 266              		.global	chSemAddCounterI
 267              		.thumb
 268              		.thumb_func
 269              		.type	chSemAddCounterI, %function
 270              	chSemAddCounterI:
 271              		@ args = 0, pretend = 0, frame = 0
 272              		@ frame_needed = 0, uses_anonymous_args = 0
 273 0000 38B5     		push	{r3, r4, r5, lr}
 274 0002 0446     		mov	r4, r0
 275 0004 0D46     		mov	r5, r1
 276              	.L26:
 277 0006 002D     		cmp	r5, #0
 278 0008 0EDD     		ble	.L29
 279 000a A368     		ldr	r3, [r4, #8]
 280 000c 0133     		adds	r3, r3, #1
 281 000e 002B     		cmp	r3, #0
 282 0010 A360     		str	r3, [r4, #8]
 283 0012 07DC     		bgt	.L27
 284 0014 2068     		ldr	r0, [r4]
 285 0016 0368     		ldr	r3, [r0]
ARM GAS  /tmp/cck2FWf9.s 			page 6


 286 0018 2360     		str	r3, [r4]
 287 001a 5C60     		str	r4, [r3, #4]
 288 001c FFF7FEFF 		bl	chSchReadyI
 289 0020 0023     		movs	r3, #0
 290 0022 0362     		str	r3, [r0, #32]
 291              	.L27:
 292 0024 013D     		subs	r5, r5, #1
 293 0026 EEE7     		b	.L26
 294              	.L29:
 295 0028 38BD     		pop	{r3, r4, r5, pc}
 296              		.size	chSemAddCounterI, .-chSemAddCounterI
 297              		.section	.text.chSemSignalWait,"ax",%progbits
 298              		.align	1
 299              		.global	chSemSignalWait
 300              		.thumb
 301              		.thumb_func
 302              		.type	chSemSignalWait, %function
 303              	chSemSignalWait:
 304              		@ args = 0, pretend = 0, frame = 0
 305              		@ frame_needed = 0, uses_anonymous_args = 0
 306 0000 38B5     		push	{r3, r4, r5, lr}
 307 0002 0246     		mov	r2, r0
 308 0004 0D46     		mov	r5, r1
 309 0006 2023     		movs	r3, #32
 310              	@ 379 "zubax_chibios///chibios/os/kernel/src/chsem.c" 1
 311 0008 83F31188 		msr     BASEPRI, r3
 312              	@ 0 "" 2
 313              		.thumb
 314 000c 8368     		ldr	r3, [r0, #8]
 315 000e 0133     		adds	r3, r3, #1
 316 0010 002B     		cmp	r3, #0
 317 0012 8360     		str	r3, [r0, #8]
 318 0014 07DC     		bgt	.L31
 319 0016 0068     		ldr	r0, [r0]
 320 0018 0368     		ldr	r3, [r0]
 321 001a 1360     		str	r3, [r2]
 322 001c 5A60     		str	r2, [r3, #4]
 323 001e FFF7FEFF 		bl	chSchReadyI
 324 0022 0023     		movs	r3, #0
 325 0024 0362     		str	r3, [r0, #32]
 326              	.L31:
 327 0026 AB68     		ldr	r3, [r5, #8]
 328 0028 013B     		subs	r3, r3, #1
 329 002a 002B     		cmp	r3, #0
 330 002c AB60     		str	r3, [r5, #8]
 331 002e 0CDA     		bge	.L32
 332 0030 094B     		ldr	r3, .L34
 333 0032 0320     		movs	r0, #3
 334 0034 9C69     		ldr	r4, [r3, #24]
 335 0036 6B68     		ldr	r3, [r5, #4]
 336 0038 2560     		str	r5, [r4]
 337 003a 6360     		str	r3, [r4, #4]
 338 003c 6C60     		str	r4, [r5, #4]
 339 003e 1C60     		str	r4, [r3]
 340 0040 2562     		str	r5, [r4, #32]
 341 0042 FFF7FEFF 		bl	chSchGoSleepS
 342 0046 206A     		ldr	r0, [r4, #32]
ARM GAS  /tmp/cck2FWf9.s 			page 7


 343 0048 02E0     		b	.L33
 344              	.L32:
 345 004a FFF7FEFF 		bl	chSchRescheduleS
 346 004e 0020     		movs	r0, #0
 347              	.L33:
 348 0050 0023     		movs	r3, #0
 349              	@ 393 "zubax_chibios///chibios/os/kernel/src/chsem.c" 1
 350 0052 83F31188 		msr     BASEPRI, r3
 351              	@ 0 "" 2
 352              		.thumb
 353 0056 38BD     		pop	{r3, r4, r5, pc}
 354              	.L35:
 355              		.align	2
 356              	.L34:
 357 0058 00000000 		.word	rlist
 358              		.size	chSemSignalWait, .-chSemSignalWait
 359              		.ident	"GCC: (15:4.9.3+svn231177-1) 4.9.3 20150529 (prerelease)"
ARM GAS  /tmp/cck2FWf9.s 			page 8

