ARM GAS  /tmp/ccFEREDd.s 			page 1


   1              		.syntax unified
   2              		.cpu cortex-m3
   3              		.fpu softvfp
   4              		.eabi_attribute 20, 1
   5              		.eabi_attribute 21, 1
   6              		.eabi_attribute 23, 3
   7              		.eabi_attribute 24, 1
   8              		.eabi_attribute 25, 1
   9              		.eabi_attribute 26, 1
  10              		.eabi_attribute 30, 4
  11              		.eabi_attribute 34, 1
  12              		.eabi_attribute 18, 4
  13              		.thumb
  14              		.file	"node.cpp"
  15              		.section	.text._ZNK6uavcan10ICanDriver8getIfaceEh,"axG",%progbits,_ZNK6uavcan10ICanDriver8getIface
  16              		.align	1
  17              		.weak	_ZNK6uavcan10ICanDriver8getIfaceEh
  18              		.thumb
  19              		.thumb_func
  20              		.type	_ZNK6uavcan10ICanDriver8getIfaceEh, %function
  21              	_ZNK6uavcan10ICanDriver8getIfaceEh:
  22              		@ args = 0, pretend = 0, frame = 0
  23              		@ frame_needed = 0, uses_anonymous_args = 0
  24              		@ link register save eliminated.
  25 0000 0368     		ldr	r3, [r0]
  26 0002 9B68     		ldr	r3, [r3, #8]
  27 0004 1847     		bx	r3
  28              		.size	_ZNK6uavcan10ICanDriver8getIfaceEh, .-_ZNK6uavcan10ICanDriver8getIfaceEh
  29              		.section	.text._ZNK6uavcan13IParamManager22readParamDefaultMaxMinERKNS_5ArrayINS_11IntegerSpecILj8
  30              		.align	1
  31              		.weak	_ZNK6uavcan13IParamManager22readParamDefaultMaxMinERKNS_5ArrayINS_11IntegerSpecILj8ELNS_10Si
  32              		.thumb
  33              		.thumb_func
  34              		.type	_ZNK6uavcan13IParamManager22readParamDefaultMaxMinERKNS_5ArrayINS_11IntegerSpecILj8ELNS_10Si
  35              	_ZNK6uavcan13IParamManager22readParamDefaultMaxMinERKNS_5ArrayINS_11IntegerSpecILj8ELNS_10Signednes
  36              		@ args = 4, pretend = 0, frame = 0
  37              		@ frame_needed = 0, uses_anonymous_args = 0
  38              		@ link register save eliminated.
  39 0000 7047     		bx	lr
  40              		.size	_ZNK6uavcan13IParamManager22readParamDefaultMaxMinERKNS_5ArrayINS_11IntegerSpecILj8ELNS_10Si
  41              		.section	.text._ZN6uavcan13PoolAllocatorILj7168ELh56EcED2Ev,"axG",%progbits,_ZN6uavcan13PoolAlloca
  42              		.align	1
  43              		.weak	_ZN6uavcan13PoolAllocatorILj7168ELh56EcED2Ev
  44              		.thumb
  45              		.thumb_func
  46              		.type	_ZN6uavcan13PoolAllocatorILj7168ELh56EcED2Ev, %function
  47              	_ZN6uavcan13PoolAllocatorILj7168ELh56EcED2Ev:
  48              		@ args = 0, pretend = 0, frame = 0
  49              		@ frame_needed = 0, uses_anonymous_args = 0
  50              		@ link register save eliminated.
  51 0000 7047     		bx	lr
  52              		.size	_ZN6uavcan13PoolAllocatorILj7168ELh56EcED2Ev, .-_ZN6uavcan13PoolAllocatorILj7168ELh56EcED2Ev
  53              		.weak	_ZN6uavcan13PoolAllocatorILj7168ELh56EcED1Ev
  54              		.thumb_set _ZN6uavcan13PoolAllocatorILj7168ELh56EcED1Ev,_ZN6uavcan13PoolAllocatorILj7168ELh56EcED2
  55              		.section	.text._ZN6uavcan22GlobalDataTypeRegistry5EntryD2Ev,"axG",%progbits,_ZN6uavcan22GlobalData
  56              		.align	1
  57              		.weak	_ZN6uavcan22GlobalDataTypeRegistry5EntryD2Ev
ARM GAS  /tmp/ccFEREDd.s 			page 2


  58              		.thumb
  59              		.thumb_func
  60              		.type	_ZN6uavcan22GlobalDataTypeRegistry5EntryD2Ev, %function
  61              	_ZN6uavcan22GlobalDataTypeRegistry5EntryD2Ev:
  62              		@ args = 0, pretend = 0, frame = 0
  63              		@ frame_needed = 0, uses_anonymous_args = 0
  64              		@ link register save eliminated.
  65 0000 7047     		bx	lr
  66              		.size	_ZN6uavcan22GlobalDataTypeRegistry5EntryD2Ev, .-_ZN6uavcan22GlobalDataTypeRegistry5EntryD2Ev
  67              		.weak	_ZN6uavcan22GlobalDataTypeRegistry5EntryD1Ev
  68              		.thumb_set _ZN6uavcan22GlobalDataTypeRegistry5EntryD1Ev,_ZN6uavcan22GlobalDataTypeRegistry5EntryD2
  69              		.section	.text._ZNSt17_Function_handlerIFvRKN6uavcan10TimerEventEEPS4_E9_M_invokeERKSt9_Any_dataS3
  70              		.align	1
  71              		.weak	_ZNSt17_Function_handlerIFvRKN6uavcan10TimerEventEEPS4_E9_M_invokeERKSt9_Any_dataS3_
  72              		.thumb
  73              		.thumb_func
  74              		.type	_ZNSt17_Function_handlerIFvRKN6uavcan10TimerEventEEPS4_E9_M_invokeERKSt9_Any_dataS3_, %funct
  75              	_ZNSt17_Function_handlerIFvRKN6uavcan10TimerEventEEPS4_E9_M_invokeERKSt9_Any_dataS3_:
  76              		@ args = 0, pretend = 0, frame = 0
  77              		@ frame_needed = 0, uses_anonymous_args = 0
  78              		@ link register save eliminated.
  79 0000 0368     		ldr	r3, [r0]
  80 0002 0846     		mov	r0, r1
  81 0004 1847     		bx	r3	@ indirect register sibling call
  82              		.size	_ZNSt17_Function_handlerIFvRKN6uavcan10TimerEventEEPS4_E9_M_invokeERKSt9_Any_dataS3_, .-_ZNS
  83              		.section	.text._ZNSt14_Function_base13_Base_managerIPFvRKN6uavcan10TimerEventEEE10_M_managerERSt9_
  84              		.align	1
  85              		.weak	_ZNSt14_Function_base13_Base_managerIPFvRKN6uavcan10TimerEventEEE10_M_managerERSt9_Any_dataR
  86              		.thumb
  87              		.thumb_func
  88              		.type	_ZNSt14_Function_base13_Base_managerIPFvRKN6uavcan10TimerEventEEE10_M_managerERSt9_Any_dataR
  89              	_ZNSt14_Function_base13_Base_managerIPFvRKN6uavcan10TimerEventEEE10_M_managerERSt9_Any_dataRKS8_St1
  90              		@ args = 0, pretend = 0, frame = 0
  91              		@ frame_needed = 0, uses_anonymous_args = 0
  92              		@ link register save eliminated.
  93 0000 012A     		cmp	r2, #1
  94 0002 02D0     		beq	.L8
  95 0004 022A     		cmp	r2, #2
  96 0006 02D0     		beq	.L9
  97 0008 04E0     		b	.L7
  98              	.L8:
  99 000a 0160     		str	r1, [r0]
 100 000c 02E0     		b	.L7
 101              	.L9:
 102 000e 0B68     		ldr	r3, [r1]
 103 0010 00B1     		cbz	r0, .L7
 104 0012 0360     		str	r3, [r0]
 105              	.L7:
 106 0014 0020     		movs	r0, #0
 107 0016 7047     		bx	lr
 108              		.size	_ZNSt14_Function_base13_Base_managerIPFvRKN6uavcan10TimerEventEEE10_M_managerERSt9_Any_dataR
 109              		.section	.text._ZN6uavcan20StaticTransferBufferILt123EED2Ev,"axG",%progbits,_ZN6uavcan20StaticTran
 110              		.align	1
 111              		.weak	_ZN6uavcan20StaticTransferBufferILt123EED2Ev
 112              		.thumb
 113              		.thumb_func
 114              		.type	_ZN6uavcan20StaticTransferBufferILt123EED2Ev, %function
ARM GAS  /tmp/ccFEREDd.s 			page 3


 115              	_ZN6uavcan20StaticTransferBufferILt123EED2Ev:
 116              		@ args = 0, pretend = 0, frame = 0
 117              		@ frame_needed = 0, uses_anonymous_args = 0
 118              		@ link register save eliminated.
 119 0000 7047     		bx	lr
 120              		.size	_ZN6uavcan20StaticTransferBufferILt123EED2Ev, .-_ZN6uavcan20StaticTransferBufferILt123EED2Ev
 121              		.weak	_ZN6uavcan20StaticTransferBufferILt123EED1Ev
 122              		.thumb_set _ZN6uavcan20StaticTransferBufferILt123EED1Ev,_ZN6uavcan20StaticTransferBufferILt123EED2
 123              		.section	.text._ZN6uavcan20StaticTransferBufferILt7EED2Ev,"axG",%progbits,_ZN6uavcan20StaticTransf
 124              		.align	1
 125              		.weak	_ZN6uavcan20StaticTransferBufferILt7EED2Ev
 126              		.thumb
 127              		.thumb_func
 128              		.type	_ZN6uavcan20StaticTransferBufferILt7EED2Ev, %function
 129              	_ZN6uavcan20StaticTransferBufferILt7EED2Ev:
 130              		@ args = 0, pretend = 0, frame = 0
 131              		@ frame_needed = 0, uses_anonymous_args = 0
 132              		@ link register save eliminated.
 133 0000 7047     		bx	lr
 134              		.size	_ZN6uavcan20StaticTransferBufferILt7EED2Ev, .-_ZN6uavcan20StaticTransferBufferILt7EED2Ev
 135              		.weak	_ZN6uavcan20StaticTransferBufferILt7EED1Ev
 136              		.thumb_set _ZN6uavcan20StaticTransferBufferILt7EED1Ev,_ZN6uavcan20StaticTransferBufferILt7EED2Ev
 137              		.section	.text._ZN4node12_GLOBAL__N_121RestartRequestHandlerD2Ev,"ax",%progbits
 138              		.align	1
 139              		.thumb
 140              		.thumb_func
 141              		.type	_ZN4node12_GLOBAL__N_121RestartRequestHandlerD2Ev, %function
 142              	_ZN4node12_GLOBAL__N_121RestartRequestHandlerD2Ev:
 143              		@ args = 0, pretend = 0, frame = 0
 144              		@ frame_needed = 0, uses_anonymous_args = 0
 145              		@ link register save eliminated.
 146 0000 7047     		bx	lr
 147              		.size	_ZN4node12_GLOBAL__N_121RestartRequestHandlerD2Ev, .-_ZN4node12_GLOBAL__N_121RestartRequestH
 148              		.thumb_set _ZN4node12_GLOBAL__N_121RestartRequestHandlerD1Ev,_ZN4node12_GLOBAL__N_121RestartReques
 149              		.section	.text._ZN4node12_GLOBAL__N_112ParamManagerD2Ev,"ax",%progbits
 150              		.align	1
 151              		.thumb
 152              		.thumb_func
 153              		.type	_ZN4node12_GLOBAL__N_112ParamManagerD2Ev, %function
 154              	_ZN4node12_GLOBAL__N_112ParamManagerD2Ev:
 155              		@ args = 0, pretend = 0, frame = 0
 156              		@ frame_needed = 0, uses_anonymous_args = 0
 157              		@ link register save eliminated.
 158 0000 7047     		bx	lr
 159              		.size	_ZN4node12_GLOBAL__N_112ParamManagerD2Ev, .-_ZN4node12_GLOBAL__N_112ParamManagerD2Ev
 160              		.thumb_set _ZN4node12_GLOBAL__N_112ParamManagerD1Ev,_ZN4node12_GLOBAL__N_112ParamManagerD2Ev
 161              		.section	.text._ZN4node12_GLOBAL__N_15._345D2Ev,"ax",%progbits
 162              		.align	1
 163              		.thumb
 164              		.thumb_func
 165              		.type	_ZN4node12_GLOBAL__N_15._345D2Ev, %function
 166              	_ZN4node12_GLOBAL__N_15._345D2Ev:
 167              		@ args = 0, pretend = 0, frame = 0
 168              		@ frame_needed = 0, uses_anonymous_args = 0
 169              		@ link register save eliminated.
 170 0000 7047     		bx	lr
 171              		.size	_ZN4node12_GLOBAL__N_15._345D2Ev, .-_ZN4node12_GLOBAL__N_15._345D2Ev
ARM GAS  /tmp/ccFEREDd.s 			page 4


 172              		.thumb_set _ZN4node12_GLOBAL__N_15._345D1Ev,_ZN4node12_GLOBAL__N_15._345D2Ev
 173              		.section	.text._ZN6uavcan4NodeILj7168EE12getAllocatorEv,"axG",%progbits,_ZN6uavcan4NodeILj7168EE12
 174              		.align	1
 175              		.weak	_ZN6uavcan4NodeILj7168EE12getAllocatorEv
 176              		.thumb
 177              		.thumb_func
 178              		.type	_ZN6uavcan4NodeILj7168EE12getAllocatorEv, %function
 179              	_ZN6uavcan4NodeILj7168EE12getAllocatorEv:
 180              		@ args = 0, pretend = 0, frame = 0
 181              		@ frame_needed = 0, uses_anonymous_args = 0
 182              		@ link register save eliminated.
 183 0000 0830     		adds	r0, r0, #8
 184 0002 7047     		bx	lr
 185              		.size	_ZN6uavcan4NodeILj7168EE12getAllocatorEv, .-_ZN6uavcan4NodeILj7168EE12getAllocatorEv
 186              		.section	.text._ZN6uavcan4NodeILj7168EE12getSchedulerEv,"axG",%progbits,_ZN6uavcan4NodeILj7168EE12
 187              		.align	1
 188              		.weak	_ZN6uavcan4NodeILj7168EE12getSchedulerEv
 189              		.thumb
 190              		.thumb_func
 191              		.type	_ZN6uavcan4NodeILj7168EE12getSchedulerEv, %function
 192              	_ZN6uavcan4NodeILj7168EE12getSchedulerEv:
 193              		@ args = 0, pretend = 0, frame = 0
 194              		@ frame_needed = 0, uses_anonymous_args = 0
 195              		@ link register save eliminated.
 196 0000 00F5E050 		add	r0, r0, #7168
 197 0004 1830     		adds	r0, r0, #24
 198 0006 7047     		bx	lr
 199              		.size	_ZN6uavcan4NodeILj7168EE12getSchedulerEv, .-_ZN6uavcan4NodeILj7168EE12getSchedulerEv
 200              		.section	.text._ZNK6uavcan4NodeILj7168EE12getSchedulerEv,"axG",%progbits,_ZNK6uavcan4NodeILj7168EE
 201              		.align	1
 202              		.weak	_ZNK6uavcan4NodeILj7168EE12getSchedulerEv
 203              		.thumb
 204              		.thumb_func
 205              		.type	_ZNK6uavcan4NodeILj7168EE12getSchedulerEv, %function
 206              	_ZNK6uavcan4NodeILj7168EE12getSchedulerEv:
 207              		@ args = 0, pretend = 0, frame = 0
 208              		@ frame_needed = 0, uses_anonymous_args = 0
 209              		@ link register save eliminated.
 210 0000 00F5E050 		add	r0, r0, #7168
 211 0004 1830     		adds	r0, r0, #24
 212 0006 7047     		bx	lr
 213              		.size	_ZNK6uavcan4NodeILj7168EE12getSchedulerEv, .-_ZNK6uavcan4NodeILj7168EE12getSchedulerEv
 214              		.section	.text._ZN6uavcan13PoolAllocatorILj7168ELh56EcE8allocateEj,"axG",%progbits,_ZN6uavcan13Poo
 215              		.align	1
 216              		.weak	_ZN6uavcan13PoolAllocatorILj7168ELh56EcE8allocateEj
 217              		.thumb
 218              		.thumb_func
 219              		.type	_ZN6uavcan13PoolAllocatorILj7168ELh56EcE8allocateEj, %function
 220              	_ZN6uavcan13PoolAllocatorILj7168ELh56EcE8allocateEj:
 221              		@ args = 0, pretend = 0, frame = 0
 222              		@ frame_needed = 0, uses_anonymous_args = 0
 223 0000 4368     		ldr	r3, [r0, #4]
 224 0002 10B5     		push	{r4, lr}
 225 0004 93B1     		cbz	r3, .L26
 226 0006 3829     		cmp	r1, #56
 227 0008 0ED8     		bhi	.L25
 228 000a 41F60841 		movw	r1, #7176
ARM GAS  /tmp/ccFEREDd.s 			page 5


 229 000e 1A68     		ldr	r2, [r3]
 230 0010 4260     		str	r2, [r0, #4]
 231 0012 425A     		ldrh	r2, [r0, r1]
 232 0014 0132     		adds	r2, r2, #1
 233 0016 92B2     		uxth	r2, r2
 234 0018 4252     		strh	r2, [r0, r1]	@ movhi
 235 001a 41F60A41 		movw	r1, #7178
 236 001e 445A     		ldrh	r4, [r0, r1]
 237 0020 9442     		cmp	r4, r2
 238 0022 03D2     		bcs	.L26
 239 0024 4252     		strh	r2, [r0, r1]	@ movhi
 240 0026 01E0     		b	.L26
 241              	.L25:
 242 0028 0020     		movs	r0, #0
 243 002a 10BD     		pop	{r4, pc}
 244              	.L26:
 245 002c 1846     		mov	r0, r3
 246 002e 10BD     		pop	{r4, pc}
 247              		.size	_ZN6uavcan13PoolAllocatorILj7168ELh56EcE8allocateEj, .-_ZN6uavcan13PoolAllocatorILj7168ELh56
 248              		.section	.text._ZN6uavcan13PoolAllocatorILj7168ELh56EcE10deallocateEPKv,"axG",%progbits,_ZN6uavcan
 249              		.align	1
 250              		.weak	_ZN6uavcan13PoolAllocatorILj7168ELh56EcE10deallocateEPKv
 251              		.thumb
 252              		.thumb_func
 253              		.type	_ZN6uavcan13PoolAllocatorILj7168ELh56EcE10deallocateEPKv, %function
 254              	_ZN6uavcan13PoolAllocatorILj7168ELh56EcE10deallocateEPKv:
 255              		@ args = 0, pretend = 0, frame = 0
 256              		@ frame_needed = 0, uses_anonymous_args = 0
 257              		@ link register save eliminated.
 258 0000 39B1     		cbz	r1, .L27
 259 0002 41F60842 		movw	r2, #7176
 260 0006 4368     		ldr	r3, [r0, #4]
 261 0008 0B60     		str	r3, [r1]
 262 000a 835A     		ldrh	r3, [r0, r2]
 263 000c 4160     		str	r1, [r0, #4]
 264 000e 013B     		subs	r3, r3, #1
 265 0010 8352     		strh	r3, [r0, r2]	@ movhi
 266              	.L27:
 267 0012 7047     		bx	lr
 268              		.size	_ZN6uavcan13PoolAllocatorILj7168ELh56EcE10deallocateEPKv, .-_ZN6uavcan13PoolAllocatorILj7168
 269              		.section	.text._ZNK6uavcan13PoolAllocatorILj7168ELh56EcE16getBlockCapacityEv,"axG",%progbits,_ZNK6
 270              		.align	1
 271              		.weak	_ZNK6uavcan13PoolAllocatorILj7168ELh56EcE16getBlockCapacityEv
 272              		.thumb
 273              		.thumb_func
 274              		.type	_ZNK6uavcan13PoolAllocatorILj7168ELh56EcE16getBlockCapacityEv, %function
 275              	_ZNK6uavcan13PoolAllocatorILj7168ELh56EcE16getBlockCapacityEv:
 276              		@ args = 0, pretend = 0, frame = 0
 277              		@ frame_needed = 0, uses_anonymous_args = 0
 278              		@ link register save eliminated.
 279 0000 8020     		movs	r0, #128
 280 0002 7047     		bx	lr
 281              		.size	_ZNK6uavcan13PoolAllocatorILj7168ELh56EcE16getBlockCapacityEv, .-_ZNK6uavcan13PoolAllocatorI
 282              		.section	.text._ZN6uavcan17GenericSubscriberINS_8protocol18GetTransportStats_ENS2_8Request_ILi0EEE
 283              		.align	1
 284              		.weak	_ZN6uavcan17GenericSubscriberINS_8protocol18GetTransportStats_ENS2_8Request_ILi0EEENS_16Tran
 285              		.thumb
ARM GAS  /tmp/ccFEREDd.s 			page 6


 286              		.thumb_func
 287              		.type	_ZN6uavcan17GenericSubscriberINS_8protocol18GetTransportStats_ENS2_8Request_ILi0EEENS_16Tran
 288              	_ZN6uavcan17GenericSubscriberINS_8protocol18GetTransportStats_ENS2_8Request_ILi0EEENS_16TransferLis
 289              		@ args = 0, pretend = 0, frame = 8
 290              		@ frame_needed = 0, uses_anonymous_args = 0
 291 0000 37B5     		push	{r0, r1, r2, r4, r5, lr}
 292 0002 0B68     		ldr	r3, [r1]
 293 0004 856A     		ldr	r5, [r0, #40]
 294 0006 02AC     		add	r4, sp, #8
 295 0008 44F8041D 		str	r1, [r4, #-4]!
 296 000c 0846     		mov	r0, r1
 297 000e 1B69     		ldr	r3, [r3, #16]
 298 0010 9847     		blx	r3
 299 0012 2B68     		ldr	r3, [r5]
 300 0014 2846     		mov	r0, r5
 301 0016 9B68     		ldr	r3, [r3, #8]
 302 0018 2146     		mov	r1, r4
 303 001a 9847     		blx	r3
 304 001c 03B0     		add	sp, sp, #12
 305              		@ sp needed
 306 001e 30BD     		pop	{r4, r5, pc}
 307              		.size	_ZN6uavcan17GenericSubscriberINS_8protocol18GetTransportStats_ENS2_8Request_ILi0EEENS_16Tran
 308              		.section	.text._ZN6uavcan20StaticTransferBufferILt129EED2Ev,"axG",%progbits,_ZN6uavcan20StaticTran
 309              		.align	1
 310              		.weak	_ZN6uavcan20StaticTransferBufferILt129EED2Ev
 311              		.thumb
 312              		.thumb_func
 313              		.type	_ZN6uavcan20StaticTransferBufferILt129EED2Ev, %function
 314              	_ZN6uavcan20StaticTransferBufferILt129EED2Ev:
 315              		@ args = 0, pretend = 0, frame = 0
 316              		@ frame_needed = 0, uses_anonymous_args = 0
 317              		@ link register save eliminated.
 318 0000 7047     		bx	lr
 319              		.size	_ZN6uavcan20StaticTransferBufferILt129EED2Ev, .-_ZN6uavcan20StaticTransferBufferILt129EED2Ev
 320              		.weak	_ZN6uavcan20StaticTransferBufferILt129EED1Ev
 321              		.thumb_set _ZN6uavcan20StaticTransferBufferILt129EED1Ev,_ZN6uavcan20StaticTransferBufferILt129EED2
 322              		.section	.text._ZN6uavcan20StaticTransferBufferILt371EED2Ev,"axG",%progbits,_ZN6uavcan20StaticTran
 323              		.align	1
 324              		.weak	_ZN6uavcan20StaticTransferBufferILt371EED2Ev
 325              		.thumb
 326              		.thumb_func
 327              		.type	_ZN6uavcan20StaticTransferBufferILt371EED2Ev, %function
 328              	_ZN6uavcan20StaticTransferBufferILt371EED2Ev:
 329              		@ args = 0, pretend = 0, frame = 0
 330              		@ frame_needed = 0, uses_anonymous_args = 0
 331              		@ link register save eliminated.
 332 0000 7047     		bx	lr
 333              		.size	_ZN6uavcan20StaticTransferBufferILt371EED2Ev, .-_ZN6uavcan20StaticTransferBufferILt371EED2Ev
 334              		.weak	_ZN6uavcan20StaticTransferBufferILt371EED1Ev
 335              		.thumb_set _ZN6uavcan20StaticTransferBufferILt371EED1Ev,_ZN6uavcan20StaticTransferBufferILt371EED2
 336              		.section	.text._ZN6uavcan20StaticTransferBufferILt73EED2Ev,"axG",%progbits,_ZN6uavcan20StaticTrans
 337              		.align	1
 338              		.weak	_ZN6uavcan20StaticTransferBufferILt73EED2Ev
 339              		.thumb
 340              		.thumb_func
 341              		.type	_ZN6uavcan20StaticTransferBufferILt73EED2Ev, %function
 342              	_ZN6uavcan20StaticTransferBufferILt73EED2Ev:
ARM GAS  /tmp/ccFEREDd.s 			page 7


 343              		@ args = 0, pretend = 0, frame = 0
 344              		@ frame_needed = 0, uses_anonymous_args = 0
 345              		@ link register save eliminated.
 346 0000 7047     		bx	lr
 347              		.size	_ZN6uavcan20StaticTransferBufferILt73EED2Ev, .-_ZN6uavcan20StaticTransferBufferILt73EED2Ev
 348              		.weak	_ZN6uavcan20StaticTransferBufferILt73EED1Ev
 349              		.thumb_set _ZN6uavcan20StaticTransferBufferILt73EED1Ev,_ZN6uavcan20StaticTransferBufferILt73EED2Ev
 350              		.section	.text._ZN6uavcan20StaticTransferBufferILt1EED2Ev,"axG",%progbits,_ZN6uavcan20StaticTransf
 351              		.align	1
 352              		.weak	_ZN6uavcan20StaticTransferBufferILt1EED2Ev
 353              		.thumb
 354              		.thumb_func
 355              		.type	_ZN6uavcan20StaticTransferBufferILt1EED2Ev, %function
 356              	_ZN6uavcan20StaticTransferBufferILt1EED2Ev:
 357              		@ args = 0, pretend = 0, frame = 0
 358              		@ frame_needed = 0, uses_anonymous_args = 0
 359              		@ link register save eliminated.
 360 0000 7047     		bx	lr
 361              		.size	_ZN6uavcan20StaticTransferBufferILt1EED2Ev, .-_ZN6uavcan20StaticTransferBufferILt1EED2Ev
 362              		.weak	_ZN6uavcan20StaticTransferBufferILt1EED1Ev
 363              		.thumb_set _ZN6uavcan20StaticTransferBufferILt1EED1Ev,_ZN6uavcan20StaticTransferBufferILt1EED2Ev
 364              		.section	.text._ZN6uavcan20StaticTransferBufferILt93EED2Ev,"axG",%progbits,_ZN6uavcan20StaticTrans
 365              		.align	1
 366              		.weak	_ZN6uavcan20StaticTransferBufferILt93EED2Ev
 367              		.thumb
 368              		.thumb_func
 369              		.type	_ZN6uavcan20StaticTransferBufferILt93EED2Ev, %function
 370              	_ZN6uavcan20StaticTransferBufferILt93EED2Ev:
 371              		@ args = 0, pretend = 0, frame = 0
 372              		@ frame_needed = 0, uses_anonymous_args = 0
 373              		@ link register save eliminated.
 374 0000 7047     		bx	lr
 375              		.size	_ZN6uavcan20StaticTransferBufferILt93EED2Ev, .-_ZN6uavcan20StaticTransferBufferILt93EED2Ev
 376              		.weak	_ZN6uavcan20StaticTransferBufferILt93EED1Ev
 377              		.thumb_set _ZN6uavcan20StaticTransferBufferILt93EED1Ev,_ZN6uavcan20StaticTransferBufferILt93EED2Ev
 378              		.section	.text._ZN6uavcan20StaticTransferBufferILt377EED2Ev,"axG",%progbits,_ZN6uavcan20StaticTran
 379              		.align	1
 380              		.weak	_ZN6uavcan20StaticTransferBufferILt377EED2Ev
 381              		.thumb
 382              		.thumb_func
 383              		.type	_ZN6uavcan20StaticTransferBufferILt377EED2Ev, %function
 384              	_ZN6uavcan20StaticTransferBufferILt377EED2Ev:
 385              		@ args = 0, pretend = 0, frame = 0
 386              		@ frame_needed = 0, uses_anonymous_args = 0
 387              		@ link register save eliminated.
 388 0000 7047     		bx	lr
 389              		.size	_ZN6uavcan20StaticTransferBufferILt377EED2Ev, .-_ZN6uavcan20StaticTransferBufferILt377EED2Ev
 390              		.weak	_ZN6uavcan20StaticTransferBufferILt377EED1Ev
 391              		.thumb_set _ZN6uavcan20StaticTransferBufferILt377EED1Ev,_ZN6uavcan20StaticTransferBufferILt377EED2
 392              		.section	.text._ZN6uavcan20StaticTransferBufferILt123EED0Ev,"axG",%progbits,_ZN6uavcan20StaticTran
 393              		.align	1
 394              		.weak	_ZN6uavcan20StaticTransferBufferILt123EED0Ev
 395              		.thumb
 396              		.thumb_func
 397              		.type	_ZN6uavcan20StaticTransferBufferILt123EED0Ev, %function
 398              	_ZN6uavcan20StaticTransferBufferILt123EED0Ev:
 399              		@ args = 0, pretend = 0, frame = 0
ARM GAS  /tmp/ccFEREDd.s 			page 8


 400              		@ frame_needed = 0, uses_anonymous_args = 0
 401 0000 10B5     		push	{r4, lr}
 402 0002 0446     		mov	r4, r0
 403 0004 FFF7FEFF 		bl	_ZdlPv
 404 0008 2046     		mov	r0, r4
 405 000a 10BD     		pop	{r4, pc}
 406              		.size	_ZN6uavcan20StaticTransferBufferILt123EED0Ev, .-_ZN6uavcan20StaticTransferBufferILt123EED0Ev
 407              		.section	.text._ZN6uavcan20StaticTransferBufferILt73EED0Ev,"axG",%progbits,_ZN6uavcan20StaticTrans
 408              		.align	1
 409              		.weak	_ZN6uavcan20StaticTransferBufferILt73EED0Ev
 410              		.thumb
 411              		.thumb_func
 412              		.type	_ZN6uavcan20StaticTransferBufferILt73EED0Ev, %function
 413              	_ZN6uavcan20StaticTransferBufferILt73EED0Ev:
 414              		@ args = 0, pretend = 0, frame = 0
 415              		@ frame_needed = 0, uses_anonymous_args = 0
 416 0000 10B5     		push	{r4, lr}
 417 0002 0446     		mov	r4, r0
 418 0004 FFF7FEFF 		bl	_ZdlPv
 419 0008 2046     		mov	r0, r4
 420 000a 10BD     		pop	{r4, pc}
 421              		.size	_ZN6uavcan20StaticTransferBufferILt73EED0Ev, .-_ZN6uavcan20StaticTransferBufferILt73EED0Ev
 422              		.section	.text._ZN6uavcan20StaticTransferBufferILt1EED0Ev,"axG",%progbits,_ZN6uavcan20StaticTransf
 423              		.align	1
 424              		.weak	_ZN6uavcan20StaticTransferBufferILt1EED0Ev
 425              		.thumb
 426              		.thumb_func
 427              		.type	_ZN6uavcan20StaticTransferBufferILt1EED0Ev, %function
 428              	_ZN6uavcan20StaticTransferBufferILt1EED0Ev:
 429              		@ args = 0, pretend = 0, frame = 0
 430              		@ frame_needed = 0, uses_anonymous_args = 0
 431 0000 10B5     		push	{r4, lr}
 432 0002 0446     		mov	r4, r0
 433 0004 FFF7FEFF 		bl	_ZdlPv
 434 0008 2046     		mov	r0, r4
 435 000a 10BD     		pop	{r4, pc}
 436              		.size	_ZN6uavcan20StaticTransferBufferILt1EED0Ev, .-_ZN6uavcan20StaticTransferBufferILt1EED0Ev
 437              		.section	.text._ZN6uavcan20StaticTransferBufferILt93EED0Ev,"axG",%progbits,_ZN6uavcan20StaticTrans
 438              		.align	1
 439              		.weak	_ZN6uavcan20StaticTransferBufferILt93EED0Ev
 440              		.thumb
 441              		.thumb_func
 442              		.type	_ZN6uavcan20StaticTransferBufferILt93EED0Ev, %function
 443              	_ZN6uavcan20StaticTransferBufferILt93EED0Ev:
 444              		@ args = 0, pretend = 0, frame = 0
 445              		@ frame_needed = 0, uses_anonymous_args = 0
 446 0000 10B5     		push	{r4, lr}
 447 0002 0446     		mov	r4, r0
 448 0004 FFF7FEFF 		bl	_ZdlPv
 449 0008 2046     		mov	r0, r4
 450 000a 10BD     		pop	{r4, pc}
 451              		.size	_ZN6uavcan20StaticTransferBufferILt93EED0Ev, .-_ZN6uavcan20StaticTransferBufferILt93EED0Ev
 452              		.section	.text._ZN6uavcan20StaticTransferBufferILt377EED0Ev,"axG",%progbits,_ZN6uavcan20StaticTran
 453              		.align	1
 454              		.weak	_ZN6uavcan20StaticTransferBufferILt377EED0Ev
 455              		.thumb
 456              		.thumb_func
ARM GAS  /tmp/ccFEREDd.s 			page 9


 457              		.type	_ZN6uavcan20StaticTransferBufferILt377EED0Ev, %function
 458              	_ZN6uavcan20StaticTransferBufferILt377EED0Ev:
 459              		@ args = 0, pretend = 0, frame = 0
 460              		@ frame_needed = 0, uses_anonymous_args = 0
 461 0000 10B5     		push	{r4, lr}
 462 0002 0446     		mov	r4, r0
 463 0004 FFF7FEFF 		bl	_ZdlPv
 464 0008 2046     		mov	r0, r4
 465 000a 10BD     		pop	{r4, pc}
 466              		.size	_ZN6uavcan20StaticTransferBufferILt377EED0Ev, .-_ZN6uavcan20StaticTransferBufferILt377EED0Ev
 467              		.section	.text._ZN6uavcan20StaticTransferBufferILt7EED0Ev,"axG",%progbits,_ZN6uavcan20StaticTransf
 468              		.align	1
 469              		.weak	_ZN6uavcan20StaticTransferBufferILt7EED0Ev
 470              		.thumb
 471              		.thumb_func
 472              		.type	_ZN6uavcan20StaticTransferBufferILt7EED0Ev, %function
 473              	_ZN6uavcan20StaticTransferBufferILt7EED0Ev:
 474              		@ args = 0, pretend = 0, frame = 0
 475              		@ frame_needed = 0, uses_anonymous_args = 0
 476 0000 10B5     		push	{r4, lr}
 477 0002 0446     		mov	r4, r0
 478 0004 FFF7FEFF 		bl	_ZdlPv
 479 0008 2046     		mov	r0, r4
 480 000a 10BD     		pop	{r4, pc}
 481              		.size	_ZN6uavcan20StaticTransferBufferILt7EED0Ev, .-_ZN6uavcan20StaticTransferBufferILt7EED0Ev
 482              		.section	.text._ZN6uavcan20StaticTransferBufferILt371EED0Ev,"axG",%progbits,_ZN6uavcan20StaticTran
 483              		.align	1
 484              		.weak	_ZN6uavcan20StaticTransferBufferILt371EED0Ev
 485              		.thumb
 486              		.thumb_func
 487              		.type	_ZN6uavcan20StaticTransferBufferILt371EED0Ev, %function
 488              	_ZN6uavcan20StaticTransferBufferILt371EED0Ev:
 489              		@ args = 0, pretend = 0, frame = 0
 490              		@ frame_needed = 0, uses_anonymous_args = 0
 491 0000 10B5     		push	{r4, lr}
 492 0002 0446     		mov	r4, r0
 493 0004 FFF7FEFF 		bl	_ZdlPv
 494 0008 2046     		mov	r0, r4
 495 000a 10BD     		pop	{r4, pc}
 496              		.size	_ZN6uavcan20StaticTransferBufferILt371EED0Ev, .-_ZN6uavcan20StaticTransferBufferILt371EED0Ev
 497              		.section	.text._ZN6uavcan20StaticTransferBufferILt129EED0Ev,"axG",%progbits,_ZN6uavcan20StaticTran
 498              		.align	1
 499              		.weak	_ZN6uavcan20StaticTransferBufferILt129EED0Ev
 500              		.thumb
 501              		.thumb_func
 502              		.type	_ZN6uavcan20StaticTransferBufferILt129EED0Ev, %function
 503              	_ZN6uavcan20StaticTransferBufferILt129EED0Ev:
 504              		@ args = 0, pretend = 0, frame = 0
 505              		@ frame_needed = 0, uses_anonymous_args = 0
 506 0000 10B5     		push	{r4, lr}
 507 0002 0446     		mov	r4, r0
 508 0004 FFF7FEFF 		bl	_ZdlPv
 509 0008 2046     		mov	r0, r4
 510 000a 10BD     		pop	{r4, pc}
 511              		.size	_ZN6uavcan20StaticTransferBufferILt129EED0Ev, .-_ZN6uavcan20StaticTransferBufferILt129EED0Ev
 512              		.section	.text._ZN6uavcan13PoolAllocatorILj7168ELh56EcED0Ev,"axG",%progbits,_ZN6uavcan13PoolAlloca
 513              		.align	1
ARM GAS  /tmp/ccFEREDd.s 			page 10


 514              		.weak	_ZN6uavcan13PoolAllocatorILj7168ELh56EcED0Ev
 515              		.thumb
 516              		.thumb_func
 517              		.type	_ZN6uavcan13PoolAllocatorILj7168ELh56EcED0Ev, %function
 518              	_ZN6uavcan13PoolAllocatorILj7168ELh56EcED0Ev:
 519              		@ args = 0, pretend = 0, frame = 0
 520              		@ frame_needed = 0, uses_anonymous_args = 0
 521 0000 10B5     		push	{r4, lr}
 522 0002 0446     		mov	r4, r0
 523 0004 FFF7FEFF 		bl	_ZdlPv
 524 0008 2046     		mov	r0, r4
 525 000a 10BD     		pop	{r4, pc}
 526              		.size	_ZN6uavcan13PoolAllocatorILj7168ELh56EcED0Ev, .-_ZN6uavcan13PoolAllocatorILj7168ELh56EcED0Ev
 527              		.section	.text._ZN4node12_GLOBAL__N_121RestartRequestHandlerD0Ev,"ax",%progbits
 528              		.align	1
 529              		.thumb
 530              		.thumb_func
 531              		.type	_ZN4node12_GLOBAL__N_121RestartRequestHandlerD0Ev, %function
 532              	_ZN4node12_GLOBAL__N_121RestartRequestHandlerD0Ev:
 533              		@ args = 0, pretend = 0, frame = 0
 534              		@ frame_needed = 0, uses_anonymous_args = 0
 535 0000 10B5     		push	{r4, lr}
 536 0002 0446     		mov	r4, r0
 537 0004 FFF7FEFF 		bl	_ZdlPv
 538 0008 2046     		mov	r0, r4
 539 000a 10BD     		pop	{r4, pc}
 540              		.size	_ZN4node12_GLOBAL__N_121RestartRequestHandlerD0Ev, .-_ZN4node12_GLOBAL__N_121RestartRequestH
 541              		.section	.text._ZN4node12_GLOBAL__N_112ParamManagerD0Ev,"ax",%progbits
 542              		.align	1
 543              		.thumb
 544              		.thumb_func
 545              		.type	_ZN4node12_GLOBAL__N_112ParamManagerD0Ev, %function
 546              	_ZN4node12_GLOBAL__N_112ParamManagerD0Ev:
 547              		@ args = 0, pretend = 0, frame = 0
 548              		@ frame_needed = 0, uses_anonymous_args = 0
 549 0000 10B5     		push	{r4, lr}
 550 0002 0446     		mov	r4, r0
 551 0004 FFF7FEFF 		bl	_ZdlPv
 552 0008 2046     		mov	r0, r4
 553 000a 10BD     		pop	{r4, pc}
 554              		.size	_ZN4node12_GLOBAL__N_112ParamManagerD0Ev, .-_ZN4node12_GLOBAL__N_112ParamManagerD0Ev
 555              		.section	.text._ZN6uavcan17GenericSubscriberINS_8protocol18GetTransportStats_ENS2_8Request_ILi0EEE
 556              		.align	1
 557              		.weak	_ZN6uavcan17GenericSubscriberINS_8protocol18GetTransportStats_ENS2_8Request_ILi0EEENS_16Tran
 558              		.thumb
 559              		.thumb_func
 560              		.type	_ZN6uavcan17GenericSubscriberINS_8protocol18GetTransportStats_ENS2_8Request_ILi0EEENS_16Tran
 561              	_ZN6uavcan17GenericSubscriberINS_8protocol18GetTransportStats_ENS2_8Request_ILi0EEENS_16TransferLis
 562              		@ args = 0, pretend = 0, frame = 0
 563              		@ frame_needed = 0, uses_anonymous_args = 0
 564 0000 10B5     		push	{r4, lr}
 565 0002 0446     		mov	r4, r0
 566 0004 024B     		ldr	r3, .L52
 567 0006 0360     		str	r3, [r0]
 568 0008 FFF7FEFF 		bl	_ZN6uavcan16TransferListenerD2Ev
 569 000c 2046     		mov	r0, r4
 570 000e 10BD     		pop	{r4, pc}
ARM GAS  /tmp/ccFEREDd.s 			page 11


 571              	.L53:
 572              		.align	2
 573              	.L52:
 574 0010 08000000 		.word	_ZTVN6uavcan17GenericSubscriberINS_8protocol18GetTransportStats_ENS2_8Request_ILi0EEENS_16Tr
 575              		.size	_ZN6uavcan17GenericSubscriberINS_8protocol18GetTransportStats_ENS2_8Request_ILi0EEENS_16Tran
 576              		.weak	_ZN6uavcan17GenericSubscriberINS_8protocol18GetTransportStats_ENS2_8Request_ILi0EEENS_16Tran
 577              		.thumb_set _ZN6uavcan17GenericSubscriberINS_8protocol18GetTransportStats_ENS2_8Request_ILi0EEENS_1
 578              		.section	.text._ZN6uavcan17GenericSubscriberINS_8protocol18GetTransportStats_ENS2_8Request_ILi0EEE
 579              		.align	1
 580              		.weak	_ZN6uavcan17GenericSubscriberINS_8protocol18GetTransportStats_ENS2_8Request_ILi0EEENS_16Tran
 581              		.thumb
 582              		.thumb_func
 583              		.type	_ZN6uavcan17GenericSubscriberINS_8protocol18GetTransportStats_ENS2_8Request_ILi0EEENS_16Tran
 584              	_ZN6uavcan17GenericSubscriberINS_8protocol18GetTransportStats_ENS2_8Request_ILi0EEENS_16TransferLis
 585              		@ args = 0, pretend = 0, frame = 0
 586              		@ frame_needed = 0, uses_anonymous_args = 0
 587 0000 10B5     		push	{r4, lr}
 588 0002 0446     		mov	r4, r0
 589 0004 FFF7FEFF 		bl	_ZN6uavcan17GenericSubscriberINS_8protocol18GetTransportStats_ENS2_8Request_ILi0EEENS_16Transfe
 590 0008 2046     		mov	r0, r4
 591 000a FFF7FEFF 		bl	_ZdlPv
 592 000e 2046     		mov	r0, r4
 593 0010 10BD     		pop	{r4, pc}
 594              		.size	_ZN6uavcan17GenericSubscriberINS_8protocol18GetTransportStats_ENS2_8Request_ILi0EEENS_16Tran
 595              		.section	.text._ZN6uavcan17GenericSubscriberINS_8protocol12RestartNode_ENS2_8Request_ILi0EEENS_16T
 596              		.align	1
 597              		.weak	_ZN6uavcan17GenericSubscriberINS_8protocol12RestartNode_ENS2_8Request_ILi0EEENS_16TransferLi
 598              		.thumb
 599              		.thumb_func
 600              		.type	_ZN6uavcan17GenericSubscriberINS_8protocol12RestartNode_ENS2_8Request_ILi0EEENS_16TransferLi
 601              	_ZN6uavcan17GenericSubscriberINS_8protocol12RestartNode_ENS2_8Request_ILi0EEENS_16TransferListenerE
 602              		@ args = 0, pretend = 0, frame = 0
 603              		@ frame_needed = 0, uses_anonymous_args = 0
 604 0000 10B5     		push	{r4, lr}
 605 0002 0446     		mov	r4, r0
 606 0004 024B     		ldr	r3, .L56
 607 0006 0360     		str	r3, [r0]
 608 0008 FFF7FEFF 		bl	_ZN6uavcan16TransferListenerD2Ev
 609 000c 2046     		mov	r0, r4
 610 000e 10BD     		pop	{r4, pc}
 611              	.L57:
 612              		.align	2
 613              	.L56:
 614 0010 08000000 		.word	_ZTVN6uavcan17GenericSubscriberINS_8protocol12RestartNode_ENS2_8Request_ILi0EEENS_16Transfer
 615              		.size	_ZN6uavcan17GenericSubscriberINS_8protocol12RestartNode_ENS2_8Request_ILi0EEENS_16TransferLi
 616              		.weak	_ZN6uavcan17GenericSubscriberINS_8protocol12RestartNode_ENS2_8Request_ILi0EEENS_16TransferLi
 617              		.thumb_set _ZN6uavcan17GenericSubscriberINS_8protocol12RestartNode_ENS2_8Request_ILi0EEENS_16Trans
 618              		.section	.text._ZN6uavcan17GenericSubscriberINS_8protocol12RestartNode_ENS2_8Request_ILi0EEENS_16T
 619              		.align	1
 620              		.weak	_ZN6uavcan17GenericSubscriberINS_8protocol12RestartNode_ENS2_8Request_ILi0EEENS_16TransferLi
 621              		.thumb
 622              		.thumb_func
 623              		.type	_ZN6uavcan17GenericSubscriberINS_8protocol12RestartNode_ENS2_8Request_ILi0EEENS_16TransferLi
 624              	_ZN6uavcan17GenericSubscriberINS_8protocol12RestartNode_ENS2_8Request_ILi0EEENS_16TransferListenerE
 625              		@ args = 0, pretend = 0, frame = 0
 626              		@ frame_needed = 0, uses_anonymous_args = 0
 627 0000 10B5     		push	{r4, lr}
ARM GAS  /tmp/ccFEREDd.s 			page 12


 628 0002 0446     		mov	r4, r0
 629 0004 FFF7FEFF 		bl	_ZN6uavcan17GenericSubscriberINS_8protocol12RestartNode_ENS2_8Request_ILi0EEENS_16TransferListe
 630 0008 2046     		mov	r0, r4
 631 000a FFF7FEFF 		bl	_ZdlPv
 632 000e 2046     		mov	r0, r4
 633 0010 10BD     		pop	{r4, pc}
 634              		.size	_ZN6uavcan17GenericSubscriberINS_8protocol12RestartNode_ENS2_8Request_ILi0EEENS_16TransferLi
 635              		.section	.text._ZN6uavcan17GenericSubscriberINS_8protocol16GetDataTypeInfo_ENS2_8Request_ILi0EEENS
 636              		.align	1
 637              		.weak	_ZN6uavcan17GenericSubscriberINS_8protocol16GetDataTypeInfo_ENS2_8Request_ILi0EEENS_16Transf
 638              		.thumb
 639              		.thumb_func
 640              		.type	_ZN6uavcan17GenericSubscriberINS_8protocol16GetDataTypeInfo_ENS2_8Request_ILi0EEENS_16Transf
 641              	_ZN6uavcan17GenericSubscriberINS_8protocol16GetDataTypeInfo_ENS2_8Request_ILi0EEENS_16TransferListe
 642              		@ args = 0, pretend = 0, frame = 0
 643              		@ frame_needed = 0, uses_anonymous_args = 0
 644 0000 10B5     		push	{r4, lr}
 645 0002 0446     		mov	r4, r0
 646 0004 024B     		ldr	r3, .L60
 647 0006 0360     		str	r3, [r0]
 648 0008 FFF7FEFF 		bl	_ZN6uavcan16TransferListenerD2Ev
 649 000c 2046     		mov	r0, r4
 650 000e 10BD     		pop	{r4, pc}
 651              	.L61:
 652              		.align	2
 653              	.L60:
 654 0010 08000000 		.word	_ZTVN6uavcan17GenericSubscriberINS_8protocol16GetDataTypeInfo_ENS2_8Request_ILi0EEENS_16Tran
 655              		.size	_ZN6uavcan17GenericSubscriberINS_8protocol16GetDataTypeInfo_ENS2_8Request_ILi0EEENS_16Transf
 656              		.weak	_ZN6uavcan17GenericSubscriberINS_8protocol16GetDataTypeInfo_ENS2_8Request_ILi0EEENS_16Transf
 657              		.thumb_set _ZN6uavcan17GenericSubscriberINS_8protocol16GetDataTypeInfo_ENS2_8Request_ILi0EEENS_16T
 658              		.section	.text._ZN6uavcan17GenericSubscriberINS_8protocol16GetDataTypeInfo_ENS2_8Request_ILi0EEENS
 659              		.align	1
 660              		.weak	_ZN6uavcan17GenericSubscriberINS_8protocol16GetDataTypeInfo_ENS2_8Request_ILi0EEENS_16Transf
 661              		.thumb
 662              		.thumb_func
 663              		.type	_ZN6uavcan17GenericSubscriberINS_8protocol16GetDataTypeInfo_ENS2_8Request_ILi0EEENS_16Transf
 664              	_ZN6uavcan17GenericSubscriberINS_8protocol16GetDataTypeInfo_ENS2_8Request_ILi0EEENS_16TransferListe
 665              		@ args = 0, pretend = 0, frame = 0
 666              		@ frame_needed = 0, uses_anonymous_args = 0
 667 0000 10B5     		push	{r4, lr}
 668 0002 0446     		mov	r4, r0
 669 0004 FFF7FEFF 		bl	_ZN6uavcan17GenericSubscriberINS_8protocol16GetDataTypeInfo_ENS2_8Request_ILi0EEENS_16TransferL
 670 0008 2046     		mov	r0, r4
 671 000a FFF7FEFF 		bl	_ZdlPv
 672 000e 2046     		mov	r0, r4
 673 0010 10BD     		pop	{r4, pc}
 674              		.size	_ZN6uavcan17GenericSubscriberINS_8protocol16GetDataTypeInfo_ENS2_8Request_ILi0EEENS_16Transf
 675              		.section	.text._ZN6uavcan17GenericSubscriberINS_8protocol15GlobalTimeSync_ILi0EEES3_NS_16TransferL
 676              		.align	1
 677              		.weak	_ZN6uavcan17GenericSubscriberINS_8protocol15GlobalTimeSync_ILi0EEES3_NS_16TransferListenerEE
 678              		.thumb
 679              		.thumb_func
 680              		.type	_ZN6uavcan17GenericSubscriberINS_8protocol15GlobalTimeSync_ILi0EEES3_NS_16TransferListenerEE
 681              	_ZN6uavcan17GenericSubscriberINS_8protocol15GlobalTimeSync_ILi0EEES3_NS_16TransferListenerEE17Trans
 682              		@ args = 0, pretend = 0, frame = 0
 683              		@ frame_needed = 0, uses_anonymous_args = 0
 684 0000 10B5     		push	{r4, lr}
ARM GAS  /tmp/ccFEREDd.s 			page 13


 685 0002 0446     		mov	r4, r0
 686 0004 024B     		ldr	r3, .L64
 687 0006 0360     		str	r3, [r0]
 688 0008 FFF7FEFF 		bl	_ZN6uavcan16TransferListenerD2Ev
 689 000c 2046     		mov	r0, r4
 690 000e 10BD     		pop	{r4, pc}
 691              	.L65:
 692              		.align	2
 693              	.L64:
 694 0010 08000000 		.word	_ZTVN6uavcan17GenericSubscriberINS_8protocol15GlobalTimeSync_ILi0EEES3_NS_16TransferListener
 695              		.size	_ZN6uavcan17GenericSubscriberINS_8protocol15GlobalTimeSync_ILi0EEES3_NS_16TransferListenerEE
 696              		.weak	_ZN6uavcan17GenericSubscriberINS_8protocol15GlobalTimeSync_ILi0EEES3_NS_16TransferListenerEE
 697              		.thumb_set _ZN6uavcan17GenericSubscriberINS_8protocol15GlobalTimeSync_ILi0EEES3_NS_16TransferListe
 698              		.section	.text._ZN6uavcan17GenericSubscriberINS_8protocol15GlobalTimeSync_ILi0EEES3_NS_16TransferL
 699              		.align	1
 700              		.weak	_ZN6uavcan17GenericSubscriberINS_8protocol15GlobalTimeSync_ILi0EEES3_NS_16TransferListenerEE
 701              		.thumb
 702              		.thumb_func
 703              		.type	_ZN6uavcan17GenericSubscriberINS_8protocol15GlobalTimeSync_ILi0EEES3_NS_16TransferListenerEE
 704              	_ZN6uavcan17GenericSubscriberINS_8protocol15GlobalTimeSync_ILi0EEES3_NS_16TransferListenerEE17Trans
 705              		@ args = 0, pretend = 0, frame = 0
 706              		@ frame_needed = 0, uses_anonymous_args = 0
 707 0000 10B5     		push	{r4, lr}
 708 0002 0446     		mov	r4, r0
 709 0004 FFF7FEFF 		bl	_ZN6uavcan17GenericSubscriberINS_8protocol15GlobalTimeSync_ILi0EEES3_NS_16TransferListenerEE17T
 710 0008 2046     		mov	r0, r4
 711 000a FFF7FEFF 		bl	_ZdlPv
 712 000e 2046     		mov	r0, r4
 713 0010 10BD     		pop	{r4, pc}
 714              		.size	_ZN6uavcan17GenericSubscriberINS_8protocol15GlobalTimeSync_ILi0EEES3_NS_16TransferListenerEE
 715              		.section	.text._ZN6uavcan17GenericSubscriberINS_8protocol5param14ExecuteOpcode_ENS3_8Request_ILi0E
 716              		.align	1
 717              		.weak	_ZN6uavcan17GenericSubscriberINS_8protocol5param14ExecuteOpcode_ENS3_8Request_ILi0EEENS_16Tr
 718              		.thumb
 719              		.thumb_func
 720              		.type	_ZN6uavcan17GenericSubscriberINS_8protocol5param14ExecuteOpcode_ENS3_8Request_ILi0EEENS_16Tr
 721              	_ZN6uavcan17GenericSubscriberINS_8protocol5param14ExecuteOpcode_ENS3_8Request_ILi0EEENS_16TransferL
 722              		@ args = 0, pretend = 0, frame = 0
 723              		@ frame_needed = 0, uses_anonymous_args = 0
 724 0000 10B5     		push	{r4, lr}
 725 0002 0446     		mov	r4, r0
 726 0004 024B     		ldr	r3, .L68
 727 0006 0360     		str	r3, [r0]
 728 0008 FFF7FEFF 		bl	_ZN6uavcan16TransferListenerD2Ev
 729 000c 2046     		mov	r0, r4
 730 000e 10BD     		pop	{r4, pc}
 731              	.L69:
 732              		.align	2
 733              	.L68:
 734 0010 08000000 		.word	_ZTVN6uavcan17GenericSubscriberINS_8protocol5param14ExecuteOpcode_ENS3_8Request_ILi0EEENS_16
 735              		.size	_ZN6uavcan17GenericSubscriberINS_8protocol5param14ExecuteOpcode_ENS3_8Request_ILi0EEENS_16Tr
 736              		.weak	_ZN6uavcan17GenericSubscriberINS_8protocol5param14ExecuteOpcode_ENS3_8Request_ILi0EEENS_16Tr
 737              		.thumb_set _ZN6uavcan17GenericSubscriberINS_8protocol5param14ExecuteOpcode_ENS3_8Request_ILi0EEENS
 738              		.section	.text._ZN6uavcan17GenericSubscriberINS_8protocol5param14ExecuteOpcode_ENS3_8Request_ILi0E
 739              		.align	1
 740              		.weak	_ZN6uavcan17GenericSubscriberINS_8protocol5param14ExecuteOpcode_ENS3_8Request_ILi0EEENS_16Tr
 741              		.thumb
ARM GAS  /tmp/ccFEREDd.s 			page 14


 742              		.thumb_func
 743              		.type	_ZN6uavcan17GenericSubscriberINS_8protocol5param14ExecuteOpcode_ENS3_8Request_ILi0EEENS_16Tr
 744              	_ZN6uavcan17GenericSubscriberINS_8protocol5param14ExecuteOpcode_ENS3_8Request_ILi0EEENS_16TransferL
 745              		@ args = 0, pretend = 0, frame = 0
 746              		@ frame_needed = 0, uses_anonymous_args = 0
 747 0000 10B5     		push	{r4, lr}
 748 0002 0446     		mov	r4, r0
 749 0004 FFF7FEFF 		bl	_ZN6uavcan17GenericSubscriberINS_8protocol5param14ExecuteOpcode_ENS3_8Request_ILi0EEENS_16Trans
 750 0008 2046     		mov	r0, r4
 751 000a FFF7FEFF 		bl	_ZdlPv
 752 000e 2046     		mov	r0, r4
 753 0010 10BD     		pop	{r4, pc}
 754              		.size	_ZN6uavcan17GenericSubscriberINS_8protocol5param14ExecuteOpcode_ENS3_8Request_ILi0EEENS_16Tr
 755              		.section	.text._ZN6uavcan17GenericSubscriberINS_8protocol5param7GetSet_ENS3_8Request_ILi0EEENS_16T
 756              		.align	1
 757              		.weak	_ZN6uavcan17GenericSubscriberINS_8protocol5param7GetSet_ENS3_8Request_ILi0EEENS_16TransferLi
 758              		.thumb
 759              		.thumb_func
 760              		.type	_ZN6uavcan17GenericSubscriberINS_8protocol5param7GetSet_ENS3_8Request_ILi0EEENS_16TransferLi
 761              	_ZN6uavcan17GenericSubscriberINS_8protocol5param7GetSet_ENS3_8Request_ILi0EEENS_16TransferListenerE
 762              		@ args = 0, pretend = 0, frame = 0
 763              		@ frame_needed = 0, uses_anonymous_args = 0
 764 0000 10B5     		push	{r4, lr}
 765 0002 0446     		mov	r4, r0
 766 0004 024B     		ldr	r3, .L72
 767 0006 0360     		str	r3, [r0]
 768 0008 FFF7FEFF 		bl	_ZN6uavcan16TransferListenerD2Ev
 769 000c 2046     		mov	r0, r4
 770 000e 10BD     		pop	{r4, pc}
 771              	.L73:
 772              		.align	2
 773              	.L72:
 774 0010 08000000 		.word	_ZTVN6uavcan17GenericSubscriberINS_8protocol5param7GetSet_ENS3_8Request_ILi0EEENS_16Transfer
 775              		.size	_ZN6uavcan17GenericSubscriberINS_8protocol5param7GetSet_ENS3_8Request_ILi0EEENS_16TransferLi
 776              		.weak	_ZN6uavcan17GenericSubscriberINS_8protocol5param7GetSet_ENS3_8Request_ILi0EEENS_16TransferLi
 777              		.thumb_set _ZN6uavcan17GenericSubscriberINS_8protocol5param7GetSet_ENS3_8Request_ILi0EEENS_16Trans
 778              		.section	.text._ZN6uavcan17GenericSubscriberINS_8protocol5param7GetSet_ENS3_8Request_ILi0EEENS_16T
 779              		.align	1
 780              		.weak	_ZN6uavcan17GenericSubscriberINS_8protocol5param7GetSet_ENS3_8Request_ILi0EEENS_16TransferLi
 781              		.thumb
 782              		.thumb_func
 783              		.type	_ZN6uavcan17GenericSubscriberINS_8protocol5param7GetSet_ENS3_8Request_ILi0EEENS_16TransferLi
 784              	_ZN6uavcan17GenericSubscriberINS_8protocol5param7GetSet_ENS3_8Request_ILi0EEENS_16TransferListenerE
 785              		@ args = 0, pretend = 0, frame = 0
 786              		@ frame_needed = 0, uses_anonymous_args = 0
 787 0000 10B5     		push	{r4, lr}
 788 0002 0446     		mov	r4, r0
 789 0004 FFF7FEFF 		bl	_ZN6uavcan17GenericSubscriberINS_8protocol5param7GetSet_ENS3_8Request_ILi0EEENS_16TransferListe
 790 0008 2046     		mov	r0, r4
 791 000a FFF7FEFF 		bl	_ZdlPv
 792 000e 2046     		mov	r0, r4
 793 0010 10BD     		pop	{r4, pc}
 794              		.size	_ZN6uavcan17GenericSubscriberINS_8protocol5param7GetSet_ENS3_8Request_ILi0EEENS_16TransferLi
 795              		.section	.text._ZN6uavcan17GenericSubscriberINS_8protocol4file20BeginFirmwareUpdate_ENS3_8Request_
 796              		.align	1
 797              		.weak	_ZN6uavcan17GenericSubscriberINS_8protocol4file20BeginFirmwareUpdate_ENS3_8Request_ILi0EEENS
 798              		.thumb
ARM GAS  /tmp/ccFEREDd.s 			page 15


 799              		.thumb_func
 800              		.type	_ZN6uavcan17GenericSubscriberINS_8protocol4file20BeginFirmwareUpdate_ENS3_8Request_ILi0EEENS
 801              	_ZN6uavcan17GenericSubscriberINS_8protocol4file20BeginFirmwareUpdate_ENS3_8Request_ILi0EEENS_16Tran
 802              		@ args = 0, pretend = 0, frame = 0
 803              		@ frame_needed = 0, uses_anonymous_args = 0
 804 0000 10B5     		push	{r4, lr}
 805 0002 0446     		mov	r4, r0
 806 0004 024B     		ldr	r3, .L76
 807 0006 0360     		str	r3, [r0]
 808 0008 FFF7FEFF 		bl	_ZN6uavcan16TransferListenerD2Ev
 809 000c 2046     		mov	r0, r4
 810 000e 10BD     		pop	{r4, pc}
 811              	.L77:
 812              		.align	2
 813              	.L76:
 814 0010 08000000 		.word	_ZTVN6uavcan17GenericSubscriberINS_8protocol4file20BeginFirmwareUpdate_ENS3_8Request_ILi0EEE
 815              		.size	_ZN6uavcan17GenericSubscriberINS_8protocol4file20BeginFirmwareUpdate_ENS3_8Request_ILi0EEENS
 816              		.weak	_ZN6uavcan17GenericSubscriberINS_8protocol4file20BeginFirmwareUpdate_ENS3_8Request_ILi0EEENS
 817              		.thumb_set _ZN6uavcan17GenericSubscriberINS_8protocol4file20BeginFirmwareUpdate_ENS3_8Request_ILi0
 818              		.section	.text._ZN6uavcan17GenericSubscriberINS_8protocol4file20BeginFirmwareUpdate_ENS3_8Request_
 819              		.align	1
 820              		.weak	_ZN6uavcan17GenericSubscriberINS_8protocol4file20BeginFirmwareUpdate_ENS3_8Request_ILi0EEENS
 821              		.thumb
 822              		.thumb_func
 823              		.type	_ZN6uavcan17GenericSubscriberINS_8protocol4file20BeginFirmwareUpdate_ENS3_8Request_ILi0EEENS
 824              	_ZN6uavcan17GenericSubscriberINS_8protocol4file20BeginFirmwareUpdate_ENS3_8Request_ILi0EEENS_16Tran
 825              		@ args = 0, pretend = 0, frame = 0
 826              		@ frame_needed = 0, uses_anonymous_args = 0
 827 0000 10B5     		push	{r4, lr}
 828 0002 0446     		mov	r4, r0
 829 0004 FFF7FEFF 		bl	_ZN6uavcan17GenericSubscriberINS_8protocol4file20BeginFirmwareUpdate_ENS3_8Request_ILi0EEENS_16
 830 0008 2046     		mov	r0, r4
 831 000a FFF7FEFF 		bl	_ZdlPv
 832 000e 2046     		mov	r0, r4
 833 0010 10BD     		pop	{r4, pc}
 834              		.size	_ZN6uavcan17GenericSubscriberINS_8protocol4file20BeginFirmwareUpdate_ENS3_8Request_ILi0EEENS
 835              		.section	.text._ZN10chibios_rt16BaseStaticThreadILi3000EE5startEm,"axG",%progbits,_ZN10chibios_rt1
 836              		.align	1
 837              		.weak	_ZN10chibios_rt16BaseStaticThreadILi3000EE5startEm
 838              		.thumb
 839              		.thumb_func
 840              		.type	_ZN10chibios_rt16BaseStaticThreadILi3000EE5startEm, %function
 841              	_ZN10chibios_rt16BaseStaticThreadILi3000EE5startEm:
 842              		@ args = 0, pretend = 0, frame = 0
 843              		@ frame_needed = 0, uses_anonymous_args = 0
 844 0000 37B5     		push	{r0, r1, r2, r4, r5, lr}
 845 0002 084B     		ldr	r3, .L80
 846 0004 0446     		mov	r4, r0
 847 0006 0D46     		mov	r5, r1
 848 0008 0091     		str	r1, [sp]
 849 000a 01F10800 		add	r0, r1, #8
 850 000e 4FF46461 		mov	r1, #3648
 851 0012 FFF7FEFF 		bl	chThdCreateStatic
 852 0016 6860     		str	r0, [r5, #4]
 853 0018 6060     		str	r0, [r4, #4]
 854 001a 2046     		mov	r0, r4
 855 001c 024B     		ldr	r3, .L80+4
ARM GAS  /tmp/ccFEREDd.s 			page 16


 856 001e 2360     		str	r3, [r4]
 857 0020 03B0     		add	sp, sp, #12
 858              		@ sp needed
 859 0022 30BD     		pop	{r4, r5, pc}
 860              	.L81:
 861              		.align	2
 862              	.L80:
 863 0024 00000000 		.word	_ZN10chibios_rt10_thd_startEPv
 864 0028 08000000 		.word	_ZTVN10chibios_rt15ThreadReferenceE+8
 865              		.size	_ZN10chibios_rt16BaseStaticThreadILi3000EE5startEm, .-_ZN10chibios_rt16BaseStaticThreadILi30
 866              		.section	.text._ZN4node12_GLOBAL__N_121RestartRequestHandler20handleRestartRequestEN6uavcan6NodeID
 867              		.align	1
 868              		.thumb
 869              		.thumb_func
 870              		.type	_ZN4node12_GLOBAL__N_121RestartRequestHandler20handleRestartRequestEN6uavcan6NodeIDE, %funct
 871              	_ZN4node12_GLOBAL__N_121RestartRequestHandler20handleRestartRequestEN6uavcan6NodeIDE:
 872              		@ args = 0, pretend = 0, frame = 0
 873              		@ frame_needed = 0, uses_anonymous_args = 0
 874 0000 08B5     		push	{r3, lr}
 875 0002 0448     		ldr	r0, .L83
 876 0004 C9B2     		uxtb	r1, r1
 877 0006 FFF7FEFF 		bl	lowsyslog
 878 000a 034B     		ldr	r3, .L83+4
 879 000c 0120     		movs	r0, #1
 880 000e 1870     		strb	r0, [r3]
 881 0010 08BD     		pop	{r3, pc}
 882              	.L84:
 883 0012 00BF     		.align	2
 884              	.L83:
 885 0014 00000000 		.word	.LC0
 886 0018 00000000 		.word	.LANCHOR0
 887              		.size	_ZN4node12_GLOBAL__N_121RestartRequestHandler20handleRestartRequestEN6uavcan6NodeIDE, .-_ZN4
 888              		.section	.text._ZN6uavcan19TimerEventForwarderISt8functionIFvRKNS_10TimerEventEEEE16handleTimerEve
 889              		.align	1
 890              		.weak	_ZN6uavcan19TimerEventForwarderISt8functionIFvRKNS_10TimerEventEEEE16handleTimerEventES4_
 891              		.thumb
 892              		.thumb_func
 893              		.type	_ZN6uavcan19TimerEventForwarderISt8functionIFvRKNS_10TimerEventEEEE16handleTimerEventES4_, %
 894              	_ZN6uavcan19TimerEventForwarderISt8functionIFvRKNS_10TimerEventEEEE16handleTimerEventES4_:
 895              		@ args = 0, pretend = 0, frame = 0
 896              		@ frame_needed = 0, uses_anonymous_args = 0
 897 0000 836A     		ldr	r3, [r0, #40]
 898 0002 10B5     		push	{r4, lr}
 899 0004 0BB9     		cbnz	r3, .L86
 900 0006 FFF7FEFF 		bl	_ZSt25__throw_bad_function_callv
 901              	.L86:
 902 000a C36A     		ldr	r3, [r0, #44]
 903 000c BDE81040 		pop	{r4, lr}
 904 0010 2030     		adds	r0, r0, #32
 905 0012 1847     		bx	r3	@ indirect register sibling call
 906              		.size	_ZN6uavcan19TimerEventForwarderISt8functionIFvRKNS_10TimerEventEEEE16handleTimerEventES4_, .
 907              		.section	.text._ZN4node12_GLOBAL__N_112ParamManager14eraseAllParamsEv,"ax",%progbits
 908              		.align	1
 909              		.thumb
 910              		.thumb_func
 911              		.type	_ZN4node12_GLOBAL__N_112ParamManager14eraseAllParamsEv, %function
 912              	_ZN4node12_GLOBAL__N_112ParamManager14eraseAllParamsEv:
ARM GAS  /tmp/ccFEREDd.s 			page 17


 913              		@ args = 0, pretend = 0, frame = 0
 914              		@ frame_needed = 0, uses_anonymous_args = 0
 915              		@ link register save eliminated.
 916 0000 FFF7FEBF 		b	configErase
 917              		.size	_ZN4node12_GLOBAL__N_112ParamManager14eraseAllParamsEv, .-_ZN4node12_GLOBAL__N_112ParamManag
 918              		.section	.text._ZN4node12_GLOBAL__N_112ParamManager13saveAllParamsEv,"ax",%progbits
 919              		.align	1
 920              		.thumb
 921              		.thumb_func
 922              		.type	_ZN4node12_GLOBAL__N_112ParamManager13saveAllParamsEv, %function
 923              	_ZN4node12_GLOBAL__N_112ParamManager13saveAllParamsEv:
 924              		@ args = 0, pretend = 0, frame = 0
 925              		@ frame_needed = 0, uses_anonymous_args = 0
 926              		@ link register save eliminated.
 927 0000 FFF7FEBF 		b	configSave
 928              		.size	_ZN4node12_GLOBAL__N_112ParamManager13saveAllParamsEv, .-_ZN4node12_GLOBAL__N_112ParamManage
 929              		.global	__aeabi_l2f
 930              		.section	.text._ZN4node12_GLOBAL__N_112ParamManager16assignParamValueERKN6uavcan5ArrayINS2_11Integ
 931              		.align	1
 932              		.thumb
 933              		.thumb_func
 934              		.type	_ZN4node12_GLOBAL__N_112ParamManager16assignParamValueERKN6uavcan5ArrayINS2_11IntegerSpecILj
 935              	_ZN4node12_GLOBAL__N_112ParamManager16assignParamValueERKN6uavcan5ArrayINS2_11IntegerSpecILj8ELNS2_
 936              		@ args = 0, pretend = 0, frame = 0
 937              		@ frame_needed = 0, uses_anonymous_args = 0
 938 0000 10B5     		push	{r4, lr}
 939 0002 92F89730 		ldrb	r3, [r2, #151]	@ zero_extendqisi2
 940 0006 0C46     		mov	r4, r1
 941 0008 032B     		cmp	r3, #3
 942 000a 03D1     		bne	.L90
 943 000c 137D     		ldrb	r3, [r2, #20]	@ zero_extendqisi2
 944 000e 6BB9     		cbnz	r3, .L94
 945 0010 0021     		movs	r1, #0
 946 0012 0DE0     		b	.L91
 947              	.L90:
 948 0014 012B     		cmp	r3, #1
 949 0016 05D1     		bne	.L92
 950 0018 D2E90201 		ldrd	r0, [r2, #8]
 951 001c FFF7FEFF 		bl	__aeabi_l2f
 952 0020 0146     		mov	r1, r0
 953 0022 05E0     		b	.L91
 954              	.L92:
 955 0024 022B     		cmp	r3, #2
 956 0026 0CD1     		bne	.L89
 957 0028 1169     		ldr	r1, [r2, #16]	@ float
 958 002a 01E0     		b	.L91
 959              	.L94:
 960 002c 4FF07E51 		mov	r1, #1065353216
 961              	.L91:
 962 0030 2378     		ldrb	r3, [r4]	@ zero_extendqisi2
 963 0032 0022     		movs	r2, #0
 964 0034 2344     		add	r3, r3, r4
 965 0036 5A70     		strb	r2, [r3, #1]
 966 0038 601C     		adds	r0, r4, #1
 967 003a BDE81040 		pop	{r4, lr}
 968 003e FFF7FEBF 		b	configSet
 969              	.L89:
ARM GAS  /tmp/ccFEREDd.s 			page 18


 970 0042 10BD     		pop	{r4, pc}
 971              		.size	_ZN4node12_GLOBAL__N_112ParamManager16assignParamValueERKN6uavcan5ArrayINS2_11IntegerSpecILj
 972              		.section	.text._ZN6uavcan11ParamServer19handleExecuteOpcodeERKNS_8protocol5param14ExecuteOpcode_8R
 973              		.align	1
 974              		.weak	_ZN6uavcan11ParamServer19handleExecuteOpcodeERKNS_8protocol5param14ExecuteOpcode_8Request_IL
 975              		.thumb
 976              		.thumb_func
 977              		.type	_ZN6uavcan11ParamServer19handleExecuteOpcodeERKNS_8protocol5param14ExecuteOpcode_8Request_IL
 978              	_ZN6uavcan11ParamServer19handleExecuteOpcodeERKNS_8protocol5param14ExecuteOpcode_8Request_ILi0EEERN
 979              		@ args = 0, pretend = 0, frame = 0
 980              		@ frame_needed = 0, uses_anonymous_args = 0
 981 0000 0B78     		ldrb	r3, [r1]	@ zero_extendqisi2
 982 0002 10B5     		push	{r4, lr}
 983 0004 1446     		mov	r4, r2
 984 0006 23B9     		cbnz	r3, .L96
 985 0008 D0F8F000 		ldr	r0, [r0, #240]
 986 000c 0368     		ldr	r3, [r0]
 987 000e 9B69     		ldr	r3, [r3, #24]
 988 0010 05E0     		b	.L99
 989              	.L96:
 990 0012 012B     		cmp	r3, #1
 991 0014 08D1     		bne	.L98
 992 0016 D0F8F000 		ldr	r0, [r0, #240]
 993 001a 0368     		ldr	r3, [r0]
 994 001c DB69     		ldr	r3, [r3, #28]
 995              	.L99:
 996 001e 9847     		blx	r3
 997 0020 C043     		mvns	r0, r0
 998 0022 C00F     		lsrs	r0, r0, #31
 999 0024 2072     		strb	r0, [r4, #8]
 1000 0026 10BD     		pop	{r4, pc}
 1001              	.L98:
 1002 0028 0023     		movs	r3, #0
 1003 002a 1372     		strb	r3, [r2, #8]
 1004 002c 10BD     		pop	{r4, pc}
 1005              		.size	_ZN6uavcan11ParamServer19handleExecuteOpcodeERKNS_8protocol5param14ExecuteOpcode_8Request_IL
 1006              		.section	.text._ZN6uavcan19TransferPerfCounter8addErrorEv.isra.6,"ax",%progbits
 1007              		.align	1
 1008              		.thumb
 1009              		.thumb_func
 1010              		.type	_ZN6uavcan19TransferPerfCounter8addErrorEv.isra.6, %function
 1011              	_ZN6uavcan19TransferPerfCounter8addErrorEv.isra.6:
 1012              		@ args = 0, pretend = 0, frame = 0
 1013              		@ frame_needed = 0, uses_anonymous_args = 0
 1014              		@ link register save eliminated.
 1015 0000 D0E90023 		ldrd	r2, [r0]
 1016 0004 0132     		adds	r2, r2, #1
 1017 0006 43F10003 		adc	r3, r3, #0
 1018 000a C0E90023 		strd	r2, [r0]
 1019 000e 7047     		bx	lr
 1020              		.size	_ZN6uavcan19TransferPerfCounter8addErrorEv.isra.6, .-_ZN6uavcan19TransferPerfCounter8addErro
 1021              		.global	__aeabi_f2lz
 1022              		.section	.text._ZNK4node12_GLOBAL__N_112ParamManager7convertEf14ConfigDataTypeRN6uavcan8protocol5p
 1023              		.align	1
 1024              		.thumb
 1025              		.thumb_func
 1026              		.type	_ZNK4node12_GLOBAL__N_112ParamManager7convertEf14ConfigDataTypeRN6uavcan8protocol5param13Num
ARM GAS  /tmp/ccFEREDd.s 			page 19


 1027              	_ZNK4node12_GLOBAL__N_112ParamManager7convertEf14ConfigDataTypeRN6uavcan8protocol5param13NumericVal
 1028              		@ args = 0, pretend = 0, frame = 0
 1029              		@ frame_needed = 0, uses_anonymous_args = 0
 1030 0000 0129     		cmp	r1, #1
 1031 0002 10B5     		push	{r4, lr}
 1032 0004 1446     		mov	r4, r2
 1033 0006 08D1     		bne	.L102
 1034 0008 137D     		ldrb	r3, [r2, #20]	@ zero_extendqisi2
 1035 000a 012B     		cmp	r3, #1
 1036 000c 18BF     		it	ne
 1037 000e 1175     		strbne	r1, [r2, #20]
 1038 0010 FFF7FEFF 		bl	__aeabi_f2lz
 1039 0014 C4E90201 		strd	r0, [r4, #8]
 1040 0018 10BD     		pop	{r4, pc}
 1041              	.L102:
 1042 001a 29B9     		cbnz	r1, .L101
 1043 001c 137D     		ldrb	r3, [r2, #20]	@ zero_extendqisi2
 1044 001e 1061     		str	r0, [r2, #16]	@ float
 1045 0020 022B     		cmp	r3, #2
 1046 0022 1CBF     		itt	ne
 1047 0024 0223     		movne	r3, #2
 1048 0026 1375     		strbne	r3, [r2, #20]
 1049              	.L101:
 1050 0028 10BD     		pop	{r4, pc}
 1051              		.size	_ZNK4node12_GLOBAL__N_112ParamManager7convertEf14ConfigDataTypeRN6uavcan8protocol5param13Num
 1052              		.global	__aeabi_f2uiz
 1053              		.section	.text._ZNK13zubax_chibios6config9_internal5ParamIjE3getEv.isra.54,"ax",%progbits
 1054              		.align	1
 1055              		.thumb
 1056              		.thumb_func
 1057              		.type	_ZNK13zubax_chibios6config9_internal5ParamIjE3getEv.isra.54, %function
 1058              	_ZNK13zubax_chibios6config9_internal5ParamIjE3getEv.isra.54:
 1059              		@ args = 0, pretend = 0, frame = 0
 1060              		@ frame_needed = 0, uses_anonymous_args = 0
 1061 0000 08B5     		push	{r3, lr}
 1062 0002 FFF7FEFF 		bl	configGet
 1063 0006 FFF7FEFF 		bl	__aeabi_f2uiz
 1064 000a 08BD     		pop	{r3, pc}
 1065              		.size	_ZNK13zubax_chibios6config9_internal5ParamIjE3getEv.isra.54, .-_ZNK13zubax_chibios6config9_i
 1066              		.section	.text._ZNK6uavcan20RestartRequestServer17handleRestartNodeERKNS_21ReceivedDataStructureIN
 1067              		.align	1
 1068              		.weak	_ZNK6uavcan20RestartRequestServer17handleRestartNodeERKNS_21ReceivedDataStructureINS_8protoc
 1069              		.thumb
 1070              		.thumb_func
 1071              		.type	_ZNK6uavcan20RestartRequestServer17handleRestartNodeERKNS_21ReceivedDataStructureINS_8protoc
 1072              	_ZNK6uavcan20RestartRequestServer17handleRestartNodeERKNS_21ReceivedDataStructureINS_8protocol12Res
 1073              		@ args = 0, pretend = 0, frame = 0
 1074              		@ frame_needed = 0, uses_anonymous_args = 0
 1075 0000 0023     		movs	r3, #0
 1076 0002 D0B5     		push	{r4, r6, r7, lr}
 1077 0004 0CA7     		adr	r7, .L120
 1078 0006 D7E90067 		ldrd	r6, [r7]
 1079 000a 1446     		mov	r4, r2
 1080 000c 1370     		strb	r3, [r2]
 1081 000e D1E90023 		ldrd	r2, [r1]
 1082 0012 BB42     		cmp	r3, r7
 1083 0014 08BF     		it	eq
ARM GAS  /tmp/ccFEREDd.s 			page 20


 1084 0016 B242     		cmpeq	r2, r6
 1085 0018 0AD1     		bne	.L113
 1086 001a 806F     		ldr	r0, [r0, #120]
 1087 001c 40B1     		cbz	r0, .L113
 1088 001e 0368     		ldr	r3, [r0]
 1089 0020 9A68     		ldr	r2, [r3, #8]
 1090 0022 8B68     		ldr	r3, [r1, #8]
 1091 0024 0BB1     		cbz	r3, .L116
 1092 0026 D97E     		ldrb	r1, [r3, #27]	@ zero_extendqisi2
 1093 0028 00E0     		b	.L115
 1094              	.L116:
 1095 002a FF21     		movs	r1, #255
 1096              	.L115:
 1097 002c 9047     		blx	r2
 1098 002e 2070     		strb	r0, [r4]
 1099              	.L113:
 1100 0030 D0BD     		pop	{r4, r6, r7, pc}
 1101              	.L121:
 1102 0032 00BFAFF3 		.align	3
 1102      0080
 1103              	.L120:
 1104 0038 1E1B55CE 		.word	-833283298
 1105 003c AC000000 		.word	172
 1106              		.size	_ZNK6uavcan20RestartRequestServer17handleRestartNodeERKNS_21ReceivedDataStructureINS_8protoc
 1107              		.section	.text._ZN6uavcan11ParamServer12handleGetSetERKNS_8protocol5param7GetSet_8Request_ILi0EEER
 1108              		.align	1
 1109              		.weak	_ZN6uavcan11ParamServer12handleGetSetERKNS_8protocol5param7GetSet_8Request_ILi0EEERNS3_9Resp
 1110              		.thumb
 1111              		.thumb_func
 1112              		.type	_ZN6uavcan11ParamServer12handleGetSetERKNS_8protocol5param7GetSet_8Request_ILi0EEERNS3_9Resp
 1113              	_ZN6uavcan11ParamServer12handleGetSetERKNS_8protocol5param7GetSet_8Request_ILi0EEERNS3_9Response_IL
 1114              		@ args = 0, pretend = 0, frame = 0
 1115              		@ frame_needed = 0, uses_anonymous_args = 0
 1116 0000 F7B5     		push	{r0, r1, r2, r4, r5, r6, r7, lr}
 1117 0002 91F8A030 		ldrb	r3, [r1, #160]	@ zero_extendqisi2
 1118 0006 0746     		mov	r7, r0
 1119 0008 0E46     		mov	r6, r1
 1120 000a 1446     		mov	r4, r2
 1121 000c 02F5B075 		add	r5, r2, #352
 1122 0010 3BB9     		cbnz	r3, .L123
 1123 0012 D0F8F000 		ldr	r0, [r0, #240]
 1124 0016 0988     		ldrh	r1, [r1]
 1125 0018 0368     		ldr	r3, [r0]
 1126 001a 2A46     		mov	r2, r5
 1127 001c 9B68     		ldr	r3, [r3, #8]
 1128 001e 9847     		blx	r3
 1129 0020 04E0     		b	.L124
 1130              	.L123:
 1131 0022 2846     		mov	r0, r5
 1132 0024 A031     		adds	r1, r1, #160
 1133 0026 5E22     		movs	r2, #94
 1134 0028 FFF7FEFF 		bl	memcpy
 1135              	.L124:
 1136 002c 94F86031 		ldrb	r3, [r4, #352]	@ zero_extendqisi2
 1137 0030 23B3     		cbz	r3, .L122
 1138 0032 96F89F30 		ldrb	r3, [r6, #159]	@ zero_extendqisi2
 1139 0036 3BB1     		cbz	r3, .L126
ARM GAS  /tmp/ccFEREDd.s 			page 21


 1140 0038 D7F8F000 		ldr	r0, [r7, #240]
 1141 003c 2946     		mov	r1, r5
 1142 003e 0368     		ldr	r3, [r0]
 1143 0040 06F10802 		add	r2, r6, #8
 1144 0044 DB68     		ldr	r3, [r3, #12]
 1145 0046 9847     		blx	r3
 1146              	.L126:
 1147 0048 D7F8F000 		ldr	r0, [r7, #240]
 1148 004c 2946     		mov	r1, r5
 1149 004e 0368     		ldr	r3, [r0]
 1150 0050 2246     		mov	r2, r4
 1151 0052 1B69     		ldr	r3, [r3, #16]
 1152 0054 9847     		blx	r3
 1153 0056 94F89730 		ldrb	r3, [r4, #151]	@ zero_extendqisi2
 1154 005a 6BB1     		cbz	r3, .L127
 1155 005c D7F8F000 		ldr	r0, [r7, #240]
 1156 0060 04F5A472 		add	r2, r4, #328
 1157 0064 0368     		ldr	r3, [r0]
 1158 0066 0092     		str	r2, [sp]
 1159 0068 5E69     		ldr	r6, [r3, #20]
 1160 006a 2946     		mov	r1, r5
 1161 006c 04F19802 		add	r2, r4, #152
 1162 0070 04F59873 		add	r3, r4, #304
 1163 0074 B047     		blx	r6
 1164 0076 01E0     		b	.L122
 1165              	.L127:
 1166 0078 84F86031 		strb	r3, [r4, #352]
 1167              	.L122:
 1168 007c 03B0     		add	sp, sp, #12
 1169              		@ sp needed
 1170 007e F0BD     		pop	{r4, r5, r6, r7, pc}
 1171              		.size	_ZN6uavcan11ParamServer12handleGetSetERKNS_8protocol5param7GetSet_8Request_ILi0EEERNS3_9Resp
 1172              		.section	.text._ZN6uavcan11IntegerSpecILj7ELNS_10SignednessE0ELNS_8CastModeE0EE6encodeEhRNS_11Scal
 1173              		.align	1
 1174              		.thumb
 1175              		.thumb_func
 1176              		.type	_ZN6uavcan11IntegerSpecILj7ELNS_10SignednessE0ELNS_8CastModeE0EE6encodeEhRNS_11ScalarCodecEN
 1177              	_ZN6uavcan11IntegerSpecILj7ELNS_10SignednessE0ELNS_8CastModeE0EE6encodeEhRNS_11ScalarCodecENS_25Tai
 1178              		@ args = 0, pretend = 0, frame = 8
 1179              		@ frame_needed = 0, uses_anonymous_args = 0
 1180 0000 07B5     		push	{r0, r1, r2, lr}
 1181 0002 7F28     		cmp	r0, #127
 1182 0004 28BF     		it	cs
 1183 0006 7F20     		movcs	r0, #127
 1184 0008 02AB     		add	r3, sp, #8
 1185 000a 00F07F00 		and	r0, r0, #127
 1186 000e 03F8010D 		strb	r0, [r3, #-1]!
 1187 0012 0722     		movs	r2, #7
 1188 0014 0846     		mov	r0, r1
 1189 0016 1946     		mov	r1, r3
 1190 0018 FFF7FEFF 		bl	_ZN6uavcan11ScalarCodec15encodeBytesImplEPhj
 1191 001c 03B0     		add	sp, sp, #12
 1192              		@ sp needed
 1193 001e 5DF804FB 		ldr	pc, [sp], #4
 1194              		.size	_ZN6uavcan11IntegerSpecILj7ELNS_10SignednessE0ELNS_8CastModeE0EE6encodeEhRNS_11ScalarCodecEN
 1195              		.section	.text._ZN6uavcan11IntegerSpecILj8ELNS_10SignednessE0ELNS_8CastModeE0EE6encodeEhRNS_11Scal
 1196              		.align	1
ARM GAS  /tmp/ccFEREDd.s 			page 22


 1197              		.thumb
 1198              		.thumb_func
 1199              		.type	_ZN6uavcan11IntegerSpecILj8ELNS_10SignednessE0ELNS_8CastModeE0EE6encodeEhRNS_11ScalarCodecEN
 1200              	_ZN6uavcan11IntegerSpecILj8ELNS_10SignednessE0ELNS_8CastModeE0EE6encodeEhRNS_11ScalarCodecENS_25Tai
 1201              		@ args = 0, pretend = 0, frame = 8
 1202              		@ frame_needed = 0, uses_anonymous_args = 0
 1203 0000 07B5     		push	{r0, r1, r2, lr}
 1204 0002 02AB     		add	r3, sp, #8
 1205 0004 03F8010D 		strb	r0, [r3, #-1]!
 1206 0008 0822     		movs	r2, #8
 1207 000a 0846     		mov	r0, r1
 1208 000c 1946     		mov	r1, r3
 1209 000e FFF7FEFF 		bl	_ZN6uavcan11ScalarCodec15encodeBytesImplEPhj
 1210 0012 03B0     		add	sp, sp, #12
 1211              		@ sp needed
 1212 0014 5DF804FB 		ldr	pc, [sp], #4
 1213              		.size	_ZN6uavcan11IntegerSpecILj8ELNS_10SignednessE0ELNS_8CastModeE0EE6encodeEhRNS_11ScalarCodecEN
 1214              		.section	.text._ZN6uavcan11IntegerSpecILj48ELNS_10SignednessE0ELNS_8CastModeE0EE6encodeEyRNS_11Sca
 1215              		.align	1
 1216              		.thumb
 1217              		.thumb_func
 1218              		.type	_ZN6uavcan11IntegerSpecILj48ELNS_10SignednessE0ELNS_8CastModeE0EE6encodeEyRNS_11ScalarCodecE
 1219              	_ZN6uavcan11IntegerSpecILj48ELNS_10SignednessE0ELNS_8CastModeE0EE6encodeEyRNS_11ScalarCodecENS_25Ta
 1220              		@ args = 0, pretend = 0, frame = 8
 1221              		@ frame_needed = 0, uses_anonymous_args = 0
 1222 0000 37B5     		push	{r0, r1, r2, r4, r5, lr}
 1223 0002 0D46     		mov	r5, r1
 1224 0004 4FF6FF71 		movw	r1, #65535
 1225 0008 0446     		mov	r4, r0
 1226 000a A942     		cmp	r1, r5
 1227 000c 4FF0FF30 		mov	r0, #-1
 1228 0010 08BF     		it	eq
 1229 0012 A042     		cmpeq	r0, r4
 1230 0014 3CBF     		itt	cc
 1231 0016 0446     		movcc	r4, r0
 1232 0018 0D46     		movcc	r5, r1
 1233 001a 02A9     		add	r1, sp, #8
 1234 001c 61E90245 		strd	r4, [r1, #-8]!
 1235 0020 1046     		mov	r0, r2
 1236 0022 3022     		movs	r2, #48
 1237 0024 FFF7FEFF 		bl	_ZN6uavcan11ScalarCodec15encodeBytesImplEPhj
 1238 0028 03B0     		add	sp, sp, #12
 1239              		@ sp needed
 1240 002a 30BD     		pop	{r4, r5, pc}
 1241              		.size	_ZN6uavcan11IntegerSpecILj48ELNS_10SignednessE0ELNS_8CastModeE0EE6encodeEyRNS_11ScalarCodecE
 1242              		.global	__aeabi_fcmpun
 1243              		.global	__aeabi_fcmpge
 1244              		.global	__aeabi_fmul
 1245              		.global	__aeabi_fcmple
 1246              		.section	.text._ZNK4node12_GLOBAL__N_112ParamManager7convertEf14ConfigDataTypeRN6uavcan8protocol5p
 1247              		.align	1
 1248              		.thumb
 1249              		.thumb_func
 1250              		.type	_ZNK4node12_GLOBAL__N_112ParamManager7convertEf14ConfigDataTypeRN6uavcan8protocol5param6Valu
 1251              	_ZNK4node12_GLOBAL__N_112ParamManager7convertEf14ConfigDataTypeRN6uavcan8protocol5param6Value_ILi0E
 1252              		@ args = 0, pretend = 0, frame = 0
 1253              		@ frame_needed = 0, uses_anonymous_args = 0
ARM GAS  /tmp/ccFEREDd.s 			page 23


 1254 0000 0229     		cmp	r1, #2
 1255 0002 F8B5     		push	{r3, r4, r5, r6, r7, lr}
 1256 0004 0646     		mov	r6, r0
 1257 0006 1546     		mov	r5, r2
 1258 0008 28D1     		bne	.L141
 1259 000a 92F89730 		ldrb	r3, [r2, #151]	@ zero_extendqisi2
 1260 000e 3146     		mov	r1, r6
 1261 0010 032B     		cmp	r3, #3
 1262 0012 1CBF     		itt	ne
 1263 0014 0323     		movne	r3, #3
 1264 0016 82F89730 		strbne	r3, [r2, #151]
 1265 001a FFF7FEFF 		bl	__aeabi_fcmpun
 1266 001e 08B1     		cbz	r0, .L167
 1267 0020 0020     		movs	r0, #0
 1268 0022 19E0     		b	.L143
 1269              	.L167:
 1270 0024 26F00047 		bic	r7, r6, #-2147483648
 1271 0028 3846     		mov	r0, r7
 1272 002a 2249     		ldr	r1, .L173
 1273 002c FFF7FEFF 		bl	__aeabi_fcmpun
 1274 0030 58BB     		cbnz	r0, .L157
 1275 0032 3846     		mov	r0, r7
 1276 0034 1F49     		ldr	r1, .L173
 1277 0036 FFF7FEFF 		bl	__aeabi_fcmple
 1278 003a 30BB     		cbnz	r0, .L157
 1279 003c 3046     		mov	r0, r6
 1280 003e 0021     		movs	r1, #0
 1281 0040 FFF7FEFF 		bl	__aeabi_fcmple
 1282 0044 40B1     		cbz	r0, .L143
 1283 0046 3046     		mov	r0, r6
 1284 0048 0021     		movs	r1, #0
 1285 004a 4FF00104 		mov	r4, #1
 1286 004e FFF7FEFF 		bl	__aeabi_fcmpge
 1287              	.L171:
 1288 0052 00B9     		cbnz	r0, .L146
 1289 0054 0446     		mov	r4, r0
 1290              	.L146:
 1291 0056 E0B2     		uxtb	r0, r4
 1292              	.L143:
 1293 0058 2875     		strb	r0, [r5, #20]
 1294 005a F8BD     		pop	{r3, r4, r5, r6, r7, pc}
 1295              	.L141:
 1296 005c 0129     		cmp	r1, #1
 1297 005e 0AD1     		bne	.L148
 1298 0060 92F89730 		ldrb	r3, [r2, #151]	@ zero_extendqisi2
 1299 0064 012B     		cmp	r3, #1
 1300 0066 18BF     		it	ne
 1301 0068 82F89710 		strbne	r1, [r2, #151]
 1302 006c FFF7FEFF 		bl	__aeabi_f2lz
 1303 0070 C5E90201 		strd	r0, [r5, #8]
 1304 0074 F8BD     		pop	{r3, r4, r5, r6, r7, pc}
 1305              	.L148:
 1306 0076 D9B9     		cbnz	r1, .L140
 1307 0078 92F89730 		ldrb	r3, [r2, #151]	@ zero_extendqisi2
 1308 007c 022B     		cmp	r3, #2
 1309 007e 1CBF     		itt	ne
 1310 0080 0223     		movne	r3, #2
ARM GAS  /tmp/ccFEREDd.s 			page 24


 1311 0082 82F89730 		strbne	r3, [r2, #151]
 1312 0086 2861     		str	r0, [r5, #16]	@ float
 1313 0088 F8BD     		pop	{r3, r4, r5, r6, r7, pc}
 1314              	.L157:
 1315 008a 3846     		mov	r0, r7
 1316 008c 4FF05051 		mov	r1, #872415232
 1317 0090 FFF7FEFF 		bl	__aeabi_fcmple
 1318 0094 50B9     		cbnz	r0, .L172
 1319 0096 3846     		mov	r0, r7
 1320 0098 0749     		ldr	r1, .L173+4
 1321 009a FFF7FEFF 		bl	__aeabi_fmul
 1322 009e 0146     		mov	r1, r0
 1323 00a0 3846     		mov	r0, r7
 1324 00a2 4FF00104 		mov	r4, #1
 1325 00a6 FFF7FEFF 		bl	__aeabi_fcmple
 1326 00aa D2E7     		b	.L171
 1327              	.L172:
 1328 00ac 0120     		movs	r0, #1
 1329 00ae D3E7     		b	.L143
 1330              	.L140:
 1331 00b0 F8BD     		pop	{r3, r4, r5, r6, r7, pc}
 1332              	.L174:
 1333 00b2 00BF     		.align	2
 1334              	.L173:
 1335 00b4 FFFF7F7F 		.word	2139095039
 1336 00b8 0000A035 		.word	899678208
 1337              		.size	_ZNK4node12_GLOBAL__N_112ParamManager7convertEf14ConfigDataTypeRN6uavcan8protocol5param6Valu
 1338              		.section	.text._ZNK4node12_GLOBAL__N_112ParamManager14readParamValueERKN6uavcan5ArrayINS2_11Intege
 1339              		.align	1
 1340              		.thumb
 1341              		.thumb_func
 1342              		.type	_ZNK4node12_GLOBAL__N_112ParamManager14readParamValueERKN6uavcan5ArrayINS2_11IntegerSpecILj8
 1343              	_ZNK4node12_GLOBAL__N_112ParamManager14readParamValueERKN6uavcan5ArrayINS2_11IntegerSpecILj8ELNS2_1
 1344              		@ args = 0, pretend = 0, frame = 24
 1345              		@ frame_needed = 0, uses_anonymous_args = 0
 1346 0000 F0B5     		push	{r4, r5, r6, r7, lr}
 1347 0002 0B78     		ldrb	r3, [r1]	@ zero_extendqisi2
 1348 0004 87B0     		sub	sp, sp, #28
 1349 0006 0B44     		add	r3, r3, r1
 1350 0008 0026     		movs	r6, #0
 1351 000a 4D1C     		adds	r5, r1, #1
 1352 000c 0C46     		mov	r4, r1
 1353 000e 5E70     		strb	r6, [r3, #1]
 1354 0010 2846     		mov	r0, r5
 1355 0012 01A9     		add	r1, sp, #4
 1356 0014 1746     		mov	r7, r2
 1357 0016 FFF7FEFF 		bl	configGetDescr
 1358 001a B042     		cmp	r0, r6
 1359 001c 0ADB     		blt	.L175
 1360 001e 2378     		ldrb	r3, [r4]	@ zero_extendqisi2
 1361 0020 2846     		mov	r0, r5
 1362 0022 1C44     		add	r4, r4, r3
 1363 0024 6670     		strb	r6, [r4, #1]
 1364 0026 FFF7FEFF 		bl	configGet
 1365 002a 9DF81410 		ldrb	r1, [sp, #20]	@ zero_extendqisi2
 1366 002e 3A46     		mov	r2, r7
 1367 0030 FFF7FEFF 		bl	_ZNK4node12_GLOBAL__N_112ParamManager7convertEf14ConfigDataTypeRN6uavcan8protocol5param6Value_I
ARM GAS  /tmp/ccFEREDd.s 			page 25


 1368              	.L175:
 1369 0034 07B0     		add	sp, sp, #28
 1370              		@ sp needed
 1371 0036 F0BD     		pop	{r4, r5, r6, r7, pc}
 1372              		.size	_ZNK4node12_GLOBAL__N_112ParamManager14readParamValueERKN6uavcan5ArrayINS2_11IntegerSpecILj8
 1373              		.section	.text._ZNK4node12_GLOBAL__N_112ParamManager22readParamDefaultMaxMinERKN6uavcan5ArrayINS2_
 1374              		.align	1
 1375              		.thumb
 1376              		.thumb_func
 1377              		.type	_ZNK4node12_GLOBAL__N_112ParamManager22readParamDefaultMaxMinERKN6uavcan5ArrayINS2_11Integer
 1378              	_ZNK4node12_GLOBAL__N_112ParamManager22readParamDefaultMaxMinERKN6uavcan5ArrayINS2_11IntegerSpecILj
 1379              		@ args = 4, pretend = 0, frame = 24
 1380              		@ frame_needed = 0, uses_anonymous_args = 0
 1381 0000 30B5     		push	{r4, r5, lr}
 1382 0002 1C46     		mov	r4, r3
 1383 0004 0B78     		ldrb	r3, [r1]	@ zero_extendqisi2
 1384 0006 87B0     		sub	sp, sp, #28
 1385 0008 0B44     		add	r3, r3, r1
 1386 000a 1546     		mov	r5, r2
 1387 000c 0022     		movs	r2, #0
 1388 000e 481C     		adds	r0, r1, #1
 1389 0010 5A70     		strb	r2, [r3, #1]
 1390 0012 01A9     		add	r1, sp, #4
 1391 0014 FFF7FEFF 		bl	configGetDescr
 1392 0018 0028     		cmp	r0, #0
 1393 001a 11DB     		blt	.L177
 1394 001c 0298     		ldr	r0, [sp, #8]	@ float
 1395 001e 9DF81410 		ldrb	r1, [sp, #20]	@ zero_extendqisi2
 1396 0022 2A46     		mov	r2, r5
 1397 0024 FFF7FEFF 		bl	_ZNK4node12_GLOBAL__N_112ParamManager7convertEf14ConfigDataTypeRN6uavcan8protocol5param6Value_I
 1398 0028 0498     		ldr	r0, [sp, #16]	@ float
 1399 002a 9DF81410 		ldrb	r1, [sp, #20]	@ zero_extendqisi2
 1400 002e 2246     		mov	r2, r4
 1401 0030 FFF7FEFF 		bl	_ZNK4node12_GLOBAL__N_112ParamManager7convertEf14ConfigDataTypeRN6uavcan8protocol5param13Numeri
 1402 0034 0398     		ldr	r0, [sp, #12]	@ float
 1403 0036 9DF81410 		ldrb	r1, [sp, #20]	@ zero_extendqisi2
 1404 003a 0A9A     		ldr	r2, [sp, #40]
 1405 003c FFF7FEFF 		bl	_ZNK4node12_GLOBAL__N_112ParamManager7convertEf14ConfigDataTypeRN6uavcan8protocol5param13Numeri
 1406              	.L177:
 1407 0040 07B0     		add	sp, sp, #28
 1408              		@ sp needed
 1409 0042 30BD     		pop	{r4, r5, pc}
 1410              		.size	_ZNK4node12_GLOBAL__N_112ParamManager22readParamDefaultMaxMinERKN6uavcan5ArrayINS2_11Integer
 1411              		.section	.text._ZNK6uavcan5ArrayINS_11IntegerSpecILj8ELNS_10SignednessE0ELNS_8CastModeE0EEELNS_9Ar
 1412              		.align	1
 1413              		.thumb
 1414              		.thumb_func
 1415              		.type	_ZNK6uavcan5ArrayINS_11IntegerSpecILj8ELNS_10SignednessE0ELNS_8CastModeE0EEELNS_9ArrayModeE1
 1416              	_ZNK6uavcan5ArrayINS_11IntegerSpecILj8ELNS_10SignednessE0ELNS_8CastModeE0EEELNS_9ArrayModeE1ELj80EE
 1417              		@ args = 0, pretend = 0, frame = 0
 1418              		@ frame_needed = 0, uses_anonymous_args = 0
 1419 0000 012A     		cmp	r2, #1
 1420 0002 70B5     		push	{r4, r5, r6, lr}
 1421 0004 0446     		mov	r4, r0
 1422 0006 0E46     		mov	r6, r1
 1423 0008 03D1     		bne	.L180
 1424              	.L184:
ARM GAS  /tmp/ccFEREDd.s 			page 26


 1425 000a 2378     		ldrb	r3, [r4]	@ zero_extendqisi2
 1426 000c 5BB1     		cbz	r3, .L181
 1427 000e 0025     		movs	r5, #0
 1428 0010 05E0     		b	.L182
 1429              	.L180:
 1430 0012 0078     		ldrb	r0, [r0]	@ zero_extendqisi2
 1431 0014 FFF7FEFF 		bl	_ZN6uavcan11IntegerSpecILj7ELNS_10SignednessE0ELNS_8CastModeE0EE6encodeEhRNS_11ScalarCodecENS_2
 1432 0018 0028     		cmp	r0, #0
 1433 001a F6DC     		bgt	.L184
 1434 001c 70BD     		pop	{r4, r5, r6, pc}
 1435              	.L182:
 1436 001e 2278     		ldrb	r2, [r4]	@ zero_extendqisi2
 1437 0020 EBB2     		uxtb	r3, r5
 1438 0022 9A42     		cmp	r2, r3
 1439 0024 01D8     		bhi	.L185
 1440              	.L181:
 1441 0026 0120     		movs	r0, #1
 1442 0028 70BD     		pop	{r4, r5, r6, pc}
 1443              	.L185:
 1444 002a 2344     		add	r3, r3, r4
 1445 002c 5878     		ldrb	r0, [r3, #1]	@ zero_extendqisi2
 1446 002e 3146     		mov	r1, r6
 1447 0030 FFF7FEFF 		bl	_ZN6uavcan11IntegerSpecILj8ELNS_10SignednessE0ELNS_8CastModeE0EE6encodeEhRNS_11ScalarCodecENS_2
 1448 0034 0028     		cmp	r0, #0
 1449 0036 05F10105 		add	r5, r5, #1
 1450 003a F0DC     		bgt	.L182
 1451 003c 70BD     		pop	{r4, r5, r6, pc}
 1452              		.size	_ZNK6uavcan5ArrayINS_11IntegerSpecILj8ELNS_10SignednessE0ELNS_8CastModeE0EEELNS_9ArrayModeE1
 1453              		.section	.text._ZN6uavcan8snprintfEPcjPKcz,"axG",%progbits,_ZN6uavcan8snprintfEPcjPKcz,comdat
 1454              		.align	1
 1455              		.weak	_ZN6uavcan8snprintfEPcjPKcz
 1456              		.thumb
 1457              		.thumb_func
 1458              		.type	_ZN6uavcan8snprintfEPcjPKcz, %function
 1459              	_ZN6uavcan8snprintfEPcjPKcz:
 1460              		@ args = 4, pretend = 8, frame = 8
 1461              		@ frame_needed = 0, uses_anonymous_args = 1
 1462 0000 0CB4     		push	{r2, r3}
 1463 0002 07B5     		push	{r0, r1, r2, lr}
 1464 0004 04AB     		add	r3, sp, #16
 1465 0006 53F8042B 		ldr	r2, [r3], #4
 1466 000a 0193     		str	r3, [sp, #4]
 1467 000c FFF7FEFF 		bl	vsnprintf
 1468 0010 03B0     		add	sp, sp, #12
 1469              		@ sp needed
 1470 0012 5DF804EB 		ldr	lr, [sp], #4
 1471 0016 02B0     		add	sp, sp, #8
 1472 0018 7047     		bx	lr
 1473              		.size	_ZN6uavcan8snprintfEPcjPKcz, .-_ZN6uavcan8snprintfEPcjPKcz
 1474              		.section	.text._ZN6uavcan22GlobalDataTypeRegistry5EntryC2Ev,"axG",%progbits,_ZN6uavcan22GlobalData
 1475              		.align	1
 1476              		.weak	_ZN6uavcan22GlobalDataTypeRegistry5EntryC2Ev
 1477              		.thumb
 1478              		.thumb_func
 1479              		.type	_ZN6uavcan22GlobalDataTypeRegistry5EntryC2Ev, %function
 1480              	_ZN6uavcan22GlobalDataTypeRegistry5EntryC2Ev:
 1481              		@ args = 0, pretend = 0, frame = 0
ARM GAS  /tmp/ccFEREDd.s 			page 27


 1482              		@ frame_needed = 0, uses_anonymous_args = 0
 1483 0000 30B5     		push	{r4, r5, lr}
 1484 0002 0022     		movs	r2, #0
 1485 0004 0549     		ldr	r1, .L193
 1486 0006 0260     		str	r2, [r0]
 1487 0008 0024     		movs	r4, #0
 1488 000a 0025     		movs	r5, #0
 1489 000c 0275     		strb	r2, [r0, #20]
 1490 000e 4FF0FF32 		mov	r2, #-1
 1491 0012 C0E90245 		strd	r4, [r0, #8]
 1492 0016 0161     		str	r1, [r0, #16]
 1493 0018 8261     		str	r2, [r0, #24]
 1494 001a 30BD     		pop	{r4, r5, pc}
 1495              	.L194:
 1496              		.align	2
 1497              	.L193:
 1498 001c 19000000 		.word	.LC1
 1499              		.size	_ZN6uavcan22GlobalDataTypeRegistry5EntryC2Ev, .-_ZN6uavcan22GlobalDataTypeRegistry5EntryC2Ev
 1500              		.weak	_ZN6uavcan22GlobalDataTypeRegistry5EntryC1Ev
 1501              		.thumb_set _ZN6uavcan22GlobalDataTypeRegistry5EntryC1Ev,_ZN6uavcan22GlobalDataTypeRegistry5EntryC2
 1502              		.section	.text._ZN6uavcan16TransferListenerC2ERNS_19TransferPerfCounterERKNS_18DataTypeDescriptorE
 1503              		.align	1
 1504              		.weak	_ZN6uavcan16TransferListenerC2ERNS_19TransferPerfCounterERKNS_18DataTypeDescriptorEtRNS_14IP
 1505              		.thumb
 1506              		.thumb_func
 1507              		.type	_ZN6uavcan16TransferListenerC2ERNS_19TransferPerfCounterERKNS_18DataTypeDescriptorEtRNS_14IP
 1508              	_ZN6uavcan16TransferListenerC2ERNS_19TransferPerfCounterERKNS_18DataTypeDescriptorEtRNS_14IPoolAllo
 1509              		@ args = 4, pretend = 0, frame = 0
 1510              		@ frame_needed = 0, uses_anonymous_args = 0
 1511 0000 70B5     		push	{r4, r5, r6, lr}
 1512 0002 0446     		mov	r4, r0
 1513 0004 094E     		ldr	r6, .L196
 1514 0006 0498     		ldr	r0, [sp, #16]
 1515 0008 0025     		movs	r5, #0
 1516 000a 2061     		str	r0, [r4, #16]
 1517 000c E061     		str	r0, [r4, #28]
 1518 000e 6560     		str	r5, [r4, #4]
 1519 0010 2660     		str	r6, [r4]
 1520 0012 A260     		str	r2, [r4, #8]
 1521 0014 E560     		str	r5, [r4, #12]
 1522 0016 A382     		strh	r3, [r4, #20]	@ movhi
 1523 0018 A561     		str	r5, [r4, #24]
 1524 001a 2162     		str	r1, [r4, #32]
 1525 001c 1046     		mov	r0, r2
 1526 001e FFF7FEFF 		bl	_ZNK6uavcan17DataTypeSignature13toTransferCRCEv
 1527 0022 84F82650 		strb	r5, [r4, #38]
 1528 0026 A084     		strh	r0, [r4, #36]	@ movhi
 1529 0028 2046     		mov	r0, r4
 1530 002a 70BD     		pop	{r4, r5, r6, pc}
 1531              	.L197:
 1532              		.align	2
 1533              	.L196:
 1534 002c 08000000 		.word	_ZTVN6uavcan16TransferListenerE+8
 1535              		.size	_ZN6uavcan16TransferListenerC2ERNS_19TransferPerfCounterERKNS_18DataTypeDescriptorEtRNS_14IP
 1536              		.weak	_ZN6uavcan16TransferListenerC1ERNS_19TransferPerfCounterERKNS_18DataTypeDescriptorEtRNS_14IP
 1537              		.thumb_set _ZN6uavcan16TransferListenerC1ERNS_19TransferPerfCounterERKNS_18DataTypeDescriptorEtRNS
 1538              		.section	.text._ZN6uavcan5INode13getDispatcherEv,"axG",%progbits,_ZN6uavcan5INode13getDispatcherEv
ARM GAS  /tmp/ccFEREDd.s 			page 28


 1539              		.align	1
 1540              		.weak	_ZN6uavcan5INode13getDispatcherEv
 1541              		.thumb
 1542              		.thumb_func
 1543              		.type	_ZN6uavcan5INode13getDispatcherEv, %function
 1544              	_ZN6uavcan5INode13getDispatcherEv:
 1545              		@ args = 0, pretend = 0, frame = 0
 1546              		@ frame_needed = 0, uses_anonymous_args = 0
 1547 0000 08B5     		push	{r3, lr}
 1548 0002 0368     		ldr	r3, [r0]
 1549 0004 DB68     		ldr	r3, [r3, #12]
 1550 0006 9847     		blx	r3
 1551 0008 0830     		adds	r0, r0, #8
 1552 000a 08BD     		pop	{r3, pc}
 1553              		.size	_ZN6uavcan5INode13getDispatcherEv, .-_ZN6uavcan5INode13getDispatcherEv
 1554              		.section	.text._ZNK6uavcan22TransportStatsProvider23handleGetTransportStatsERKNS_8protocol18GetTra
 1555              		.align	1
 1556              		.weak	_ZNK6uavcan22TransportStatsProvider23handleGetTransportStatsERKNS_8protocol18GetTransportSta
 1557              		.thumb
 1558              		.thumb_func
 1559              		.type	_ZNK6uavcan22TransportStatsProvider23handleGetTransportStatsERKNS_8protocol18GetTransportSta
 1560              	_ZNK6uavcan22TransportStatsProvider23handleGetTransportStatsERKNS_8protocol18GetTransportStats_8Req
 1561              		@ args = 0, pretend = 0, frame = 24
 1562              		@ frame_needed = 0, uses_anonymous_args = 0
 1563 0000 2DE9F043 		push	{r4, r5, r6, r7, r8, r9, lr}
 1564 0004 0546     		mov	r5, r0
 1565 0006 87B0     		sub	sp, sp, #28
 1566 0008 4068     		ldr	r0, [r0, #4]
 1567 000a 1446     		mov	r4, r2
 1568 000c FFF7FEFF 		bl	_ZN6uavcan5INode13getDispatcherEv
 1569 0010 D0E93023 		ldrd	r2, [r0, #192]
 1570 0014 C4E90423 		strd	r2, [r4, #16]
 1571 0018 D0E92C23 		ldrd	r2, [r0, #176]
 1572 001c C4E90023 		strd	r2, [r4]
 1573 0020 D0E92E23 		ldrd	r2, [r0, #184]
 1574 0024 6868     		ldr	r0, [r5, #4]
 1575 0026 C4E90223 		strd	r2, [r4, #8]
 1576 002a FFF7FEFF 		bl	_ZN6uavcan5INode13getDispatcherEv
 1577 002e 0646     		mov	r6, r0
 1578 0030 00F10807 		add	r7, r0, #8
 1579 0034 0025     		movs	r5, #0
 1580              	.L200:
 1581 0036 96F89830 		ldrb	r3, [r6, #152]	@ zero_extendqisi2
 1582 003a EAB2     		uxtb	r2, r5
 1583 003c 9342     		cmp	r3, r2
 1584 003e 2DD9     		bls	.L205
 1585 0040 6846     		mov	r0, sp
 1586 0042 3946     		mov	r1, r7
 1587 0044 FFF7FEFF 		bl	_ZNK6uavcan12CanIOManager20getIfacePerfCountersEh
 1588 0048 DDE90423 		ldrd	r2, [sp, #16]
 1589 004c DDE90089 		ldrd	r8, [sp]
 1590 0050 DDE90201 		ldrd	r0, [sp, #8]
 1591 0054 94F818E0 		ldrb	lr, [r4, #24]	@ zero_extendqisi2
 1592 0058 BEF1020F 		cmp	lr, #2
 1593 005c 9CBF     		itt	ls
 1594 005e 0EF1010E 		addls	lr, lr, #1
 1595 0062 84F818E0 		strbls	lr, [r4, #24]
ARM GAS  /tmp/ccFEREDd.s 			page 29


 1596 0066 94F818C0 		ldrb	ip, [r4, #24]	@ zero_extendqisi2
 1597 006a 0CF1FF3E 		add	lr, ip, #-1
 1598 006e 5FFA8EFE 		uxtb	lr, lr
 1599 0072 E645     		cmp	lr, ip
 1600 0074 04D3     		bcc	.L202
 1601 0076 BCF1000F 		cmp	ip, #0
 1602 007a 08BF     		it	eq
 1603 007c 4FF0000E 		moveq	lr, #0
 1604              	.L202:
 1605 0080 4FF0180C 		mov	ip, #24
 1606 0084 0CFB0E4E 		mla	lr, ip, lr, r4
 1607 0088 0135     		adds	r5, r5, #1
 1608 008a CEE90889 		strd	r8, [lr, #32]
 1609 008e CEE90A01 		strd	r0, [lr, #40]
 1610 0092 CEE90C23 		strd	r2, [lr, #48]
 1611 0096 0EF1200E 		add	lr, lr, #32
 1612 009a CCE7     		b	.L200
 1613              	.L205:
 1614 009c 07B0     		add	sp, sp, #28
 1615              		@ sp needed
 1616 009e BDE8F083 		pop	{r4, r5, r6, r7, r8, r9, pc}
 1617              		.size	_ZNK6uavcan22TransportStatsProvider23handleGetTransportStatsERKNS_8protocol18GetTransportSta
 1618              		.section	.text._ZN6uavcan13ServiceServerINS_8protocol16GetDataTypeInfo_ENS_12MethodBinderIPNS_20Da
 1619              		.align	1
 1620              		.thumb
 1621              		.thumb_func
 1622              		.type	_ZN6uavcan13ServiceServerINS_8protocol16GetDataTypeInfo_ENS_12MethodBinderIPNS_20DataTypeInf
 1623              	_ZN6uavcan13ServiceServerINS_8protocol16GetDataTypeInfo_ENS_12MethodBinderIPNS_20DataTypeInfoProvid
 1624              		@ args = 0, pretend = 0, frame = 0
 1625              		@ frame_needed = 0, uses_anonymous_args = 0
 1626 0000 10B5     		push	{r4, lr}
 1627 0002 0446     		mov	r4, r0
 1628 0004 006E     		ldr	r0, [r0, #96]
 1629 0006 FFF7FEFF 		bl	_ZN6uavcan5INode13getDispatcherEv
 1630 000a C030     		adds	r0, r0, #192
 1631 000c FFF7FEFF 		bl	_ZN6uavcan19TransferPerfCounter8addErrorEv.isra.6
 1632 0010 636F     		ldr	r3, [r4, #116]
 1633 0012 0133     		adds	r3, r3, #1
 1634 0014 6367     		str	r3, [r4, #116]
 1635 0016 10BD     		pop	{r4, pc}
 1636              		.size	_ZN6uavcan13ServiceServerINS_8protocol16GetDataTypeInfo_ENS_12MethodBinderIPNS_20DataTypeInf
 1637              		.section	.text._ZN6uavcan17GenericSubscriberINS_8protocol16GetDataTypeInfo_ENS2_8Request_ILi0EEENS
 1638              		.align	1
 1639              		.thumb
 1640              		.thumb_func
 1641              		.type	_ZN6uavcan17GenericSubscriberINS_8protocol16GetDataTypeInfo_ENS2_8Request_ILi0EEENS_16Transf
 1642              	_ZN6uavcan17GenericSubscriberINS_8protocol16GetDataTypeInfo_ENS2_8Request_ILi0EEENS_16TransferListe
 1643              		@ args = 0, pretend = 0, frame = 0
 1644              		@ frame_needed = 0, uses_anonymous_args = 0
 1645 0000 08B5     		push	{r3, lr}
 1646 0002 8368     		ldr	r3, [r0, #8]
 1647 0004 0133     		adds	r3, r3, #1
 1648 0006 8360     		str	r3, [r0, #8]
 1649 0008 4068     		ldr	r0, [r0, #4]
 1650 000a FFF7FEFF 		bl	_ZN6uavcan5INode13getDispatcherEv
 1651 000e BDE80840 		pop	{r3, lr}
 1652 0012 C030     		adds	r0, r0, #192
ARM GAS  /tmp/ccFEREDd.s 			page 30


 1653 0014 FFF7FEBF 		b	_ZN6uavcan19TransferPerfCounter8addErrorEv.isra.6
 1654              		.size	_ZN6uavcan17GenericSubscriberINS_8protocol16GetDataTypeInfo_ENS2_8Request_ILi0EEENS_16Transf
 1655              		.section	.text._ZN6uavcan13ServiceServerINS_8protocol4file20BeginFirmwareUpdate_EPFvRKNS_21Receive
 1656              		.align	1
 1657              		.thumb
 1658              		.thumb_func
 1659              		.type	_ZN6uavcan13ServiceServerINS_8protocol4file20BeginFirmwareUpdate_EPFvRKNS_21ReceivedDataStru
 1660              	_ZN6uavcan13ServiceServerINS_8protocol4file20BeginFirmwareUpdate_EPFvRKNS_21ReceivedDataStructureIN
 1661              		@ args = 0, pretend = 0, frame = 0
 1662              		@ frame_needed = 0, uses_anonymous_args = 0
 1663 0000 10B5     		push	{r4, lr}
 1664 0002 0446     		mov	r4, r0
 1665 0004 006E     		ldr	r0, [r0, #96]
 1666 0006 FFF7FEFF 		bl	_ZN6uavcan5INode13getDispatcherEv
 1667 000a C030     		adds	r0, r0, #192
 1668 000c FFF7FEFF 		bl	_ZN6uavcan19TransferPerfCounter8addErrorEv.isra.6
 1669 0010 E36E     		ldr	r3, [r4, #108]
 1670 0012 0133     		adds	r3, r3, #1
 1671 0014 E366     		str	r3, [r4, #108]
 1672 0016 10BD     		pop	{r4, pc}
 1673              		.size	_ZN6uavcan13ServiceServerINS_8protocol4file20BeginFirmwareUpdate_EPFvRKNS_21ReceivedDataStru
 1674              		.section	.text._ZN6uavcan17GenericSubscriberINS_8protocol4file20BeginFirmwareUpdate_ENS3_8Request_
 1675              		.align	1
 1676              		.thumb
 1677              		.thumb_func
 1678              		.type	_ZN6uavcan17GenericSubscriberINS_8protocol4file20BeginFirmwareUpdate_ENS3_8Request_ILi0EEENS
 1679              	_ZN6uavcan17GenericSubscriberINS_8protocol4file20BeginFirmwareUpdate_ENS3_8Request_ILi0EEENS_16Tran
 1680              		@ args = 0, pretend = 0, frame = 0
 1681              		@ frame_needed = 0, uses_anonymous_args = 0
 1682 0000 08B5     		push	{r3, lr}
 1683 0002 8368     		ldr	r3, [r0, #8]
 1684 0004 0133     		adds	r3, r3, #1
 1685 0006 8360     		str	r3, [r0, #8]
 1686 0008 4068     		ldr	r0, [r0, #4]
 1687 000a FFF7FEFF 		bl	_ZN6uavcan5INode13getDispatcherEv
 1688 000e BDE80840 		pop	{r3, lr}
 1689 0012 C030     		adds	r0, r0, #192
 1690 0014 FFF7FEBF 		b	_ZN6uavcan19TransferPerfCounter8addErrorEv.isra.6
 1691              		.size	_ZN6uavcan17GenericSubscriberINS_8protocol4file20BeginFirmwareUpdate_ENS3_8Request_ILi0EEENS
 1692              		.section	.text._ZN6uavcan13ServiceServerINS_8protocol5param7GetSet_ENS_12MethodBinderIPNS_11ParamS
 1693              		.align	1
 1694              		.thumb
 1695              		.thumb_func
 1696              		.type	_ZN6uavcan13ServiceServerINS_8protocol5param7GetSet_ENS_12MethodBinderIPNS_11ParamServerEMS5
 1697              	_ZN6uavcan13ServiceServerINS_8protocol5param7GetSet_ENS_12MethodBinderIPNS_11ParamServerEMS5_FvRKNS
 1698              		@ args = 0, pretend = 0, frame = 0
 1699              		@ frame_needed = 0, uses_anonymous_args = 0
 1700 0000 10B5     		push	{r4, lr}
 1701 0002 0446     		mov	r4, r0
 1702 0004 006E     		ldr	r0, [r0, #96]
 1703 0006 FFF7FEFF 		bl	_ZN6uavcan5INode13getDispatcherEv
 1704 000a C030     		adds	r0, r0, #192
 1705 000c FFF7FEFF 		bl	_ZN6uavcan19TransferPerfCounter8addErrorEv.isra.6
 1706 0010 636F     		ldr	r3, [r4, #116]
 1707 0012 0133     		adds	r3, r3, #1
 1708 0014 6367     		str	r3, [r4, #116]
 1709 0016 10BD     		pop	{r4, pc}
ARM GAS  /tmp/ccFEREDd.s 			page 31


 1710              		.size	_ZN6uavcan13ServiceServerINS_8protocol5param7GetSet_ENS_12MethodBinderIPNS_11ParamServerEMS5
 1711              		.section	.text._ZN6uavcan17GenericSubscriberINS_8protocol5param7GetSet_ENS3_8Request_ILi0EEENS_16T
 1712              		.align	1
 1713              		.thumb
 1714              		.thumb_func
 1715              		.type	_ZN6uavcan17GenericSubscriberINS_8protocol5param7GetSet_ENS3_8Request_ILi0EEENS_16TransferLi
 1716              	_ZN6uavcan17GenericSubscriberINS_8protocol5param7GetSet_ENS3_8Request_ILi0EEENS_16TransferListenerE
 1717              		@ args = 0, pretend = 0, frame = 0
 1718              		@ frame_needed = 0, uses_anonymous_args = 0
 1719 0000 08B5     		push	{r3, lr}
 1720 0002 8368     		ldr	r3, [r0, #8]
 1721 0004 0133     		adds	r3, r3, #1
 1722 0006 8360     		str	r3, [r0, #8]
 1723 0008 4068     		ldr	r0, [r0, #4]
 1724 000a FFF7FEFF 		bl	_ZN6uavcan5INode13getDispatcherEv
 1725 000e BDE80840 		pop	{r3, lr}
 1726 0012 C030     		adds	r0, r0, #192
 1727 0014 FFF7FEBF 		b	_ZN6uavcan19TransferPerfCounter8addErrorEv.isra.6
 1728              		.size	_ZN6uavcan17GenericSubscriberINS_8protocol5param7GetSet_ENS3_8Request_ILi0EEENS_16TransferLi
 1729              		.section	.text._ZN6uavcan13ServiceServerINS_8protocol18GetTransportStats_ENS_12MethodBinderIPKNS_2
 1730              		.align	1
 1731              		.thumb
 1732              		.thumb_func
 1733              		.type	_ZN6uavcan13ServiceServerINS_8protocol18GetTransportStats_ENS_12MethodBinderIPKNS_22Transpor
 1734              	_ZN6uavcan13ServiceServerINS_8protocol18GetTransportStats_ENS_12MethodBinderIPKNS_22TransportStatsP
 1735              		@ args = 0, pretend = 0, frame = 0
 1736              		@ frame_needed = 0, uses_anonymous_args = 0
 1737 0000 10B5     		push	{r4, lr}
 1738 0002 0446     		mov	r4, r0
 1739 0004 006E     		ldr	r0, [r0, #96]
 1740 0006 FFF7FEFF 		bl	_ZN6uavcan5INode13getDispatcherEv
 1741 000a C030     		adds	r0, r0, #192
 1742 000c FFF7FEFF 		bl	_ZN6uavcan19TransferPerfCounter8addErrorEv.isra.6
 1743 0010 636F     		ldr	r3, [r4, #116]
 1744 0012 0133     		adds	r3, r3, #1
 1745 0014 6367     		str	r3, [r4, #116]
 1746 0016 10BD     		pop	{r4, pc}
 1747              		.size	_ZN6uavcan13ServiceServerINS_8protocol18GetTransportStats_ENS_12MethodBinderIPKNS_22Transpor
 1748              		.section	.text._ZN6uavcan13ServiceServerINS_8protocol12GetNodeInfo_ENS_12MethodBinderIPNS_18NodeSt
 1749              		.align	1
 1750              		.thumb
 1751              		.thumb_func
 1752              		.type	_ZN6uavcan13ServiceServerINS_8protocol12GetNodeInfo_ENS_12MethodBinderIPNS_18NodeStatusProvi
 1753              	_ZN6uavcan13ServiceServerINS_8protocol12GetNodeInfo_ENS_12MethodBinderIPNS_18NodeStatusProviderEMS4
 1754              		@ args = 0, pretend = 0, frame = 0
 1755              		@ frame_needed = 0, uses_anonymous_args = 0
 1756 0000 10B5     		push	{r4, lr}
 1757 0002 0446     		mov	r4, r0
 1758 0004 006E     		ldr	r0, [r0, #96]
 1759 0006 FFF7FEFF 		bl	_ZN6uavcan5INode13getDispatcherEv
 1760 000a C030     		adds	r0, r0, #192
 1761 000c FFF7FEFF 		bl	_ZN6uavcan19TransferPerfCounter8addErrorEv.isra.6
 1762 0010 636F     		ldr	r3, [r4, #116]
 1763 0012 0133     		adds	r3, r3, #1
 1764 0014 6367     		str	r3, [r4, #116]
 1765 0016 10BD     		pop	{r4, pc}
 1766              		.size	_ZN6uavcan13ServiceServerINS_8protocol12GetNodeInfo_ENS_12MethodBinderIPNS_18NodeStatusProvi
ARM GAS  /tmp/ccFEREDd.s 			page 32


 1767              		.section	.text._ZN6uavcan5INode14getSystemClockEv,"axG",%progbits,_ZN6uavcan5INode14getSystemClock
 1768              		.align	1
 1769              		.weak	_ZN6uavcan5INode14getSystemClockEv
 1770              		.thumb
 1771              		.thumb_func
 1772              		.type	_ZN6uavcan5INode14getSystemClockEv, %function
 1773              	_ZN6uavcan5INode14getSystemClockEv:
 1774              		@ args = 0, pretend = 0, frame = 0
 1775              		@ frame_needed = 0, uses_anonymous_args = 0
 1776 0000 08B5     		push	{r3, lr}
 1777 0002 0368     		ldr	r3, [r0]
 1778 0004 DB68     		ldr	r3, [r3, #12]
 1779 0006 9847     		blx	r3
 1780 0008 D0F8A800 		ldr	r0, [r0, #168]
 1781 000c 08BD     		pop	{r3, pc}
 1782              		.size	_ZN6uavcan5INode14getSystemClockEv, .-_ZN6uavcan5INode14getSystemClockEv
 1783              		.section	.text._ZNK6uavcan5INode16getMonotonicTimeEv,"axG",%progbits,_ZNK6uavcan5INode16getMonoton
 1784              		.align	1
 1785              		.weak	_ZNK6uavcan5INode16getMonotonicTimeEv
 1786              		.thumb
 1787              		.thumb_func
 1788              		.type	_ZNK6uavcan5INode16getMonotonicTimeEv, %function
 1789              	_ZNK6uavcan5INode16getMonotonicTimeEv:
 1790              		@ args = 0, pretend = 0, frame = 0
 1791              		@ frame_needed = 0, uses_anonymous_args = 0
 1792 0000 0B68     		ldr	r3, [r1]
 1793 0002 10B5     		push	{r4, lr}
 1794 0004 1B69     		ldr	r3, [r3, #16]
 1795 0006 0446     		mov	r4, r0
 1796 0008 0846     		mov	r0, r1
 1797 000a 9847     		blx	r3
 1798 000c D0F8A810 		ldr	r1, [r0, #168]
 1799 0010 2046     		mov	r0, r4
 1800 0012 0B68     		ldr	r3, [r1]
 1801 0014 9B68     		ldr	r3, [r3, #8]
 1802 0016 9847     		blx	r3
 1803 0018 2046     		mov	r0, r4
 1804 001a 10BD     		pop	{r4, pc}
 1805              		.size	_ZNK6uavcan5INode16getMonotonicTimeEv, .-_ZNK6uavcan5INode16getMonotonicTimeEv
 1806              		.section	.text._ZNK6uavcan5INode9getNodeIDEv,"axG",%progbits,_ZNK6uavcan5INode9getNodeIDEv,comdat
 1807              		.align	1
 1808              		.weak	_ZNK6uavcan5INode9getNodeIDEv
 1809              		.thumb
 1810              		.thumb_func
 1811              		.type	_ZNK6uavcan5INode9getNodeIDEv, %function
 1812              	_ZNK6uavcan5INode9getNodeIDEv:
 1813              		@ args = 0, pretend = 0, frame = 0
 1814              		@ frame_needed = 0, uses_anonymous_args = 0
 1815 0000 08B5     		push	{r3, lr}
 1816 0002 0368     		ldr	r3, [r0]
 1817 0004 1B69     		ldr	r3, [r3, #16]
 1818 0006 9847     		blx	r3
 1819 0008 90F8E400 		ldrb	r0, [r0, #228]	@ zero_extendqisi2
 1820 000c 08BD     		pop	{r3, pc}
 1821              		.size	_ZNK6uavcan5INode9getNodeIDEv, .-_ZNK6uavcan5INode9getNodeIDEv
 1822              		.section	.text._ZN6uavcan20GlobalTimeSyncMaster19handleLoopbackFrameERKNS_7RxFrameE,"axG",%progbit
 1823              		.align	1
ARM GAS  /tmp/ccFEREDd.s 			page 33


 1824              		.weak	_ZN6uavcan20GlobalTimeSyncMaster19handleLoopbackFrameERKNS_7RxFrameE
 1825              		.thumb
 1826              		.thumb_func
 1827              		.type	_ZN6uavcan20GlobalTimeSyncMaster19handleLoopbackFrameERKNS_7RxFrameE, %function
 1828              	_ZN6uavcan20GlobalTimeSyncMaster19handleLoopbackFrameERKNS_7RxFrameE:
 1829              		@ args = 0, pretend = 0, frame = 0
 1830              		@ frame_needed = 0, uses_anonymous_args = 0
 1831 0000 2DE9F041 		push	{r4, r5, r6, r7, r8, lr}
 1832 0004 90F8F430 		ldrb	r3, [r0, #244]	@ zero_extendqisi2
 1833 0008 0646     		mov	r6, r0
 1834 000a 0C46     		mov	r4, r1
 1835 000c 91F83050 		ldrb	r5, [r1, #48]	@ zero_extendqisi2
 1836 0010 002B     		cmp	r3, #0
 1837 0012 3CD0     		beq	.L217
 1838 0014 022D     		cmp	r5, #2
 1839 0016 3AD8     		bhi	.L217
 1840 0018 CA68     		ldr	r2, [r1, #12]
 1841 001a D0F8F030 		ldr	r3, [r0, #240]
 1842 001e 9A42     		cmp	r2, r3
 1843 0020 35D1     		bne	.L217
 1844 0022 0B7A     		ldrb	r3, [r1, #8]	@ zero_extendqisi2
 1845 0024 022B     		cmp	r3, #2
 1846 0026 32D1     		bne	.L217
 1847 0028 CB7D     		ldrb	r3, [r1, #23]	@ zero_extendqisi2
 1848 002a 002B     		cmp	r3, #0
 1849 002c 2FD0     		beq	.L217
 1850 002e 0B7E     		ldrb	r3, [r1, #24]	@ zero_extendqisi2
 1851 0030 002B     		cmp	r3, #0
 1852 0032 2CD0     		beq	.L217
 1853 0034 C068     		ldr	r0, [r0, #12]
 1854 0036 0F7D     		ldrb	r7, [r1, #20]	@ zero_extendqisi2
 1855 0038 FFF7FEFF 		bl	_ZNK6uavcan5INode9getNodeIDEv
 1856 003c C0B2     		uxtb	r0, r0
 1857 003e B842     		cmp	r0, r7
 1858 0040 25D1     		bne	.L217
 1859 0042 4823     		movs	r3, #72
 1860 0044 03FB0565 		mla	r5, r3, r5, r6
 1861 0048 2B6D     		ldr	r3, [r5, #80]
 1862 004a 13B9     		cbnz	r3, .L235
 1863 004c 1148     		ldr	r0, .L237
 1864 004e FFF7FEFF 		bl	_ZN6uavcan16handleFatalErrorEPKc
 1865              	.L235:
 1866 0052 D4E90A01 		ldrd	r0, [r4, #40]
 1867 0056 50EA0102 		orrs	r2, r0, r1
 1868 005a 04D1     		bne	.L221
 1869 005c 186A     		ldr	r0, [r3, #32]
 1870 005e 0E49     		ldr	r1, .L237+4
 1871 0060 0368     		ldr	r3, [r0]
 1872 0062 5B69     		ldr	r3, [r3, #20]
 1873 0064 0CE0     		b	.L236
 1874              	.L221:
 1875 0066 D3E90C45 		ldrd	r4, [r3, #48]
 1876 006a 54EA0502 		orrs	r2, r4, r5
 1877 006e 0AD0     		beq	.L222
 1878 0070 0020     		movs	r0, #0
 1879 0072 0021     		movs	r1, #0
 1880 0074 C3E90C01 		strd	r0, [r3, #48]
ARM GAS  /tmp/ccFEREDd.s 			page 34


 1881 0078 186A     		ldr	r0, [r3, #32]
 1882 007a 0849     		ldr	r1, .L237+8
 1883 007c 0368     		ldr	r3, [r0]
 1884 007e 5B69     		ldr	r3, [r3, #20]
 1885              	.L236:
 1886 0080 BDE8F041 		pop	{r4, r5, r6, r7, r8, lr}
 1887 0084 1847     		bx	r3	@ indirect register sibling call
 1888              	.L222:
 1889 0086 C3E90C01 		strd	r0, [r3, #48]
 1890 008a BDE8F081 		pop	{r4, r5, r6, r7, r8, pc}
 1891              	.L217:
 1892 008e BDE8F081 		pop	{r4, r5, r6, r7, r8, pc}
 1893              	.L238:
 1894 0092 00BF     		.align	2
 1895              	.L237:
 1896 0094 1A000000 		.word	.LC2
 1897 0098 2D000000 		.word	.LC3
 1898 009c 4D000000 		.word	.LC4
 1899              		.size	_ZN6uavcan20GlobalTimeSyncMaster19handleLoopbackFrameERKNS_7RxFrameE, .-_ZN6uavcan20GlobalTi
 1900              		.section	.text._ZN6uavcan5INode9setNodeIDENS_6NodeIDE,"axG",%progbits,_ZN6uavcan5INode9setNodeIDEN
 1901              		.align	1
 1902              		.weak	_ZN6uavcan5INode9setNodeIDENS_6NodeIDE
 1903              		.thumb
 1904              		.thumb_func
 1905              		.type	_ZN6uavcan5INode9setNodeIDENS_6NodeIDE, %function
 1906              	_ZN6uavcan5INode9setNodeIDENS_6NodeIDE:
 1907              		@ args = 0, pretend = 0, frame = 0
 1908              		@ frame_needed = 0, uses_anonymous_args = 0
 1909 0000 0368     		ldr	r3, [r0]
 1910 0002 10B5     		push	{r4, lr}
 1911 0004 DB68     		ldr	r3, [r3, #12]
 1912 0006 0C46     		mov	r4, r1
 1913 0008 9847     		blx	r3
 1914 000a 2146     		mov	r1, r4
 1915 000c BDE81040 		pop	{r4, lr}
 1916 0010 0830     		adds	r0, r0, #8
 1917 0012 FFF7FEBF 		b	_ZN6uavcan10Dispatcher9setNodeIDENS_6NodeIDE
 1918              		.size	_ZN6uavcan5INode9setNodeIDENS_6NodeIDE, .-_ZN6uavcan5INode9setNodeIDENS_6NodeIDE
 1919              		.section	.text._ZN6uavcan20GenericPublisherBaseC2ERNS_5INodeENS_17MonotonicDurationES3_,"axG",%pro
 1920              		.align	1
 1921              		.weak	_ZN6uavcan20GenericPublisherBaseC2ERNS_5INodeENS_17MonotonicDurationES3_
 1922              		.thumb
 1923              		.thumb_func
 1924              		.type	_ZN6uavcan20GenericPublisherBaseC2ERNS_5INodeENS_17MonotonicDurationES3_, %function
 1925              	_ZN6uavcan20GenericPublisherBaseC2ERNS_5INodeENS_17MonotonicDurationES3_:
 1926              		@ args = 0, pretend = 0, frame = 8
 1927              		@ frame_needed = 0, uses_anonymous_args = 0
 1928 0000 F7B5     		push	{r0, r1, r2, r4, r5, r6, r7, lr}
 1929 0002 0446     		mov	r4, r0
 1930 0004 1F46     		mov	r7, r3
 1931 0006 0846     		mov	r0, r1
 1932 0008 1546     		mov	r5, r2
 1933 000a 0E46     		mov	r6, r1
 1934 000c FFF7FEFF 		bl	_ZN6uavcan5INode13getDispatcherEv
 1935 0010 D7E90023 		ldrd	r2, [r7]
 1936 0014 C4E90023 		strd	r2, [r4]
 1937 0018 4FF6FF72 		movw	r2, #65535
ARM GAS  /tmp/ccFEREDd.s 			page 35


 1938 001c 0F4B     		ldr	r3, .L241
 1939 001e A275     		strb	r2, [r4, #22]
 1940 0020 1B78     		ldrb	r3, [r3]	@ zero_extendqisi2
 1941 0022 4FF0FF31 		mov	r1, #-1
 1942 0026 2373     		strb	r3, [r4, #12]
 1943 0028 0023     		movs	r3, #0
 1944 002a 6373     		strb	r3, [r4, #13]
 1945 002c A382     		strh	r3, [r4, #20]	@ movhi
 1946 002e E375     		strb	r3, [r4, #23]
 1947 0030 04F11803 		add	r3, r4, #24
 1948 0034 A060     		str	r0, [r4, #8]
 1949 0036 2161     		str	r1, [r4, #16]
 1950 0038 E281     		strh	r2, [r4, #14]	@ movhi
 1951 003a 95E80300 		ldmia	r5, {r0, r1}
 1952 003e 83E80300 		stmia	r3, {r0, r1}
 1953 0042 2662     		str	r6, [r4, #32]
 1954 0044 95E80300 		ldmia	r5, {r0, r1}
 1955 0048 8DE80300 		stmia	sp, {r0, r1}
 1956 004c 2046     		mov	r0, r4
 1957 004e 6946     		mov	r1, sp
 1958 0050 FFF7FEFF 		bl	_ZN6uavcan20GenericPublisherBase12setTxTimeoutENS_17MonotonicDurationE
 1959 0054 2046     		mov	r0, r4
 1960 0056 03B0     		add	sp, sp, #12
 1961              		@ sp needed
 1962 0058 F0BD     		pop	{r4, r5, r6, r7, pc}
 1963              	.L242:
 1964 005a 00BF     		.align	2
 1965              	.L241:
 1966 005c 00000000 		.word	_ZN6uavcan16TransferPriority7DefaultE
 1967              		.size	_ZN6uavcan20GenericPublisherBaseC2ERNS_5INodeENS_17MonotonicDurationES3_, .-_ZN6uavcan20Gene
 1968              		.weak	_ZN6uavcan20GenericPublisherBaseC1ERNS_5INodeENS_17MonotonicDurationES3_
 1969              		.thumb_set _ZN6uavcan20GenericPublisherBaseC1ERNS_5INodeENS_17MonotonicDurationES3_,_ZN6uavcan20Ge
 1970              		.section	.text._ZNSt14_Function_baseD2Ev,"axG",%progbits,_ZNSt14_Function_baseD5Ev,comdat
 1971              		.align	1
 1972              		.weak	_ZNSt14_Function_baseD2Ev
 1973              		.thumb
 1974              		.thumb_func
 1975              		.type	_ZNSt14_Function_baseD2Ev, %function
 1976              	_ZNSt14_Function_baseD2Ev:
 1977              		@ args = 0, pretend = 0, frame = 0
 1978              		@ frame_needed = 0, uses_anonymous_args = 0
 1979 0000 8368     		ldr	r3, [r0, #8]
 1980 0002 10B5     		push	{r4, lr}
 1981 0004 0446     		mov	r4, r0
 1982 0006 13B1     		cbz	r3, .L244
 1983 0008 0146     		mov	r1, r0
 1984 000a 0322     		movs	r2, #3
 1985 000c 9847     		blx	r3
 1986              	.L244:
 1987 000e 2046     		mov	r0, r4
 1988 0010 10BD     		pop	{r4, pc}
 1989              		.size	_ZNSt14_Function_baseD2Ev, .-_ZNSt14_Function_baseD2Ev
 1990              		.weak	_ZNSt14_Function_baseD1Ev
 1991              		.thumb_set _ZNSt14_Function_baseD1Ev,_ZNSt14_Function_baseD2Ev
 1992              		.section	.text._ZN6uavcan19TimerEventForwarderISt8functionIFvRKNS_10TimerEventEEEED2Ev,"axG",%prog
 1993              		.align	1
 1994              		.weak	_ZN6uavcan19TimerEventForwarderISt8functionIFvRKNS_10TimerEventEEEED2Ev
ARM GAS  /tmp/ccFEREDd.s 			page 36


 1995              		.thumb
 1996              		.thumb_func
 1997              		.type	_ZN6uavcan19TimerEventForwarderISt8functionIFvRKNS_10TimerEventEEEED2Ev, %function
 1998              	_ZN6uavcan19TimerEventForwarderISt8functionIFvRKNS_10TimerEventEEEED2Ev:
 1999              		@ args = 0, pretend = 0, frame = 0
 2000              		@ frame_needed = 0, uses_anonymous_args = 0
 2001 0000 10B5     		push	{r4, lr}
 2002 0002 0446     		mov	r4, r0
 2003 0004 054B     		ldr	r3, .L249
 2004 0006 40F8203B 		str	r3, [r0], #32
 2005 000a FFF7FEFF 		bl	_ZNSt14_Function_baseD2Ev
 2006 000e 044B     		ldr	r3, .L249+4
 2007 0010 2046     		mov	r0, r4
 2008 0012 2360     		str	r3, [r4]
 2009 0014 FFF7FEFF 		bl	_ZN6uavcan15DeadlineHandler4stopEv
 2010 0018 2046     		mov	r0, r4
 2011 001a 10BD     		pop	{r4, pc}
 2012              	.L250:
 2013              		.align	2
 2014              	.L249:
 2015 001c 08000000 		.word	_ZTVN6uavcan19TimerEventForwarderISt8functionIFvRKNS_10TimerEventEEEEE+8
 2016 0020 08000000 		.word	_ZTVN6uavcan15DeadlineHandlerE+8
 2017              		.size	_ZN6uavcan19TimerEventForwarderISt8functionIFvRKNS_10TimerEventEEEED2Ev, .-_ZN6uavcan19Timer
 2018              		.weak	_ZN6uavcan19TimerEventForwarderISt8functionIFvRKNS_10TimerEventEEEED1Ev
 2019              		.thumb_set _ZN6uavcan19TimerEventForwarderISt8functionIFvRKNS_10TimerEventEEEED1Ev,_ZN6uavcan19Tim
 2020              		.section	.text._ZN6uavcan19TimerEventForwarderISt8functionIFvRKNS_10TimerEventEEEED0Ev,"axG",%prog
 2021              		.align	1
 2022              		.weak	_ZN6uavcan19TimerEventForwarderISt8functionIFvRKNS_10TimerEventEEEED0Ev
 2023              		.thumb
 2024              		.thumb_func
 2025              		.type	_ZN6uavcan19TimerEventForwarderISt8functionIFvRKNS_10TimerEventEEEED0Ev, %function
 2026              	_ZN6uavcan19TimerEventForwarderISt8functionIFvRKNS_10TimerEventEEEED0Ev:
 2027              		@ args = 0, pretend = 0, frame = 0
 2028              		@ frame_needed = 0, uses_anonymous_args = 0
 2029 0000 10B5     		push	{r4, lr}
 2030 0002 0446     		mov	r4, r0
 2031 0004 FFF7FEFF 		bl	_ZN6uavcan19TimerEventForwarderISt8functionIFvRKNS_10TimerEventEEEED1Ev
 2032 0008 2046     		mov	r0, r4
 2033 000a FFF7FEFF 		bl	_ZdlPv
 2034 000e 2046     		mov	r0, r4
 2035 0010 10BD     		pop	{r4, pc}
 2036              		.size	_ZN6uavcan19TimerEventForwarderISt8functionIFvRKNS_10TimerEventEEEED0Ev, .-_ZN6uavcan19Timer
 2037              		.section	.text._ZN6uavcan9TimerBaseC2ERNS_5INodeE,"axG",%progbits,_ZN6uavcan9TimerBaseC5ERNS_5INod
 2038              		.align	1
 2039              		.weak	_ZN6uavcan9TimerBaseC2ERNS_5INodeE
 2040              		.thumb
 2041              		.thumb_func
 2042              		.type	_ZN6uavcan9TimerBaseC2ERNS_5INodeE, %function
 2043              	_ZN6uavcan9TimerBaseC2ERNS_5INodeE:
 2044              		@ args = 0, pretend = 0, frame = 0
 2045              		@ frame_needed = 0, uses_anonymous_args = 0
 2046 0000 10B5     		push	{r4, lr}
 2047 0002 0446     		mov	r4, r0
 2048 0004 0B68     		ldr	r3, [r1]
 2049 0006 0846     		mov	r0, r1
 2050 0008 DB68     		ldr	r3, [r3, #12]
 2051 000a 9847     		blx	r3
ARM GAS  /tmp/ccFEREDd.s 			page 37


 2052 000c 0023     		movs	r3, #0
 2053 000e 6360     		str	r3, [r4, #4]
 2054 0010 0022     		movs	r2, #0
 2055 0012 0023     		movs	r3, #0
 2056 0014 C4E90223 		strd	r2, [r4, #8]
 2057 0018 054B     		ldr	r3, .L253
 2058 001a 4FF0FF32 		mov	r2, #-1
 2059 001e 2360     		str	r3, [r4]
 2060 0020 6FF00043 		mvn	r3, #-2147483648
 2061 0024 2061     		str	r0, [r4, #16]
 2062 0026 C4E90623 		strd	r2, [r4, #24]
 2063 002a 2046     		mov	r0, r4
 2064 002c 10BD     		pop	{r4, pc}
 2065              	.L254:
 2066 002e 00BF     		.align	2
 2067              	.L253:
 2068 0030 08000000 		.word	_ZTVN6uavcan9TimerBaseE+8
 2069              		.size	_ZN6uavcan9TimerBaseC2ERNS_5INodeE, .-_ZN6uavcan9TimerBaseC2ERNS_5INodeE
 2070              		.weak	_ZN6uavcan9TimerBaseC1ERNS_5INodeE
 2071              		.thumb_set _ZN6uavcan9TimerBaseC1ERNS_5INodeE,_ZN6uavcan9TimerBaseC2ERNS_5INodeE
 2072              		.section	.text._ZN6uavcan6LoggerC2ERNS_5INodeE,"axG",%progbits,_ZN6uavcan6LoggerC5ERNS_5INodeE,com
 2073              		.align	1
 2074              		.weak	_ZN6uavcan6LoggerC2ERNS_5INodeE
 2075              		.thumb
 2076              		.thumb_func
 2077              		.type	_ZN6uavcan6LoggerC2ERNS_5INodeE, %function
 2078              	_ZN6uavcan6LoggerC2ERNS_5INodeE:
 2079              		@ args = 0, pretend = 0, frame = 16
 2080              		@ frame_needed = 0, uses_anonymous_args = 0
 2081 0000 1FB5     		push	{r0, r1, r2, r3, r4, lr}
 2082 0002 0446     		mov	r4, r0
 2083 0004 114A     		ldr	r2, .L256
 2084 0006 0023     		movs	r3, #0
 2085 0008 CDE90223 		strd	r2, [sp, #8]
 2086 000c 104A     		ldr	r2, .L256+4
 2087 000e 0023     		movs	r3, #0
 2088 0010 CDE90023 		strd	r2, [sp]
 2089 0014 02AA     		add	r2, sp, #8
 2090 0016 6B46     		mov	r3, sp
 2091 0018 FFF7FEFF 		bl	_ZN6uavcan20GenericPublisherBaseC2ERNS_5INodeENS_17MonotonicDurationES3_
 2092 001c 0023     		movs	r3, #0
 2093 001e 84F82830 		strb	r3, [r4, #40]
 2094 0022 84F82930 		strb	r3, [r4, #41]
 2095 0026 84F84A30 		strb	r3, [r4, #74]
 2096 002a C4F8A830 		str	r3, [r4, #168]
 2097 002e 094A     		ldr	r2, .L256+8
 2098 0030 0323     		movs	r3, #3
 2099 0032 84F8A630 		strb	r3, [r4, #166]
 2100 0036 2046     		mov	r0, r4
 2101 0038 0023     		movs	r3, #0
 2102 003a 02A9     		add	r1, sp, #8
 2103 003c CDE90223 		strd	r2, [sp, #8]
 2104 0040 FFF7FEFF 		bl	_ZN6uavcan20GenericPublisherBase12setTxTimeoutENS_17MonotonicDurationE
 2105 0044 2046     		mov	r0, r4
 2106 0046 04B0     		add	sp, sp, #16
 2107              		@ sp needed
 2108 0048 10BD     		pop	{r4, pc}
ARM GAS  /tmp/ccFEREDd.s 			page 38


 2109              	.L257:
 2110 004a 00BF     		.align	2
 2111              	.L256:
 2112 004c A0860100 		.word	100000
 2113 0050 00879303 		.word	60000000
 2114 0054 80841E00 		.word	2000000
 2115              		.size	_ZN6uavcan6LoggerC2ERNS_5INodeE, .-_ZN6uavcan6LoggerC2ERNS_5INodeE
 2116              		.weak	_ZN6uavcan6LoggerC1ERNS_5INodeE
 2117              		.thumb_set _ZN6uavcan6LoggerC1ERNS_5INodeE,_ZN6uavcan6LoggerC2ERNS_5INodeE
 2118              		.section	.text._ZN12uavcan_stm3211MutexLockerD2Ev,"axG",%progbits,_ZN12uavcan_stm3211MutexLockerD5
 2119              		.align	1
 2120              		.weak	_ZN12uavcan_stm3211MutexLockerD2Ev
 2121              		.thumb
 2122              		.thumb_func
 2123              		.type	_ZN12uavcan_stm3211MutexLockerD2Ev, %function
 2124              	_ZN12uavcan_stm3211MutexLockerD2Ev:
 2125              		@ args = 0, pretend = 0, frame = 0
 2126              		@ frame_needed = 0, uses_anonymous_args = 0
 2127 0000 10B5     		push	{r4, lr}
 2128 0002 0446     		mov	r4, r0
 2129 0004 0068     		ldr	r0, [r0]
 2130 0006 FFF7FEFF 		bl	_ZN12uavcan_stm325Mutex6unlockEv
 2131 000a 2046     		mov	r0, r4
 2132 000c 10BD     		pop	{r4, pc}
 2133              		.size	_ZN12uavcan_stm3211MutexLockerD2Ev, .-_ZN12uavcan_stm3211MutexLockerD2Ev
 2134              		.weak	_ZN12uavcan_stm3211MutexLockerD1Ev
 2135              		.thumb_set _ZN12uavcan_stm3211MutexLockerD1Ev,_ZN12uavcan_stm3211MutexLockerD2Ev
 2136              		.section	.text._ZN6uavcan19GlobalTimeSyncSlave13adjustFromMsgERKNS_21ReceivedDataStructureINS_8pro
 2137              		.align	1
 2138              		.weak	_ZN6uavcan19GlobalTimeSyncSlave13adjustFromMsgERKNS_21ReceivedDataStructureINS_8protocol15Gl
 2139              		.thumb
 2140              		.thumb_func
 2141              		.type	_ZN6uavcan19GlobalTimeSyncSlave13adjustFromMsgERKNS_21ReceivedDataStructureINS_8protocol15Gl
 2142              	_ZN6uavcan19GlobalTimeSyncSlave13adjustFromMsgERKNS_21ReceivedDataStructureINS_8protocol15GlobalTim
 2143              		@ args = 0, pretend = 0, frame = 8
 2144              		@ frame_needed = 0, uses_anonymous_args = 0
 2145 0000 F7B5     		push	{r0, r1, r2, r4, r5, r6, r7, lr}
 2146 0002 0446     		mov	r4, r0
 2147 0004 0D46     		mov	r5, r1
 2148 0006 D4E91223 		ldrd	r2, [r4, #72]
 2149 000a D1E90001 		ldrd	r0, [r1]
 2150 000e 801A     		subs	r0, r0, r2
 2151 0010 61EB0301 		sbc	r1, r1, r3
 2152 0014 94F86430 		ldrb	r3, [r4, #100]	@ zero_extendqisi2
 2153 0018 0646     		mov	r6, r0
 2154 001a 0F46     		mov	r7, r1
 2155 001c 43B9     		cbnz	r3, .L262
 2156 001e 6068     		ldr	r0, [r4, #4]
 2157 0020 FFF7FEFF 		bl	_ZN6uavcan5INode14getSystemClockEv
 2158 0024 0368     		ldr	r3, [r0]
 2159 0026 02A9     		add	r1, sp, #8
 2160 0028 1B69     		ldr	r3, [r3, #16]
 2161 002a 61E90267 		strd	r6, [r1, #-8]!
 2162 002e 9847     		blx	r3
 2163              	.L262:
 2164 0030 AB68     		ldr	r3, [r5, #8]
 2165 0032 13B1     		cbz	r3, .L264
ARM GAS  /tmp/ccFEREDd.s 			page 39


 2166 0034 D3E90223 		ldrd	r2, [r3, #8]
 2167 0038 01E0     		b	.L263
 2168              	.L264:
 2169 003a 0022     		movs	r2, #0
 2170 003c 0023     		movs	r3, #0
 2171              	.L263:
 2172 003e C4E91623 		strd	r2, [r4, #88]
 2173 0042 0023     		movs	r3, #0
 2174 0044 84F86030 		strb	r3, [r4, #96]
 2175 0048 03B0     		add	sp, sp, #12
 2176              		@ sp needed
 2177 004a F0BD     		pop	{r4, r5, r6, r7, pc}
 2178              		.size	_ZN6uavcan19GlobalTimeSyncSlave13adjustFromMsgERKNS_21ReceivedDataStructureINS_8protocol15Gl
 2179              		.section	.text._ZN6uavcan19GlobalTimeSyncSlave13updateFromMsgERKNS_21ReceivedDataStructureINS_8pro
 2180              		.align	1
 2181              		.weak	_ZN6uavcan19GlobalTimeSyncSlave13updateFromMsgERKNS_21ReceivedDataStructureINS_8protocol15Gl
 2182              		.thumb
 2183              		.thumb_func
 2184              		.type	_ZN6uavcan19GlobalTimeSyncSlave13updateFromMsgERKNS_21ReceivedDataStructureINS_8protocol15Gl
 2185              	_ZN6uavcan19GlobalTimeSyncSlave13updateFromMsgERKNS_21ReceivedDataStructureINS_8protocol15GlobalTim
 2186              		@ args = 0, pretend = 0, frame = 0
 2187              		@ frame_needed = 0, uses_anonymous_args = 0
 2188 0000 8B68     		ldr	r3, [r1, #8]
 2189 0002 30B5     		push	{r4, r5, lr}
 2190 0004 13B1     		cbz	r3, .L271
 2191 0006 D3E90445 		ldrd	r4, [r3, #16]
 2192 000a 01E0     		b	.L266
 2193              	.L271:
 2194 000c 0024     		movs	r4, #0
 2195 000e 0025     		movs	r5, #0
 2196              	.L266:
 2197 0010 C0E91245 		strd	r4, [r0, #72]
 2198 0014 13B1     		cbz	r3, .L272
 2199 0016 D3E90245 		ldrd	r4, [r3, #8]
 2200 001a 01E0     		b	.L267
 2201              	.L272:
 2202 001c 0024     		movs	r4, #0
 2203 001e 0025     		movs	r5, #0
 2204              	.L267:
 2205 0020 C0E91445 		strd	r4, [r0, #80]
 2206 0024 0BB1     		cbz	r3, .L273
 2207 0026 DB7E     		ldrb	r3, [r3, #27]	@ zero_extendqisi2
 2208 0028 00E0     		b	.L268
 2209              	.L273:
 2210 002a FF23     		movs	r3, #255
 2211              	.L268:
 2212 002c 80F86130 		strb	r3, [r0, #97]
 2213 0030 8B68     		ldr	r3, [r1, #8]
 2214 0032 03B1     		cbz	r3, .L269
 2215 0034 1B7F     		ldrb	r3, [r3, #28]	@ zero_extendqisi2
 2216              	.L269:
 2217 0036 80F86330 		strb	r3, [r0, #99]
 2218 003a 8B68     		ldr	r3, [r1, #8]
 2219 003c 03B1     		cbz	r3, .L270
 2220 003e 9B7E     		ldrb	r3, [r3, #26]	@ zero_extendqisi2
 2221              	.L270:
 2222 0040 80F86230 		strb	r3, [r0, #98]
ARM GAS  /tmp/ccFEREDd.s 			page 40


 2223 0044 0123     		movs	r3, #1
 2224 0046 80F86030 		strb	r3, [r0, #96]
 2225 004a 30BD     		pop	{r4, r5, pc}
 2226              		.size	_ZN6uavcan19GlobalTimeSyncSlave13updateFromMsgERKNS_21ReceivedDataStructureINS_8protocol15Gl
 2227              		.section	.text._ZN4node4LockC2Ev,"ax",%progbits
 2228              		.align	1
 2229              		.global	_ZN4node4LockC2Ev
 2230              		.thumb
 2231              		.thumb_func
 2232              		.type	_ZN4node4LockC2Ev, %function
 2233              	_ZN4node4LockC2Ev:
 2234              		@ args = 0, pretend = 0, frame = 0
 2235              		@ frame_needed = 0, uses_anonymous_args = 0
 2236 0000 10B5     		push	{r4, lr}
 2237 0002 0446     		mov	r4, r0
 2238 0004 0248     		ldr	r0, .L277
 2239 0006 2060     		str	r0, [r4]
 2240 0008 FFF7FEFF 		bl	_ZN12uavcan_stm325Mutex4lockEv
 2241 000c 2046     		mov	r0, r4
 2242 000e 10BD     		pop	{r4, pc}
 2243              	.L278:
 2244              		.align	2
 2245              	.L277:
 2246 0010 00000000 		.word	.LANCHOR1
 2247              		.size	_ZN4node4LockC2Ev, .-_ZN4node4LockC2Ev
 2248              		.global	_ZN4node4LockC1Ev
 2249              		.thumb_set _ZN4node4LockC1Ev,_ZN4node4LockC2Ev
 2250              		.section	.text._ZN4node9isStartedEv,"ax",%progbits
 2251              		.align	1
 2252              		.global	_ZN4node9isStartedEv
 2253              		.thumb
 2254              		.thumb_func
 2255              		.type	_ZN4node9isStartedEv, %function
 2256              	_ZN4node9isStartedEv:
 2257              		@ args = 0, pretend = 0, frame = 0
 2258              		@ frame_needed = 0, uses_anonymous_args = 0
 2259              		@ link register save eliminated.
 2260 0000 014B     		ldr	r3, .L280
 2261 0002 1878     		ldrb	r0, [r3]	@ zero_extendqisi2
 2262 0004 7047     		bx	lr
 2263              	.L281:
 2264 0006 00BF     		.align	2
 2265              	.L280:
 2266 0008 00000000 		.word	.LANCHOR2
 2267              		.size	_ZN4node9isStartedEv, .-_ZN4node9isStartedEv
 2268              		.section	.text._ZN4node24hasPendingRestartRequestEv,"ax",%progbits
 2269              		.align	1
 2270              		.global	_ZN4node24hasPendingRestartRequestEv
 2271              		.thumb
 2272              		.thumb_func
 2273              		.type	_ZN4node24hasPendingRestartRequestEv, %function
 2274              	_ZN4node24hasPendingRestartRequestEv:
 2275              		@ args = 0, pretend = 0, frame = 0
 2276              		@ frame_needed = 0, uses_anonymous_args = 0
 2277              		@ link register save eliminated.
 2278 0000 014B     		ldr	r3, .L283
 2279 0002 1878     		ldrb	r0, [r3]	@ zero_extendqisi2
ARM GAS  /tmp/ccFEREDd.s 			page 41


 2280 0004 7047     		bx	lr
 2281              	.L284:
 2282 0006 00BF     		.align	2
 2283              	.L283:
 2284 0008 00000000 		.word	.LANCHOR0
 2285              		.size	_ZN4node24hasPendingRestartRequestEv, .-_ZN4node24hasPendingRestartRequestEv
 2286              		.section	.text._ZN4node18setComponentHealthENS_11ComponentIDEh,"ax",%progbits
 2287              		.align	1
 2288              		.global	_ZN4node18setComponentHealthENS_11ComponentIDEh
 2289              		.thumb
 2290              		.thumb_func
 2291              		.type	_ZN4node18setComponentHealthENS_11ComponentIDEh, %function
 2292              	_ZN4node18setComponentHealthENS_11ComponentIDEh:
 2293              		@ args = 0, pretend = 0, frame = 8
 2294              		@ frame_needed = 0, uses_anonymous_args = 0
 2295 0000 37B5     		push	{r0, r1, r2, r4, r5, lr}
 2296 0002 0446     		mov	r4, r0
 2297 0004 0D46     		mov	r5, r1
 2298 0006 01A8     		add	r0, sp, #4
 2299 0008 FFF7FEFF 		bl	_ZN4node4LockC2Ev
 2300 000c 034B     		ldr	r3, .L286
 2301 000e 01A8     		add	r0, sp, #4
 2302 0010 1C44     		add	r4, r4, r3
 2303 0012 E570     		strb	r5, [r4, #3]
 2304 0014 FFF7FEFF 		bl	_ZN12uavcan_stm3211MutexLockerD2Ev
 2305 0018 03B0     		add	sp, sp, #12
 2306              		@ sp needed
 2307 001a 30BD     		pop	{r4, r5, pc}
 2308              	.L287:
 2309              		.align	2
 2310              	.L286:
 2311 001c 00000000 		.word	.LANCHOR3
 2312              		.size	_ZN4node18setComponentHealthENS_11ComponentIDEh, .-_ZN4node18setComponentHealthENS_11Compone
 2313              		.section	.text._ZN4node24markComponentInitializedENS_11ComponentIDE,"ax",%progbits
 2314              		.align	1
 2315              		.global	_ZN4node24markComponentInitializedENS_11ComponentIDE
 2316              		.thumb
 2317              		.thumb_func
 2318              		.type	_ZN4node24markComponentInitializedENS_11ComponentIDE, %function
 2319              	_ZN4node24markComponentInitializedENS_11ComponentIDE:
 2320              		@ args = 0, pretend = 0, frame = 8
 2321              		@ frame_needed = 0, uses_anonymous_args = 0
 2322 0000 13B5     		push	{r0, r1, r4, lr}
 2323 0002 0446     		mov	r4, r0
 2324 0004 01A8     		add	r0, sp, #4
 2325 0006 FFF7FEFF 		bl	_ZN4node4LockC2Ev
 2326 000a 044B     		ldr	r3, .L289
 2327 000c 0122     		movs	r2, #1
 2328 000e 01A8     		add	r0, sp, #4
 2329 0010 1A55     		strb	r2, [r3, r4]
 2330 0012 FFF7FEFF 		bl	_ZN12uavcan_stm3211MutexLockerD2Ev
 2331 0016 02B0     		add	sp, sp, #8
 2332              		@ sp needed
 2333 0018 10BD     		pop	{r4, pc}
 2334              	.L290:
 2335 001a 00BF     		.align	2
 2336              	.L289:
ARM GAS  /tmp/ccFEREDd.s 			page 42


 2337 001c 00000000 		.word	.LANCHOR3
 2338              		.size	_ZN4node24markComponentInitializedENS_11ComponentIDE, .-_ZN4node24markComponentInitializedEN
 2339              		.section	.text._ZN4node4initEv,"ax",%progbits
 2340              		.align	1
 2341              		.global	_ZN4node4initEv
 2342              		.thumb
 2343              		.thumb_func
 2344              		.type	_ZN4node4initEv, %function
 2345              	_ZN4node4initEv:
 2346              		@ args = 0, pretend = 0, frame = 8
 2347              		@ frame_needed = 0, uses_anonymous_args = 0
 2348 0000 07B5     		push	{r0, r1, r2, lr}
 2349 0002 0449     		ldr	r1, .L292
 2350 0004 6846     		mov	r0, sp
 2351 0006 0C22     		movs	r2, #12
 2352 0008 FFF7FEFF 		bl	_ZN10chibios_rt16BaseStaticThreadILi3000EE5startEm
 2353 000c 03B0     		add	sp, sp, #12
 2354              		@ sp needed
 2355 000e 5DF804FB 		ldr	pc, [sp], #4
 2356              	.L293:
 2357 0012 00BF     		.align	2
 2358              	.L292:
 2359 0014 00000000 		.word	.LANCHOR4
 2360              		.size	_ZN4node4initEv, .-_ZN4node4initEv
 2361              		.section	.text._ZN6uavcan4fillIPhhEEvT_S2_RKT0_,"axG",%progbits,_ZN6uavcan4fillIPhhEEvT_S2_RKT0_,c
 2362              		.align	1
 2363              		.weak	_ZN6uavcan4fillIPhhEEvT_S2_RKT0_
 2364              		.thumb
 2365              		.thumb_func
 2366              		.type	_ZN6uavcan4fillIPhhEEvT_S2_RKT0_, %function
 2367              	_ZN6uavcan4fillIPhhEEvT_S2_RKT0_:
 2368              		@ args = 0, pretend = 0, frame = 0
 2369              		@ frame_needed = 0, uses_anonymous_args = 0
 2370              		@ link register save eliminated.
 2371              	.L295:
 2372 0000 8842     		cmp	r0, r1
 2373 0002 03D0     		beq	.L297
 2374 0004 1378     		ldrb	r3, [r2]	@ zero_extendqisi2
 2375 0006 00F8013B 		strb	r3, [r0], #1
 2376 000a F9E7     		b	.L295
 2377              	.L297:
 2378 000c 7047     		bx	lr
 2379              		.size	_ZN6uavcan4fillIPhhEEvT_S2_RKT0_, .-_ZN6uavcan4fillIPhhEEvT_S2_RKT0_
 2380              		.section	.text._ZN6uavcan8CanFrameC2Ev,"axG",%progbits,_ZN6uavcan8CanFrameC5Ev,comdat
 2381              		.align	1
 2382              		.weak	_ZN6uavcan8CanFrameC2Ev
 2383              		.thumb
 2384              		.thumb_func
 2385              		.type	_ZN6uavcan8CanFrameC2Ev, %function
 2386              	_ZN6uavcan8CanFrameC2Ev:
 2387              		@ args = 0, pretend = 0, frame = 8
 2388              		@ frame_needed = 0, uses_anonymous_args = 0
 2389 0000 13B5     		push	{r0, r1, r4, lr}
 2390 0002 0446     		mov	r4, r0
 2391 0004 0023     		movs	r3, #0
 2392 0006 02AA     		add	r2, sp, #8
 2393 0008 0360     		str	r3, [r0]
ARM GAS  /tmp/ccFEREDd.s 			page 43


 2394 000a 0373     		strb	r3, [r0, #12]
 2395 000c 02F8013D 		strb	r3, [r2, #-1]!
 2396 0010 0430     		adds	r0, r0, #4
 2397 0012 04F10C01 		add	r1, r4, #12
 2398 0016 FFF7FEFF 		bl	_ZN6uavcan4fillIPhhEEvT_S2_RKT0_
 2399 001a 2046     		mov	r0, r4
 2400 001c 02B0     		add	sp, sp, #8
 2401              		@ sp needed
 2402 001e 10BD     		pop	{r4, pc}
 2403              		.size	_ZN6uavcan8CanFrameC2Ev, .-_ZN6uavcan8CanFrameC2Ev
 2404              		.weak	_ZN6uavcan8CanFrameC1Ev
 2405              		.thumb_set _ZN6uavcan8CanFrameC1Ev,_ZN6uavcan8CanFrameC2Ev
 2406              		.section	.text._ZN6uavcan20GlobalTimeSyncMasterD2Ev,"axG",%progbits,_ZN6uavcan20GlobalTimeSyncMast
 2407              		.align	1
 2408              		.weak	_ZN6uavcan20GlobalTimeSyncMasterD2Ev
 2409              		.thumb
 2410              		.thumb_func
 2411              		.type	_ZN6uavcan20GlobalTimeSyncMasterD2Ev, %function
 2412              	_ZN6uavcan20GlobalTimeSyncMasterD2Ev:
 2413              		@ args = 0, pretend = 0, frame = 8
 2414              		@ frame_needed = 0, uses_anonymous_args = 0
 2415 0000 73B5     		push	{r0, r1, r4, r5, r6, lr}
 2416 0002 0646     		mov	r6, r0
 2417 0004 0446     		mov	r4, r0
 2418 0006 0D4B     		ldr	r3, .L302
 2419 0008 00F1E805 		add	r5, r0, #232
 2420 000c 46F8103B 		str	r3, [r6], #16
 2421              	.L301:
 2422 0010 B542     		cmp	r5, r6
 2423 0012 0BD0     		beq	.L300
 2424 0014 483D     		subs	r5, r5, #72
 2425 0016 2946     		mov	r1, r5
 2426 0018 0023     		movs	r3, #0
 2427 001a 02AA     		add	r2, sp, #8
 2428 001c 41F8403F 		str	r3, [r1, #64]!
 2429 0020 02F8013D 		strb	r3, [r2, #-1]!
 2430 0024 2846     		mov	r0, r5
 2431 0026 FFF7FEFF 		bl	_ZN6uavcan4fillIPhhEEvT_S2_RKT0_
 2432 002a F1E7     		b	.L301
 2433              	.L300:
 2434 002c 044B     		ldr	r3, .L302+4
 2435 002e 2046     		mov	r0, r4
 2436 0030 2360     		str	r3, [r4]
 2437 0032 FFF7FEFF 		bl	_ZN6uavcan25LoopbackFrameListenerBase13stopListeningEv
 2438 0036 2046     		mov	r0, r4
 2439 0038 02B0     		add	sp, sp, #8
 2440              		@ sp needed
 2441 003a 70BD     		pop	{r4, r5, r6, pc}
 2442              	.L303:
 2443              		.align	2
 2444              	.L302:
 2445 003c 08000000 		.word	_ZTVN6uavcan20GlobalTimeSyncMasterE+8
 2446 0040 08000000 		.word	_ZTVN6uavcan25LoopbackFrameListenerBaseE+8
 2447              		.size	_ZN6uavcan20GlobalTimeSyncMasterD2Ev, .-_ZN6uavcan20GlobalTimeSyncMasterD2Ev
 2448              		.weak	_ZN6uavcan20GlobalTimeSyncMasterD1Ev
 2449              		.thumb_set _ZN6uavcan20GlobalTimeSyncMasterD1Ev,_ZN6uavcan20GlobalTimeSyncMasterD2Ev
 2450              		.section	.text._ZN6uavcan20GlobalTimeSyncMasterD0Ev,"axG",%progbits,_ZN6uavcan20GlobalTimeSyncMast
ARM GAS  /tmp/ccFEREDd.s 			page 44


 2451              		.align	1
 2452              		.weak	_ZN6uavcan20GlobalTimeSyncMasterD0Ev
 2453              		.thumb
 2454              		.thumb_func
 2455              		.type	_ZN6uavcan20GlobalTimeSyncMasterD0Ev, %function
 2456              	_ZN6uavcan20GlobalTimeSyncMasterD0Ev:
 2457              		@ args = 0, pretend = 0, frame = 0
 2458              		@ frame_needed = 0, uses_anonymous_args = 0
 2459 0000 10B5     		push	{r4, lr}
 2460 0002 0446     		mov	r4, r0
 2461 0004 FFF7FEFF 		bl	_ZN6uavcan20GlobalTimeSyncMasterD1Ev
 2462 0008 2046     		mov	r0, r4
 2463 000a FFF7FEFF 		bl	_ZdlPv
 2464 000e 2046     		mov	r0, r4
 2465 0010 10BD     		pop	{r4, pc}
 2466              		.size	_ZN6uavcan20GlobalTimeSyncMasterD0Ev, .-_ZN6uavcan20GlobalTimeSyncMasterD0Ev
 2467              		.section	.text._ZN6uavcan19DynamicNodeIDClientC2ERNS_5INodeE,"axG",%progbits,_ZN6uavcan19DynamicNo
 2468              		.align	1
 2469              		.weak	_ZN6uavcan19DynamicNodeIDClientC2ERNS_5INodeE
 2470              		.thumb
 2471              		.thumb_func
 2472              		.type	_ZN6uavcan19DynamicNodeIDClientC2ERNS_5INodeE, %function
 2473              	_ZN6uavcan19DynamicNodeIDClientC2ERNS_5INodeE:
 2474              		@ args = 0, pretend = 0, frame = 16
 2475              		@ frame_needed = 0, uses_anonymous_args = 0
 2476 0000 30B5     		push	{r4, r5, lr}
 2477 0002 0446     		mov	r4, r0
 2478 0004 85B0     		sub	sp, sp, #20
 2479 0006 0D46     		mov	r5, r1
 2480 0008 FFF7FEFF 		bl	_ZN6uavcan9TimerBaseC2ERNS_5INodeE
 2481 000c 2046     		mov	r0, r4
 2482 000e 1A4B     		ldr	r3, .L306
 2483 0010 1A4A     		ldr	r2, .L306+4
 2484 0012 40F8203B 		str	r3, [r0], #32
 2485 0016 0023     		movs	r3, #0
 2486 0018 CDE90223 		strd	r2, [sp, #8]
 2487 001c 184A     		ldr	r2, .L306+8
 2488 001e 0023     		movs	r3, #0
 2489 0020 CDE90023 		strd	r2, [sp]
 2490 0024 2946     		mov	r1, r5
 2491 0026 02AA     		add	r2, sp, #8
 2492 0028 6B46     		mov	r3, sp
 2493 002a FFF7FEFF 		bl	_ZN6uavcan20GenericPublisherBaseC2ERNS_5INodeENS_17MonotonicDurationES3_
 2494 002e 154B     		ldr	r3, .L306+12
 2495 0030 E564     		str	r5, [r4, #76]
 2496 0032 0025     		movs	r5, #0
 2497 0034 A364     		str	r3, [r4, #72]
 2498 0036 04F15400 		add	r0, r4, #84
 2499 003a 2565     		str	r5, [r4, #80]
 2500 003c C4F88050 		str	r5, [r4, #128]
 2501 0040 04F18001 		add	r1, r4, #128
 2502 0044 02AA     		add	r2, sp, #8
 2503 0046 8DF80850 		strb	r5, [sp, #8]
 2504 004a FFF7FEFF 		bl	_ZN6uavcan4fillIPhhEEvT_S2_RKT0_
 2505 004e 2046     		mov	r0, r4
 2506 0050 0D4B     		ldr	r3, .L306+16
 2507 0052 C4F88450 		str	r5, [r4, #132]
ARM GAS  /tmp/ccFEREDd.s 			page 45


 2508 0056 A364     		str	r3, [r4, #72]
 2509 0058 FF23     		movs	r3, #255
 2510 005a C4F88850 		str	r5, [r4, #136]
 2511 005e C4F88C50 		str	r5, [r4, #140]
 2512 0062 84F8A050 		strb	r5, [r4, #160]
 2513 0066 84F8A130 		strb	r3, [r4, #161]
 2514 006a 84F8A230 		strb	r3, [r4, #162]
 2515 006e 84F8A330 		strb	r3, [r4, #163]
 2516 0072 05B0     		add	sp, sp, #20
 2517              		@ sp needed
 2518 0074 30BD     		pop	{r4, r5, pc}
 2519              	.L307:
 2520 0076 00BF     		.align	2
 2521              	.L306:
 2522 0078 08000000 		.word	_ZTVN6uavcan19DynamicNodeIDClientE+8
 2523 007c A0860100 		.word	100000
 2524 0080 00879303 		.word	60000000
 2525 0084 08000000 		.word	_ZTVN6uavcan17GenericSubscriberINS_8protocol15dynamic_node_id11Allocation_ILi0EEES4_NS_16Tra
 2526 0088 08000000 		.word	_ZTVN6uavcan10SubscriberINS_8protocol15dynamic_node_id11Allocation_ILi0EEENS_12MethodBinderI
 2527              		.size	_ZN6uavcan19DynamicNodeIDClientC2ERNS_5INodeE, .-_ZN6uavcan19DynamicNodeIDClientC2ERNS_5INod
 2528              		.weak	_ZN6uavcan19DynamicNodeIDClientC1ERNS_5INodeE
 2529              		.thumb_set _ZN6uavcan19DynamicNodeIDClientC1ERNS_5INodeE,_ZN6uavcan19DynamicNodeIDClientC2ERNS_5IN
 2530              		.section	.text._ZNK6uavcan8TimeBaseINS_13MonotonicTimeENS_17MonotonicDurationEEplERKS2_,"axG",%pro
 2531              		.align	1
 2532              		.weak	_ZNK6uavcan8TimeBaseINS_13MonotonicTimeENS_17MonotonicDurationEEplERKS2_
 2533              		.thumb
 2534              		.thumb_func
 2535              		.type	_ZNK6uavcan8TimeBaseINS_13MonotonicTimeENS_17MonotonicDurationEEplERKS2_, %function
 2536              	_ZNK6uavcan8TimeBaseINS_13MonotonicTimeENS_17MonotonicDurationEEplERKS2_:
 2537              		@ args = 0, pretend = 0, frame = 0
 2538              		@ frame_needed = 0, uses_anonymous_args = 0
 2539 0000 0CCA     		ldmia	r2, {r2-r3}
 2540 0002 002A     		cmp	r2, #0
 2541 0004 F0B5     		push	{r4, r5, r6, r7, lr}
 2542 0006 73F10004 		sbcs	r4, r3, #0
 2543 000a D1E90045 		ldrd	r4, [r1]
 2544 000e 09DA     		bge	.L309
 2545 0010 5642     		rsbs	r6, r2, #0
 2546 0012 63EB4307 		sbc	r7, r3, r3, lsl #1
 2547 0016 BD42     		cmp	r5, r7
 2548 0018 08BF     		it	eq
 2549 001a B442     		cmpeq	r4, r6
 2550 001c 0ED2     		bcs	.L310
 2551 001e 0022     		movs	r2, #0
 2552 0020 0023     		movs	r3, #0
 2553 0022 0DE0     		b	.L312
 2554              	.L309:
 2555 0024 A618     		adds	r6, r4, r2
 2556 0026 45EB0307 		adc	r7, r5, r3
 2557 002a AF42     		cmp	r7, r5
 2558 002c 08BF     		it	eq
 2559 002e A642     		cmpeq	r6, r4
 2560 0030 04D2     		bcs	.L310
 2561 0032 4FF0FF32 		mov	r2, #-1
 2562 0036 4FF0FF33 		mov	r3, #-1
 2563 003a 01E0     		b	.L312
 2564              	.L310:
ARM GAS  /tmp/ccFEREDd.s 			page 46


 2565 003c 1219     		adds	r2, r2, r4
 2566 003e 6B41     		adcs	r3, r3, r5
 2567              	.L312:
 2568 0040 C0E90023 		strd	r2, [r0]
 2569 0044 F0BD     		pop	{r4, r5, r6, r7, pc}
 2570              		.size	_ZNK6uavcan8TimeBaseINS_13MonotonicTimeENS_17MonotonicDurationEEplERKS2_, .-_ZNK6uavcan8Time
 2571              		.section	.text._ZN6uavcan8protocol12GetNodeInfo_9Response_ILi0EEC2Ev,"axG",%progbits,_ZN6uavcan8pr
 2572              		.align	1
 2573              		.weak	_ZN6uavcan8protocol12GetNodeInfo_9Response_ILi0EEC2Ev
 2574              		.thumb
 2575              		.thumb_func
 2576              		.type	_ZN6uavcan8protocol12GetNodeInfo_9Response_ILi0EEC2Ev, %function
 2577              	_ZN6uavcan8protocol12GetNodeInfo_9Response_ILi0EEC2Ev:
 2578              		@ args = 0, pretend = 0, frame = 8
 2579              		@ frame_needed = 0, uses_anonymous_args = 0
 2580 0000 37B5     		push	{r0, r1, r2, r4, r5, lr}
 2581 0002 0446     		mov	r4, r0
 2582 0004 0023     		movs	r3, #0
 2583 0006 0022     		movs	r2, #0
 2584 0008 0025     		movs	r5, #0
 2585 000a C0E90623 		strd	r2, [r0, #24]
 2586 000e 02AA     		add	r2, sp, #8
 2587 0010 0560     		str	r5, [r0]
 2588 0012 0571     		strb	r5, [r0, #4]
 2589 0014 4571     		strb	r5, [r0, #5]
 2590 0016 8571     		strb	r5, [r0, #6]
 2591 0018 0581     		strh	r5, [r0, #8]	@ movhi
 2592 001a 0574     		strb	r5, [r0, #16]
 2593 001c 4574     		strb	r5, [r0, #17]
 2594 001e 8574     		strb	r5, [r0, #18]
 2595 0020 4561     		str	r5, [r0, #20]
 2596 0022 80F82050 		strb	r5, [r0, #32]
 2597 0026 80F82150 		strb	r5, [r0, #33]
 2598 002a 02F8015D 		strb	r5, [r2, #-1]!
 2599 002e 2230     		adds	r0, r0, #34
 2600 0030 04F13201 		add	r1, r4, #50
 2601 0034 FFF7FEFF 		bl	_ZN6uavcan4fillIPhhEEvT_S2_RKT0_
 2602 0038 2046     		mov	r0, r4
 2603 003a 84F83250 		strb	r5, [r4, #50]
 2604 003e 84F83351 		strb	r5, [r4, #307]
 2605 0042 03B0     		add	sp, sp, #12
 2606              		@ sp needed
 2607 0044 30BD     		pop	{r4, r5, pc}
 2608              		.size	_ZN6uavcan8protocol12GetNodeInfo_9Response_ILi0EEC2Ev, .-_ZN6uavcan8protocol12GetNodeInfo_9R
 2609              		.weak	_ZN6uavcan8protocol12GetNodeInfo_9Response_ILi0EEC1Ev
 2610              		.thumb_set _ZN6uavcan8protocol12GetNodeInfo_9Response_ILi0EEC1Ev,_ZN6uavcan8protocol12GetNodeInfo_
 2611              		.section	.text._ZN6uavcan18NodeStatusProviderC2ERNS_5INodeE,"axG",%progbits,_ZN6uavcan18NodeStatus
 2612              		.align	1
 2613              		.weak	_ZN6uavcan18NodeStatusProviderC2ERNS_5INodeE
 2614              		.thumb
 2615              		.thumb_func
 2616              		.type	_ZN6uavcan18NodeStatusProviderC2ERNS_5INodeE, %function
 2617              	_ZN6uavcan18NodeStatusProviderC2ERNS_5INodeE:
 2618              		@ args = 0, pretend = 0, frame = 16
 2619              		@ frame_needed = 0, uses_anonymous_args = 0
 2620 0000 2DE97F43 		push	{r0, r1, r2, r3, r4, r5, r6, r8, r9, lr}
 2621 0004 0446     		mov	r4, r0
ARM GAS  /tmp/ccFEREDd.s 			page 47


 2622 0006 0E46     		mov	r6, r1
 2623 0008 FFF7FEFF 		bl	_ZN6uavcan9TimerBaseC2ERNS_5INodeE
 2624 000c 2046     		mov	r0, r4
 2625 000e 254B     		ldr	r3, .L315
 2626 0010 3146     		mov	r1, r6
 2627 0012 40F8203B 		str	r3, [r0], #32
 2628 0016 FFF7FEFF 		bl	_ZNK6uavcan5INode16getMonotonicTimeEv
 2629 001a 234A     		ldr	r2, .L315+4
 2630 001c DFF89880 		ldr	r8, .L315+20
 2631 0020 0023     		movs	r3, #0
 2632 0022 CDE90223 		strd	r2, [sp, #8]
 2633 0026 4FF00009 		mov	r9, #0
 2634 002a 3146     		mov	r1, r6
 2635 002c 02AA     		add	r2, sp, #8
 2636 002e 6B46     		mov	r3, sp
 2637 0030 04F12800 		add	r0, r4, #40
 2638 0034 CDE90089 		strd	r8, [sp]
 2639 0038 FFF7FEFF 		bl	_ZN6uavcan20GenericPublisherBaseC2ERNS_5INodeENS_17MonotonicDurationES3_
 2640 003c 1B4B     		ldr	r3, .L315+8
 2641 003e 0025     		movs	r5, #0
 2642 0040 2365     		str	r3, [r4, #80]
 2643 0042 04F15C00 		add	r0, r4, #92
 2644 0046 04F18801 		add	r1, r4, #136
 2645 004a 02AA     		add	r2, sp, #8
 2646 004c 6665     		str	r6, [r4, #84]
 2647 004e A565     		str	r5, [r4, #88]
 2648 0050 C4F88850 		str	r5, [r4, #136]
 2649 0054 8DF80850 		strb	r5, [sp, #8]
 2650 0058 FFF7FEFF 		bl	_ZN6uavcan4fillIPhhEEvT_S2_RKT0_
 2651 005c 144B     		ldr	r3, .L315+12
 2652 005e 154A     		ldr	r2, .L315+16
 2653 0060 2365     		str	r3, [r4, #80]
 2654 0062 0023     		movs	r3, #0
 2655 0064 CDE90223 		strd	r2, [sp, #8]
 2656 0068 3146     		mov	r1, r6
 2657 006a 6B46     		mov	r3, sp
 2658 006c 02AA     		add	r2, sp, #8
 2659 006e 04F19000 		add	r0, r4, #144
 2660 0072 CDE90089 		strd	r8, [sp]
 2661 0076 FFF7FEFF 		bl	_ZN6uavcan20GenericPublisherBaseC2ERNS_5INodeENS_17MonotonicDurationES3_
 2662 007a C4F8B850 		str	r5, [r4, #184]
 2663 007e C4F8BC50 		str	r5, [r4, #188]
 2664 0082 C4F8C050 		str	r5, [r4, #192]
 2665 0086 C4F8C450 		str	r5, [r4, #196]
 2666 008a 04F1C800 		add	r0, r4, #200
 2667 008e FFF7FEFF 		bl	_ZN6uavcan8protocol12GetNodeInfo_9Response_ILi0EEC1Ev
 2668 0092 2046     		mov	r0, r4
 2669 0094 0123     		movs	r3, #1
 2670 0096 84F8CD30 		strb	r3, [r4, #205]
 2671 009a 84F8CC50 		strb	r5, [r4, #204]
 2672 009e 04B0     		add	sp, sp, #16
 2673              		@ sp needed
 2674 00a0 BDE87083 		pop	{r4, r5, r6, r8, r9, pc}
 2675              	.L316:
 2676              		.align	2
 2677              	.L315:
 2678 00a4 08000000 		.word	_ZTVN6uavcan18NodeStatusProviderE+8
ARM GAS  /tmp/ccFEREDd.s 			page 48


 2679 00a8 A0860100 		.word	100000
 2680 00ac 08000000 		.word	_ZTVN6uavcan17GenericSubscriberINS_8protocol12GetNodeInfo_ENS2_8Request_ILi0EEENS_16Transfer
 2681 00b0 08000000 		.word	_ZTVN6uavcan13ServiceServerINS_8protocol12GetNodeInfo_ENS_12MethodBinderIPNS_18NodeStatusPro
 2682 00b4 40420F00 		.word	1000000
 2683 00b8 00879303 		.word	60000000
 2684              		.size	_ZN6uavcan18NodeStatusProviderC2ERNS_5INodeE, .-_ZN6uavcan18NodeStatusProviderC2ERNS_5INodeE
 2685              		.weak	_ZN6uavcan18NodeStatusProviderC1ERNS_5INodeE
 2686              		.thumb_set _ZN6uavcan18NodeStatusProviderC1ERNS_5INodeE,_ZN6uavcan18NodeStatusProviderC2ERNS_5INod
 2687              		.section	.text._ZN6uavcan8protocol13DataTypeKind_ILi0EE23extendDataTypeSignatureERNS_17DataTypeSig
 2688              		.align	1
 2689              		.weak	_ZN6uavcan8protocol13DataTypeKind_ILi0EE23extendDataTypeSignatureERNS_17DataTypeSignatureE
 2690              		.thumb
 2691              		.thumb_func
 2692              		.type	_ZN6uavcan8protocol13DataTypeKind_ILi0EE23extendDataTypeSignatureERNS_17DataTypeSignatureE, 
 2693              	_ZN6uavcan8protocol13DataTypeKind_ILi0EE23extendDataTypeSignatureERNS_17DataTypeSignatureE:
 2694              		@ args = 0, pretend = 0, frame = 0
 2695              		@ frame_needed = 0, uses_anonymous_args = 0
 2696 0000 08B5     		push	{r3, lr}
 2697 0002 03A3     		adr	r3, .L318
 2698 0004 D3E90023 		ldrd	r2, [r3]
 2699 0008 FFF7FEFF 		bl	_ZN6uavcan17DataTypeSignature6extendES0_
 2700 000c 08BD     		pop	{r3, pc}
 2701              	.L319:
 2702 000e 00BF     		.align	3
 2703              	.L318:
 2704 0010 30598E00 		.word	9328944
 2705 0014 3EA72094 		.word	-1809799362
 2706              		.size	_ZN6uavcan8protocol13DataTypeKind_ILi0EE23extendDataTypeSignatureERNS_17DataTypeSignatureE, 
 2707              		.section	.text._ZNK6uavcan8TimeBaseINS_13MonotonicTimeENS_17MonotonicDurationEEmiERKS1_,"axG",%pro
 2708              		.align	1
 2709              		.weak	_ZNK6uavcan8TimeBaseINS_13MonotonicTimeENS_17MonotonicDurationEEmiERKS1_
 2710              		.thumb
 2711              		.thumb_func
 2712              		.type	_ZNK6uavcan8TimeBaseINS_13MonotonicTimeENS_17MonotonicDurationEEmiERKS1_, %function
 2713              	_ZNK6uavcan8TimeBaseINS_13MonotonicTimeENS_17MonotonicDurationEEmiERKS1_:
 2714              		@ args = 0, pretend = 0, frame = 0
 2715              		@ frame_needed = 0, uses_anonymous_args = 0
 2716 0000 30B5     		push	{r4, r5, lr}
 2717 0002 0CCA     		ldmia	r2, {r2-r3}
 2718 0004 D1E90045 		ldrd	r4, [r1]
 2719 0008 A41A     		subs	r4, r4, r2
 2720 000a 65EB0305 		sbc	r5, r5, r3
 2721 000e C0E90045 		strd	r4, [r0]
 2722 0012 30BD     		pop	{r4, r5, pc}
 2723              		.size	_ZNK6uavcan8TimeBaseINS_13MonotonicTimeENS_17MonotonicDurationEEmiERKS1_, .-_ZNK6uavcan8Time
 2724              		.section	.text._ZNK6uavcan19GlobalTimeSyncSlave8isActiveEv,"axG",%progbits,_ZNK6uavcan19GlobalTime
 2725              		.align	1
 2726              		.weak	_ZNK6uavcan19GlobalTimeSyncSlave8isActiveEv
 2727              		.thumb
 2728              		.thumb_func
 2729              		.type	_ZNK6uavcan19GlobalTimeSyncSlave8isActiveEv, %function
 2730              	_ZNK6uavcan19GlobalTimeSyncSlave8isActiveEv:
 2731              		@ args = 0, pretend = 0, frame = 16
 2732              		@ frame_needed = 0, uses_anonymous_args = 0
 2733 0000 1FB5     		push	{r0, r1, r2, r3, r4, lr}
 2734 0002 0446     		mov	r4, r0
 2735 0004 4068     		ldr	r0, [r0, #4]
ARM GAS  /tmp/ccFEREDd.s 			page 49


 2736 0006 FFF7FEFF 		bl	_ZN6uavcan5INode14getSystemClockEv
 2737 000a 0368     		ldr	r3, [r0]
 2738 000c 0146     		mov	r1, r0
 2739 000e 9B68     		ldr	r3, [r3, #8]
 2740 0010 02A8     		add	r0, sp, #8
 2741 0012 9847     		blx	r3
 2742 0014 04F15802 		add	r2, r4, #88
 2743 0018 6846     		mov	r0, sp
 2744 001a 02A9     		add	r1, sp, #8
 2745 001c FFF7FEFF 		bl	_ZNK6uavcan8TimeBaseINS_13MonotonicTimeENS_17MonotonicDurationEEmiERKS1_
 2746 0020 D4E91623 		ldrd	r2, [r4, #88]
 2747 0024 1343     		orrs	r3, r2, r3
 2748 0026 0BD0     		beq	.L325
 2749 0028 07A1     		adr	r1, .L326
 2750 002a D1E90001 		ldrd	r0, [r1]
 2751 002e DDE90023 		ldrd	r2, [sp]
 2752 0032 9042     		cmp	r0, r2
 2753 0034 71EB0303 		sbcs	r3, r1, r3
 2754 0038 ACBF     		ite	ge
 2755 003a 0120     		movge	r0, #1
 2756 003c 0020     		movlt	r0, #0
 2757 003e 00E0     		b	.L324
 2758              	.L325:
 2759 0040 0020     		movs	r0, #0
 2760              	.L324:
 2761 0042 04B0     		add	sp, sp, #16
 2762              		@ sp needed
 2763 0044 10BD     		pop	{r4, pc}
 2764              	.L327:
 2765 0046 00BF     		.align	3
 2766              	.L326:
 2767 0048 A7952100 		.word	2200999
 2768 004c 00000000 		.word	0
 2769              		.size	_ZNK6uavcan19GlobalTimeSyncSlave8isActiveEv, .-_ZNK6uavcan19GlobalTimeSyncSlave8isActiveEv
 2770              		.section	.text._ZN6uavcan19GlobalTimeSyncSlave10processMsgERKNS_21ReceivedDataStructureINS_8protoc
 2771              		.align	1
 2772              		.weak	_ZN6uavcan19GlobalTimeSyncSlave10processMsgERKNS_21ReceivedDataStructureINS_8protocol15Globa
 2773              		.thumb
 2774              		.thumb_func
 2775              		.type	_ZN6uavcan19GlobalTimeSyncSlave10processMsgERKNS_21ReceivedDataStructureINS_8protocol15Globa
 2776              	_ZN6uavcan19GlobalTimeSyncSlave10processMsgERKNS_21ReceivedDataStructureINS_8protocol15GlobalTimeSy
 2777              		@ args = 0, pretend = 0, frame = 16
 2778              		@ frame_needed = 0, uses_anonymous_args = 0
 2779 0000 2DE9F043 		push	{r4, r5, r6, r7, r8, r9, lr}
 2780 0004 8B68     		ldr	r3, [r1, #8]
 2781 0006 85B0     		sub	sp, sp, #20
 2782 0008 0446     		mov	r4, r0
 2783 000a 0D46     		mov	r5, r1
 2784 000c 02AA     		add	r2, sp, #8
 2785 000e 23B9     		cbnz	r3, .L329
 2786 0010 0020     		movs	r0, #0
 2787 0012 0021     		movs	r1, #0
 2788 0014 CDE90201 		strd	r0, [sp, #8]
 2789 0018 04E0     		b	.L330
 2790              	.L329:
 2791 001a 0833     		adds	r3, r3, #8
 2792 001c 93E80300 		ldmia	r3, {r0, r1}
ARM GAS  /tmp/ccFEREDd.s 			page 50


 2793 0020 82E80300 		stmia	r2, {r0, r1}
 2794              	.L330:
 2795 0024 1146     		mov	r1, r2
 2796 0026 6846     		mov	r0, sp
 2797 0028 04F15002 		add	r2, r4, #80
 2798 002c FFF7FEFF 		bl	_ZNK6uavcan8TimeBaseINS_13MonotonicTimeENS_17MonotonicDurationEEmiERKS1_
 2799 0030 94F86130 		ldrb	r3, [r4, #97]	@ zero_extendqisi2
 2800 0034 1A06     		lsls	r2, r3, #24
 2801 0036 06D4     		bmi	.L343
 2802 0038 626D     		ldr	r2, [r4, #84]
 2803 003a 216D     		ldr	r1, [r4, #80]
 2804 003c 0A43     		orrs	r2, r1, r2
 2805 003e 0CBF     		ite	eq
 2806 0040 0122     		moveq	r2, #1
 2807 0042 0022     		movne	r2, #0
 2808 0044 00E0     		b	.L331
 2809              	.L343:
 2810 0046 0122     		movs	r2, #1
 2811              	.L331:
 2812 0048 A968     		ldr	r1, [r5, #8]
 2813 004a 09B1     		cbz	r1, .L344
 2814 004c C87E     		ldrb	r0, [r1, #27]	@ zero_extendqisi2
 2815 004e 00E0     		b	.L332
 2816              	.L344:
 2817 0050 FF20     		movs	r0, #255
 2818              	.L332:
 2819 0052 9842     		cmp	r0, r3
 2820 0054 DDE90067 		ldrd	r6, [sp]
 2821 0058 08D3     		bcc	.L333
 2822 005a 0FF28809 		adr	r9, .L351+4
 2823 005e D9E90089 		ldrd	r8, [r9]
 2824 0062 B045     		cmp	r8, r6
 2825 0064 79EB0700 		sbcs	r0, r9, r7
 2826 0068 00DB     		blt	.L333
 2827 006a 22B1     		cbz	r2, .L334
 2828              	.L333:
 2829 006c 2046     		mov	r0, r4
 2830 006e 2946     		mov	r1, r5
 2831 0070 FFF7FEFF 		bl	_ZN6uavcan19GlobalTimeSyncSlave13updateFromMsgERKNS_21ReceivedDataStructureINS_8protocol15Globa
 2832 0074 31E0     		b	.L328
 2833              	.L334:
 2834 0076 09B1     		cbz	r1, .L345
 2835 0078 0A7F     		ldrb	r2, [r1, #28]	@ zero_extendqisi2
 2836 007a 00E0     		b	.L336
 2837              	.L345:
 2838 007c 0A46     		mov	r2, r1
 2839              	.L336:
 2840 007e 94F86300 		ldrb	r0, [r4, #99]	@ zero_extendqisi2
 2841 0082 9042     		cmp	r0, r2
 2842 0084 29D1     		bne	.L328
 2843 0086 09B1     		cbz	r1, .L346
 2844 0088 CA7E     		ldrb	r2, [r1, #27]	@ zero_extendqisi2
 2845 008a 00E0     		b	.L337
 2846              	.L346:
 2847 008c FF22     		movs	r2, #255
 2848              	.L337:
 2849 008e 9A42     		cmp	r2, r3
ARM GAS  /tmp/ccFEREDd.s 			page 51


 2850 0090 23D1     		bne	.L328
 2851 0092 94F86030 		ldrb	r3, [r4, #96]	@ zero_extendqisi2
 2852 0096 012B     		cmp	r3, #1
 2853 0098 17D1     		bne	.L339
 2854 009a D5E90067 		ldrd	r6, [r5]
 2855 009e 04F16200 		add	r0, r4, #98
 2856 00a2 01B1     		cbz	r1, .L340
 2857 00a4 897E     		ldrb	r1, [r1, #26]	@ zero_extendqisi2
 2858              	.L340:
 2859 00a6 FFF7FEFF 		bl	_ZNK6uavcan10TransferID22computeForwardDistanceES0_
 2860 00aa DDE90023 		ldrd	r2, [sp]
 2861 00ae 56EA0701 		orrs	r1, r6, r7
 2862 00b2 07D0     		beq	.L341
 2863 00b4 0128     		cmp	r0, #1
 2864 00b6 05D1     		bne	.L341
 2865 00b8 0948     		ldr	r0, .L351
 2866 00ba 0021     		movs	r1, #0
 2867 00bc 9042     		cmp	r0, r2
 2868 00be 71EB0303 		sbcs	r3, r1, r3
 2869 00c2 02DA     		bge	.L339
 2870              	.L341:
 2871 00c4 0023     		movs	r3, #0
 2872 00c6 84F86030 		strb	r3, [r4, #96]
 2873              	.L339:
 2874 00ca 94F86030 		ldrb	r3, [r4, #96]	@ zero_extendqisi2
 2875 00ce 012B     		cmp	r3, #1
 2876 00d0 CCD1     		bne	.L333
 2877 00d2 2046     		mov	r0, r4
 2878 00d4 2946     		mov	r1, r5
 2879 00d6 FFF7FEFF 		bl	_ZN6uavcan19GlobalTimeSyncSlave13adjustFromMsgERKNS_21ReceivedDataStructureINS_8protocol15Globa
 2880              	.L328:
 2881 00da 05B0     		add	sp, sp, #20
 2882              		@ sp needed
 2883 00dc BDE8F083 		pop	{r4, r5, r6, r7, r8, r9, pc}
 2884              	.L352:
 2885              		.align	3
 2886              	.L351:
 2887 00e0 C7CC1000 		.word	1100999
 2888 00e4 A7952100 		.word	2200999
 2889 00e8 00000000 		.word	0
 2890              		.size	_ZN6uavcan19GlobalTimeSyncSlave10processMsgERKNS_21ReceivedDataStructureINS_8protocol15Globa
 2891              		.section	.text._ZN6uavcan19GlobalTimeSyncSlave20handleGlobalTimeSyncERKNS_21ReceivedDataStructureI
 2892              		.align	1
 2893              		.weak	_ZN6uavcan19GlobalTimeSyncSlave20handleGlobalTimeSyncERKNS_21ReceivedDataStructureINS_8proto
 2894              		.thumb
 2895              		.thumb_func
 2896              		.type	_ZN6uavcan19GlobalTimeSyncSlave20handleGlobalTimeSyncERKNS_21ReceivedDataStructureINS_8proto
 2897              	_ZN6uavcan19GlobalTimeSyncSlave20handleGlobalTimeSyncERKNS_21ReceivedDataStructureINS_8protocol15Gl
 2898              		@ args = 0, pretend = 0, frame = 0
 2899              		@ frame_needed = 0, uses_anonymous_args = 0
 2900 0000 08B5     		push	{r3, lr}
 2901 0002 8B68     		ldr	r3, [r1, #8]
 2902 0004 23B1     		cbz	r3, .L353
 2903 0006 5B7E     		ldrb	r3, [r3, #25]	@ zero_extendqisi2
 2904 0008 022B     		cmp	r3, #2
 2905 000a 01D1     		bne	.L353
 2906 000c FFF7FEFF 		bl	_ZN6uavcan19GlobalTimeSyncSlave10processMsgERKNS_21ReceivedDataStructureINS_8protocol15GlobalTi
ARM GAS  /tmp/ccFEREDd.s 			page 52


 2907              	.L353:
 2908 0010 08BD     		pop	{r3, pc}
 2909              		.size	_ZN6uavcan19GlobalTimeSyncSlave20handleGlobalTimeSyncERKNS_21ReceivedDataStructureINS_8proto
 2910              		.section	.text._ZN12uavcan_stm328CanIfaceD2Ev,"axG",%progbits,_ZN12uavcan_stm328CanIfaceD5Ev,comda
 2911              		.align	1
 2912              		.weak	_ZN12uavcan_stm328CanIfaceD2Ev
 2913              		.thumb
 2914              		.thumb_func
 2915              		.type	_ZN12uavcan_stm328CanIfaceD2Ev, %function
 2916              	_ZN12uavcan_stm328CanIfaceD2Ev:
 2917              		@ args = 0, pretend = 0, frame = 0
 2918              		@ frame_needed = 0, uses_anonymous_args = 0
 2919              		@ link register save eliminated.
 2920 0000 0246     		mov	r2, r0
 2921 0002 054B     		ldr	r3, .L362
 2922 0004 42F8283B 		str	r3, [r2], #40
 2923 0008 00F18803 		add	r3, r0, #136
 2924              	.L360:
 2925 000c 9342     		cmp	r3, r2
 2926 000e 01D0     		beq	.L359
 2927 0010 203B     		subs	r3, r3, #32
 2928 0012 FBE7     		b	.L360
 2929              	.L359:
 2930 0014 7047     		bx	lr
 2931              	.L363:
 2932 0016 00BF     		.align	2
 2933              	.L362:
 2934 0018 08000000 		.word	_ZTVN12uavcan_stm328CanIfaceE+8
 2935              		.size	_ZN12uavcan_stm328CanIfaceD2Ev, .-_ZN12uavcan_stm328CanIfaceD2Ev
 2936              		.weak	_ZN12uavcan_stm328CanIfaceD1Ev
 2937              		.thumb_set _ZN12uavcan_stm328CanIfaceD1Ev,_ZN12uavcan_stm328CanIfaceD2Ev
 2938              		.section	.text._ZN12uavcan_stm3213CanInitHelperILj32EED2Ev,"axG",%progbits,_ZN12uavcan_stm3213CanI
 2939              		.align	1
 2940              		.weak	_ZN12uavcan_stm3213CanInitHelperILj32EED2Ev
 2941              		.thumb
 2942              		.thumb_func
 2943              		.type	_ZN12uavcan_stm3213CanInitHelperILj32EED2Ev, %function
 2944              	_ZN12uavcan_stm3213CanInitHelperILj32EED2Ev:
 2945              		@ args = 0, pretend = 0, frame = 0
 2946              		@ frame_needed = 0, uses_anonymous_args = 0
 2947 0000 10B5     		push	{r4, lr}
 2948 0002 0446     		mov	r4, r0
 2949 0004 064B     		ldr	r3, .L365
 2950 0006 00F50A60 		add	r0, r0, #2208
 2951 000a 40F8A03C 		str	r3, [r0, #-160]
 2952 000e FFF7FEFF 		bl	_ZN12uavcan_stm328CanIfaceD1Ev
 2953 0012 04F50160 		add	r0, r4, #2064
 2954 0016 FFF7FEFF 		bl	_ZN12uavcan_stm328CanIfaceD1Ev
 2955 001a 2046     		mov	r0, r4
 2956 001c 10BD     		pop	{r4, pc}
 2957              	.L366:
 2958 001e 00BF     		.align	2
 2959              	.L365:
 2960 0020 08000000 		.word	_ZTVN12uavcan_stm329CanDriverE+8
 2961              		.size	_ZN12uavcan_stm3213CanInitHelperILj32EED2Ev, .-_ZN12uavcan_stm3213CanInitHelperILj32EED2Ev
 2962              		.weak	_ZN12uavcan_stm3213CanInitHelperILj32EED1Ev
 2963              		.thumb_set _ZN12uavcan_stm3213CanInitHelperILj32EED1Ev,_ZN12uavcan_stm3213CanInitHelperILj32EED2Ev
ARM GAS  /tmp/ccFEREDd.s 			page 53


 2964              		.section	.text._ZN12uavcan_stm328CanIfaceD0Ev,"axG",%progbits,_ZN12uavcan_stm328CanIfaceD5Ev,comda
 2965              		.align	1
 2966              		.weak	_ZN12uavcan_stm328CanIfaceD0Ev
 2967              		.thumb
 2968              		.thumb_func
 2969              		.type	_ZN12uavcan_stm328CanIfaceD0Ev, %function
 2970              	_ZN12uavcan_stm328CanIfaceD0Ev:
 2971              		@ args = 0, pretend = 0, frame = 0
 2972              		@ frame_needed = 0, uses_anonymous_args = 0
 2973 0000 10B5     		push	{r4, lr}
 2974 0002 0446     		mov	r4, r0
 2975 0004 FFF7FEFF 		bl	_ZN12uavcan_stm328CanIfaceD1Ev
 2976 0008 2046     		mov	r0, r4
 2977 000a FFF7FEFF 		bl	_ZdlPv
 2978 000e 2046     		mov	r0, r4
 2979 0010 10BD     		pop	{r4, pc}
 2980              		.size	_ZN12uavcan_stm328CanIfaceD0Ev, .-_ZN12uavcan_stm328CanIfaceD0Ev
 2981              		.section	.text._ZN6uavcan4NodeILj7168EEC2ERNS_10ICanDriverERNS_12ISystemClockE,"axG",%progbits,_ZN
 2982              		.align	1
 2983              		.weak	_ZN6uavcan4NodeILj7168EEC2ERNS_10ICanDriverERNS_12ISystemClockE
 2984              		.thumb
 2985              		.thumb_func
 2986              		.type	_ZN6uavcan4NodeILj7168EEC2ERNS_10ICanDriverERNS_12ISystemClockE, %function
 2987              	_ZN6uavcan4NodeILj7168EEC2ERNS_10ICanDriverERNS_12ISystemClockE:
 2988              		@ args = 0, pretend = 0, frame = 24
 2989              		@ frame_needed = 0, uses_anonymous_args = 0
 2990 0000 994B     		ldr	r3, .L372
 2991 0002 2DE9F04F 		push	{r4, r5, r6, r7, r8, r9, r10, fp, lr}
 2992 0006 0360     		str	r3, [r0]
 2993 0008 984B     		ldr	r3, .L372+4
 2994 000a 0446     		mov	r4, r0
 2995 000c 40F8083F 		str	r3, [r0, #8]!
 2996 0010 41F61043 		movw	r3, #7184
 2997 0014 0025     		movs	r5, #0
 2998 0016 0830     		adds	r0, r0, #8
 2999 0018 E060     		str	r0, [r4, #12]
 3000 001a E552     		strh	r5, [r4, r3]	@ movhi
 3001 001c 41F61243 		movw	r3, #7186
 3002 0020 8846     		mov	r8, r1
 3003 0022 1646     		mov	r6, r2
 3004 0024 89B0     		sub	sp, sp, #36
 3005 0026 E552     		strh	r5, [r4, r3]	@ movhi
 3006 0028 2946     		mov	r1, r5
 3007 002a 4FF4E052 		mov	r2, #7168
 3008 002e FFF7FEFF 		bl	memset
 3009              	.L369:
 3010 0032 05F13802 		add	r2, r5, #56
 3011 0036 B2F5E05F 		cmp	r2, #7168
 3012 003a E368     		ldr	r3, [r4, #12]
 3013 003c 03D0     		beq	.L371
 3014 003e 9918     		adds	r1, r3, r2
 3015 0040 5951     		str	r1, [r3, r5]
 3016 0042 1546     		mov	r5, r2
 3017 0044 F5E7     		b	.L369
 3018              	.L371:
 3019 0046 41F6C832 		movw	r2, #7112
 3020 004a 0025     		movs	r5, #0
ARM GAS  /tmp/ccFEREDd.s 			page 54


 3021 004c 9D50     		str	r5, [r3, r2]
 3022 004e 41F61C43 		movw	r3, #7196
 3023 0052 04F5E157 		add	r7, r4, #7200
 3024 0056 04F10809 		add	r9, r4, #8
 3025 005a E550     		str	r5, [r4, r3]
 3026 005c 4146     		mov	r1, r8
 3027 005e 4A46     		mov	r2, r9
 3028 0060 3346     		mov	r3, r6
 3029 0062 0095     		str	r5, [sp]
 3030 0064 07F10800 		add	r0, r7, #8
 3031 0068 FFF7FEFF 		bl	_ZN6uavcan12CanIOManagerC1ERNS_10ICanDriverERNS_14IPoolAllocatorERNS_12ISystemClockEj
 3032 006c 41F6C842 		movw	r2, #7368
 3033 0070 04F5E653 		add	r3, r4, #7360
 3034 0074 C7F8A060 		str	r6, [r7, #160]
 3035 0078 4FF00008 		mov	r8, #0
 3036 007c A550     		str	r5, [r4, r2]
 3037 007e C3F80C90 		str	r9, [r3, #12]
 3038 0082 04F5E653 		add	r3, r4, #7360
 3039 0086 4FF00009 		mov	r9, #0
 3040 008a C3E90489 		strd	r8, [r3, #16]
 3041 008e C3E90689 		strd	r8, [r3, #24]
 3042 0092 C3E90889 		strd	r8, [r3, #32]
 3043 0096 41F6E843 		movw	r3, #7400
 3044 009a E550     		str	r5, [r4, r3]
 3045 009c 41F6EC43 		movw	r3, #7404
 3046 00a0 E550     		str	r5, [r4, r3]
 3047 00a2 41F6F043 		movw	r3, #7408
 3048 00a6 E550     		str	r5, [r4, r3]
 3049 00a8 41F6F443 		movw	r3, #7412
 3050 00ac E550     		str	r5, [r4, r3]
 3051 00ae 704B     		ldr	r3, .L372+8
 3052 00b0 C7F8D850 		str	r5, [r7, #216]
 3053 00b4 1B78     		ldrb	r3, [r3]	@ zero_extendqisi2
 3054 00b6 87F8DD50 		strb	r5, [r7, #221]
 3055 00ba 87F8DC30 		strb	r3, [r7, #220]
 3056 00be 3368     		ldr	r3, [r6]
 3057 00c0 04F5E850 		add	r0, r4, #7424
 3058 00c4 3146     		mov	r1, r6
 3059 00c6 9B68     		ldr	r3, [r3, #8]
 3060 00c8 9847     		blx	r3
 3061 00ca 41F28830 		movw	r0, #5000
 3062 00ce 694E     		ldr	r6, .L372+12
 3063 00d0 04F5E853 		add	r3, r4, #7424
 3064 00d4 0021     		movs	r1, #0
 3065 00d6 C3E90201 		strd	r0, [r3, #8]
 3066 00da 0027     		movs	r7, #0
 3067 00dc 04F5E853 		add	r3, r4, #7424
 3068 00e0 04F5E05A 		add	r10, r4, #7168
 3069 00e4 C3E90467 		strd	r6, [r3, #16]
 3070 00e8 2146     		mov	r1, r4
 3071 00ea 8AF81851 		strb	r5, [r10, #280]
 3072 00ee 04F5E950 		add	r0, r4, #7456
 3073 00f2 FFF7FEFF 		bl	_ZN6uavcan18NodeStatusProviderC1ERNS_5INodeE
 3074 00f6 41F67472 		movw	r2, #8052
 3075 00fa 04F5FB50 		add	r0, r4, #8032
 3076 00fe 1C30     		adds	r0, r0, #28
 3077 0100 0146     		mov	r1, r0
ARM GAS  /tmp/ccFEREDd.s 			page 55


 3078 0102 41F6707B 		movw	fp, #8048
 3079 0106 04F5FB53 		add	r3, r4, #8032
 3080 010a 0DF1200A 		add	r10, sp, #32
 3081 010e A450     		str	r4, [r4, r2]
 3082 0110 9D61     		str	r5, [r3, #24]
 3083 0112 594B     		ldr	r3, .L372+16
 3084 0114 0AF8085D 		strb	r5, [r10, #-8]!
 3085 0118 04F5FB5C 		add	ip, r4, #8032
 3086 011c 0CF1100C 		add	ip, ip, #16
 3087 0120 44F80B30 		str	r3, [r4, fp]
 3088 0124 5246     		mov	r2, r10
 3089 0126 41F82C5F 		str	r5, [r1, #44]!
 3090 012a CDF808C0 		str	ip, [sp, #8]
 3091 012e CDF80CC0 		str	ip, [sp, #12]
 3092 0132 FFF7FEFF 		bl	_ZN6uavcan4fillIPhhEEvT_S2_RKT0_
 3093 0136 514B     		ldr	r3, .L372+20
 3094 0138 514A     		ldr	r2, .L372+24
 3095 013a 44F80B30 		str	r3, [r4, fp]
 3096 013e 0DF1200B 		add	fp, sp, #32
 3097 0142 0023     		movs	r3, #0
 3098 0144 6BE90423 		strd	r2, [fp, #-16]!
 3099 0148 04F5FD50 		add	r0, r4, #8096
 3100 014c 2146     		mov	r1, r4
 3101 014e 5246     		mov	r2, r10
 3102 0150 5B46     		mov	r3, fp
 3103 0152 1030     		adds	r0, r0, #16
 3104 0154 CDE90667 		strd	r6, [sp, #24]
 3105 0158 FFF7FEFF 		bl	_ZN6uavcan20GenericPublisherBaseC2ERNS_5INodeENS_17MonotonicDurationES3_
 3106 015c 41F6D872 		movw	r2, #8152
 3107 0160 DDF808C0 		ldr	ip, [sp, #8]
 3108 0164 04F5FE53 		add	r3, r4, #8128
 3109 0168 04F5FF50 		add	r0, r4, #8160
 3110 016c A550     		str	r5, [r4, r2]
 3111 016e 2146     		mov	r1, r4
 3112 0170 DD61     		str	r5, [r3, #28]
 3113 0172 1D62     		str	r5, [r3, #32]
 3114 0174 0830     		adds	r0, r0, #8
 3115 0176 CCF87450 		str	r5, [ip, #116]
 3116 017a FFF7FEFF 		bl	_ZN6uavcan6LoggerC1ERNS_5INodeE
 3117 017e 42F29C02 		movw	r2, #8348
 3118 0182 04F50250 		add	r0, r4, #8320
 3119 0186 04F50253 		add	r3, r4, #8320
 3120 018a 2430     		adds	r0, r0, #36
 3121 018c A450     		str	r4, [r4, r2]
 3122 018e 0146     		mov	r1, r0
 3123 0190 1D62     		str	r5, [r3, #32]
 3124 0192 42F29803 		movw	r3, #8344
 3125 0196 3B4A     		ldr	r2, .L372+28
 3126 0198 04F5025C 		add	ip, r4, #8320
 3127 019c E250     		str	r2, [r4, r3]
 3128 019e 0CF1180C 		add	ip, ip, #24
 3129 01a2 41F82C5F 		str	r5, [r1, #44]!
 3130 01a6 5246     		mov	r2, r10
 3131 01a8 CDF80CC0 		str	ip, [sp, #12]
 3132 01ac 0293     		str	r3, [sp, #8]
 3133 01ae 8DF81850 		strb	r5, [sp, #24]
 3134 01b2 FFF7FEFF 		bl	_ZN6uavcan4fillIPhhEEvT_S2_RKT0_
ARM GAS  /tmp/ccFEREDd.s 			page 56


 3135 01b6 029B     		ldr	r3, [sp, #8]
 3136 01b8 334A     		ldr	r2, .L372+32
 3137 01ba 04F50350 		add	r0, r4, #8384
 3138 01be E250     		str	r2, [r4, r3]
 3139 01c0 2F4A     		ldr	r2, .L372+24
 3140 01c2 0023     		movs	r3, #0
 3141 01c4 CDE90423 		strd	r2, [sp, #16]
 3142 01c8 2146     		mov	r1, r4
 3143 01ca 5246     		mov	r2, r10
 3144 01cc 5B46     		mov	r3, fp
 3145 01ce 1830     		adds	r0, r0, #24
 3146 01d0 CDE90667 		strd	r6, [sp, #24]
 3147 01d4 FFF7FEFF 		bl	_ZN6uavcan20GenericPublisherBaseC2ERNS_5INodeENS_17MonotonicDurationES3_
 3148 01d8 42F21C12 		movw	r2, #8476
 3149 01dc DDF80CC0 		ldr	ip, [sp, #12]
 3150 01e0 04F50450 		add	r0, r4, #8448
 3151 01e4 04F50453 		add	r3, r4, #8448
 3152 01e8 2430     		adds	r0, r0, #36
 3153 01ea 1D60     		str	r5, [r3]
 3154 01ec 5D60     		str	r5, [r3, #4]
 3155 01ee 9D60     		str	r5, [r3, #8]
 3156 01f0 0146     		mov	r1, r0
 3157 01f2 CCF87450 		str	r5, [ip, #116]
 3158 01f6 CCF87850 		str	r5, [ip, #120]
 3159 01fa A450     		str	r4, [r4, r2]
 3160 01fc 1D62     		str	r5, [r3, #32]
 3161 01fe 42F21813 		movw	r3, #8472
 3162 0202 224A     		ldr	r2, .L372+36
 3163 0204 04F5045C 		add	ip, r4, #8448
 3164 0208 E250     		str	r2, [r4, r3]
 3165 020a 0CF1180C 		add	ip, ip, #24
 3166 020e 41F82C5F 		str	r5, [r1, #44]!
 3167 0212 5246     		mov	r2, r10
 3168 0214 CDF80CC0 		str	ip, [sp, #12]
 3169 0218 0293     		str	r3, [sp, #8]
 3170 021a 8DF81850 		strb	r5, [sp, #24]
 3171 021e FFF7FEFF 		bl	_ZN6uavcan4fillIPhhEEvT_S2_RKT0_
 3172 0222 029B     		ldr	r3, [sp, #8]
 3173 0224 1A4A     		ldr	r2, .L372+40
 3174 0226 04F50550 		add	r0, r4, #8512
 3175 022a E250     		str	r2, [r4, r3]
 3176 022c 144A     		ldr	r2, .L372+24
 3177 022e 0023     		movs	r3, #0
 3178 0230 CDE90423 		strd	r2, [sp, #16]
 3179 0234 2146     		mov	r1, r4
 3180 0236 5B46     		mov	r3, fp
 3181 0238 5246     		mov	r2, r10
 3182 023a 1830     		adds	r0, r0, #24
 3183 023c CDE90667 		strd	r6, [sp, #24]
 3184 0240 FFF7FEFF 		bl	_ZN6uavcan20GenericPublisherBaseC2ERNS_5INodeENS_17MonotonicDurationES3_
 3185 0244 DDF80CC0 		ldr	ip, [sp, #12]
 3186 0248 04F50653 		add	r3, r4, #8576
 3187 024c 1D60     		str	r5, [r3]
 3188 024e 5D60     		str	r5, [r3, #4]
 3189 0250 9D60     		str	r5, [r3, #8]
 3190 0252 2046     		mov	r0, r4
 3191 0254 CCF87450 		str	r5, [ip, #116]
ARM GAS  /tmp/ccFEREDd.s 			page 57


 3192 0258 C3E90489 		strd	r8, [r3, #16]
 3193 025c 42F29813 		movw	r3, #8600
 3194 0260 E554     		strb	r5, [r4, r3]
 3195 0262 09B0     		add	sp, sp, #36
 3196              		@ sp needed
 3197 0264 BDE8F08F 		pop	{r4, r5, r6, r7, r8, r9, r10, fp, pc}
 3198              	.L373:
 3199              		.align	2
 3200              	.L372:
 3201 0268 08000000 		.word	_ZTVN6uavcan4NodeILj7168EEE+8
 3202 026c 08000000 		.word	_ZTVN6uavcan13PoolAllocatorILj7168ELh56EcEE+8
 3203 0270 00000000 		.word	_ZN6uavcan6NodeID9BroadcastE
 3204 0274 40420F00 		.word	1000000
 3205 0278 08000000 		.word	_ZTVN6uavcan17GenericSubscriberINS_8protocol16GetDataTypeInfo_ENS2_8Request_ILi0EEENS_16Tran
 3206 027c 08000000 		.word	_ZTVN6uavcan13ServiceServerINS_8protocol16GetDataTypeInfo_ENS_12MethodBinderIPNS_20DataTypeI
 3207 0280 00879303 		.word	60000000
 3208 0284 08000000 		.word	_ZTVN6uavcan17GenericSubscriberINS_8protocol12RestartNode_ENS2_8Request_ILi0EEENS_16Transfer
 3209 0288 08000000 		.word	_ZTVN6uavcan13ServiceServerINS_8protocol12RestartNode_ENS_12MethodBinderIPKNS_20RestartReque
 3210 028c 08000000 		.word	_ZTVN6uavcan17GenericSubscriberINS_8protocol18GetTransportStats_ENS2_8Request_ILi0EEENS_16Tr
 3211 0290 08000000 		.word	_ZTVN6uavcan13ServiceServerINS_8protocol18GetTransportStats_ENS_12MethodBinderIPKNS_22Transp
 3212              		.size	_ZN6uavcan4NodeILj7168EEC2ERNS_10ICanDriverERNS_12ISystemClockE, .-_ZN6uavcan4NodeILj7168EEC
 3213              		.weak	_ZN6uavcan4NodeILj7168EEC1ERNS_10ICanDriverERNS_12ISystemClockE
 3214              		.thumb_set _ZN6uavcan4NodeILj7168EEC1ERNS_10ICanDriverERNS_12ISystemClockE,_ZN6uavcan4NodeILj7168E
 3215              		.section	.text._ZN4node7getNodeEv,"ax",%progbits
 3216              		.align	1
 3217              		.global	_ZN4node7getNodeEv
 3218              		.thumb
 3219              		.thumb_func
 3220              		.type	_ZN4node7getNodeEv, %function
 3221              	_ZN4node7getNodeEv:
 3222              		@ args = 0, pretend = 0, frame = 0
 3223              		@ frame_needed = 0, uses_anonymous_args = 0
 3224 0000 10B5     		push	{r4, lr}
 3225 0002 0A4C     		ldr	r4, .L376
 3226 0004 2368     		ldr	r3, [r4]
 3227 0006 DB07     		lsls	r3, r3, #31
 3228 0008 0DD4     		bmi	.L375
 3229 000a FFF7FEFF 		bl	_ZN12uavcan_stm3211SystemClock8instanceEv
 3230 000e 0849     		ldr	r1, .L376+4
 3231 0010 0246     		mov	r2, r0
 3232 0012 0848     		ldr	r0, .L376+8
 3233 0014 FFF7FEFF 		bl	_ZN6uavcan4NodeILj7168EEC1ERNS_10ICanDriverERNS_12ISystemClockE
 3234 0018 0123     		movs	r3, #1
 3235 001a 0648     		ldr	r0, .L376+8
 3236 001c 0649     		ldr	r1, .L376+12
 3237 001e 074A     		ldr	r2, .L376+16
 3238 0020 2360     		str	r3, [r4]
 3239 0022 FFF7FEFF 		bl	__aeabi_atexit
 3240              	.L375:
 3241 0026 0348     		ldr	r0, .L376+8
 3242 0028 10BD     		pop	{r4, pc}
 3243              	.L377:
 3244 002a 00BF     		.align	2
 3245              	.L376:
 3246 002c 00000000 		.word	.LANCHOR5
 3247 0030 00080000 		.word	.LANCHOR7+2048
 3248 0034 00000000 		.word	.LANCHOR6
ARM GAS  /tmp/ccFEREDd.s 			page 58


 3249 0038 00000000 		.word	_ZN6uavcan4NodeILj7168EED1Ev
 3250 003c 00000000 		.word	__dso_handle
 3251              		.size	_ZN4node7getNodeEv, .-_ZN4node7getNodeEv
 3252              		.section	.text._ZN4node12_GLOBAL__N_116getTimeSyncSlaveEv,"ax",%progbits
 3253              		.align	1
 3254              		.thumb
 3255              		.thumb_func
 3256              		.type	_ZN4node12_GLOBAL__N_116getTimeSyncSlaveEv, %function
 3257              	_ZN4node12_GLOBAL__N_116getTimeSyncSlaveEv:
 3258              		@ args = 0, pretend = 0, frame = 8
 3259              		@ frame_needed = 0, uses_anonymous_args = 0
 3260 0000 73B5     		push	{r0, r1, r4, r5, r6, lr}
 3261 0002 1C4E     		ldr	r6, .L380
 3262 0004 3568     		ldr	r5, [r6]
 3263 0006 15F00105 		ands	r5, r5, #1
 3264 000a 2FD1     		bne	.L379
 3265 000c FFF7FEFF 		bl	_ZN4node7getNodeEv
 3266 0010 194C     		ldr	r4, .L380+4
 3267 0012 1A4B     		ldr	r3, .L380+8
 3268 0014 02AA     		add	r2, sp, #8
 3269 0016 6060     		str	r0, [r4, #4]
 3270 0018 02F8015D 		strb	r5, [r2, #-1]!
 3271 001c 04F10C00 		add	r0, r4, #12
 3272 0020 04F13801 		add	r1, r4, #56
 3273 0024 2360     		str	r3, [r4]
 3274 0026 A560     		str	r5, [r4, #8]
 3275 0028 A563     		str	r5, [r4, #56]
 3276 002a FFF7FEFF 		bl	_ZN6uavcan4fillIPhhEEvT_S2_RKT0_
 3277 002e 144B     		ldr	r3, .L380+12
 3278 0030 0022     		movs	r2, #0
 3279 0032 2360     		str	r3, [r4]
 3280 0034 0023     		movs	r3, #0
 3281 0036 C4E91223 		strd	r2, [r4, #72]
 3282 003a C4E91423 		strd	r2, [r4, #80]
 3283 003e C4E91623 		strd	r2, [r4, #88]
 3284 0042 FF23     		movs	r3, #255
 3285 0044 84F86130 		strb	r3, [r4, #97]
 3286 0048 84F86330 		strb	r3, [r4, #99]
 3287 004c 2046     		mov	r0, r4
 3288 004e 0123     		movs	r3, #1
 3289 0050 0C49     		ldr	r1, .L380+16
 3290 0052 0D4A     		ldr	r2, .L380+20
 3291 0054 E563     		str	r5, [r4, #60]
 3292 0056 2564     		str	r5, [r4, #64]
 3293 0058 6564     		str	r5, [r4, #68]
 3294 005a 84F86050 		strb	r5, [r4, #96]
 3295 005e 84F86250 		strb	r5, [r4, #98]
 3296 0062 84F86450 		strb	r5, [r4, #100]
 3297 0066 3360     		str	r3, [r6]
 3298 0068 FFF7FEFF 		bl	__aeabi_atexit
 3299              	.L379:
 3300 006c 0248     		ldr	r0, .L380+4
 3301 006e 02B0     		add	sp, sp, #8
 3302              		@ sp needed
 3303 0070 70BD     		pop	{r4, r5, r6, pc}
 3304              	.L381:
 3305 0072 00BF     		.align	2
ARM GAS  /tmp/ccFEREDd.s 			page 59


 3306              	.L380:
 3307 0074 00000000 		.word	.LANCHOR8
 3308 0078 00000000 		.word	.LANCHOR9
 3309 007c 08000000 		.word	_ZTVN6uavcan17GenericSubscriberINS_8protocol15GlobalTimeSync_ILi0EEES3_NS_16TransferListener
 3310 0080 08000000 		.word	_ZTVN6uavcan10SubscriberINS_8protocol15GlobalTimeSync_ILi0EEENS_12MethodBinderIPNS_19GlobalT
 3311 0084 00000000 		.word	_ZN6uavcan19GlobalTimeSyncSlaveD1Ev
 3312 0088 00000000 		.word	__dso_handle
 3313              		.size	_ZN4node12_GLOBAL__N_116getTimeSyncSlaveEv, .-_ZN4node12_GLOBAL__N_116getTimeSyncSlaveEv
 3314              		.section	.text._ZN4node12_GLOBAL__N_123isLocalUtcSourceEnabledEv,"ax",%progbits
 3315              		.align	1
 3316              		.thumb
 3317              		.thumb_func
 3318              		.type	_ZN4node12_GLOBAL__N_123isLocalUtcSourceEnabledEv, %function
 3319              	_ZN4node12_GLOBAL__N_123isLocalUtcSourceEnabledEv:
 3320              		@ args = 0, pretend = 0, frame = 0
 3321              		@ frame_needed = 0, uses_anonymous_args = 0
 3322 0000 38B5     		push	{r3, r4, r5, lr}
 3323 0002 FFF7FEFF 		bl	_ZN4node12_GLOBAL__N_116getTimeSyncSlaveEv
 3324 0006 FFF7FEFF 		bl	_ZNK6uavcan19GlobalTimeSyncSlave8isActiveEv
 3325 000a A0B1     		cbz	r0, .L385
 3326 000c FFF7FEFF 		bl	_ZN4node7getNodeEv
 3327 0010 FFF7FEFF 		bl	_ZNK6uavcan5INode9getNodeIDEv
 3328 0014 0446     		mov	r4, r0
 3329 0016 FFF7FEFF 		bl	_ZN4node12_GLOBAL__N_116getTimeSyncSlaveEv
 3330 001a 0546     		mov	r5, r0
 3331 001c FFF7FEFF 		bl	_ZNK6uavcan19GlobalTimeSyncSlave8isActiveEv
 3332 0020 10B1     		cbz	r0, .L386
 3333 0022 95F86100 		ldrb	r0, [r5, #97]	@ zero_extendqisi2
 3334 0026 00E0     		b	.L384
 3335              	.L386:
 3336 0028 FF20     		movs	r0, #255
 3337              	.L384:
 3338 002a E4B2     		uxtb	r4, r4
 3339 002c 8442     		cmp	r4, r0
 3340 002e 2CBF     		ite	cs
 3341 0030 0020     		movcs	r0, #0
 3342 0032 0120     		movcc	r0, #1
 3343 0034 38BD     		pop	{r3, r4, r5, pc}
 3344              	.L385:
 3345 0036 0120     		movs	r0, #1
 3346 0038 38BD     		pop	{r3, r4, r5, pc}
 3347              		.size	_ZN4node12_GLOBAL__N_123isLocalUtcSourceEnabledEv, .-_ZN4node12_GLOBAL__N_123isLocalUtcSourc
 3348              		.section	.text._ZN4node28adjustUtcTimeFromLocalSourceERKN6uavcan11UtcDurationE,"ax",%progbits
 3349              		.align	1
 3350              		.global	_ZN4node28adjustUtcTimeFromLocalSourceERKN6uavcan11UtcDurationE
 3351              		.thumb
 3352              		.thumb_func
 3353              		.type	_ZN4node28adjustUtcTimeFromLocalSourceERKN6uavcan11UtcDurationE, %function
 3354              	_ZN4node28adjustUtcTimeFromLocalSourceERKN6uavcan11UtcDurationE:
 3355              		@ args = 0, pretend = 0, frame = 16
 3356              		@ frame_needed = 0, uses_anonymous_args = 0
 3357 0000 30B5     		push	{r4, r5, lr}
 3358 0002 85B0     		sub	sp, sp, #20
 3359 0004 0546     		mov	r5, r0
 3360 0006 01A8     		add	r0, sp, #4
 3361 0008 FFF7FEFF 		bl	_ZN4node4LockC2Ev
 3362 000c 0D4B     		ldr	r3, .L395
ARM GAS  /tmp/ccFEREDd.s 			page 60


 3363 000e 1B78     		ldrb	r3, [r3]	@ zero_extendqisi2
 3364 0010 13B1     		cbz	r3, .L390
 3365 0012 FFF7FEFF 		bl	_ZN4node12_GLOBAL__N_123isLocalUtcSourceEnabledEv
 3366 0016 20B9     		cbnz	r0, .L389
 3367              	.L390:
 3368 0018 01A8     		add	r0, sp, #4
 3369 001a FFF7FEFF 		bl	_ZN12uavcan_stm3211MutexLockerD2Ev
 3370 001e 05B0     		add	sp, sp, #20
 3371              		@ sp needed
 3372 0020 30BD     		pop	{r4, r5, pc}
 3373              	.L389:
 3374 0022 FFF7FEFF 		bl	_ZN4node12_GLOBAL__N_116getTimeSyncSlaveEv
 3375 0026 0124     		movs	r4, #1
 3376 0028 02AB     		add	r3, sp, #8
 3377 002a 80F86440 		strb	r4, [r0, #100]
 3378 002e 95E80300 		ldmia	r5, {r0, r1}
 3379 0032 83E80300 		stmia	r3, {r0, r1}
 3380 0036 1846     		mov	r0, r3
 3381 0038 FFF7FEFF 		bl	_ZN12uavcan_stm325clock9adjustUtcEN6uavcan11UtcDurationE
 3382 003c 024B     		ldr	r3, .L395+4
 3383 003e 1C70     		strb	r4, [r3]
 3384 0040 EAE7     		b	.L390
 3385              	.L396:
 3386 0042 00BF     		.align	2
 3387              	.L395:
 3388 0044 00000000 		.word	.LANCHOR10
 3389 0048 00000000 		.word	.LANCHOR11
 3390              		.size	_ZN4node28adjustUtcTimeFromLocalSourceERKN6uavcan11UtcDurationE, .-_ZN4node28adjustUtcTimeFr
 3391              		.section	.text._ZN4node12_GLOBAL__N_132handleBeginFirmwareUpdateRequestERKN6uavcan21ReceivedDataSt
 3392              		.align	1
 3393              		.thumb
 3394              		.thumb_func
 3395              		.type	_ZN4node12_GLOBAL__N_132handleBeginFirmwareUpdateRequestERKN6uavcan21ReceivedDataStructureIN
 3396              	_ZN4node12_GLOBAL__N_132handleBeginFirmwareUpdateRequestERKN6uavcan21ReceivedDataStructureINS1_8pro
 3397              		@ args = 0, pretend = 0, frame = 0
 3398              		@ frame_needed = 0, uses_anonymous_args = 0
 3399 0000 38B5     		push	{r3, r4, r5, lr}
 3400 0002 D0F8CC30 		ldr	r3, [r0, #204]
 3401 0006 0D46     		mov	r5, r1
 3402 0008 0BB1     		cbz	r3, .L401
 3403 000a D97E     		ldrb	r1, [r3, #27]	@ zero_extendqisi2
 3404 000c 00E0     		b	.L398
 3405              	.L401:
 3406 000e FF21     		movs	r1, #255
 3407              	.L398:
 3408 0010 0B4C     		ldr	r4, .L402
 3409 0012 0C48     		ldr	r0, .L402+4
 3410 0014 FFF7FEFF 		bl	lowsyslog
 3411 0018 2378     		ldrb	r3, [r4]	@ zero_extendqisi2
 3412 001a 13B1     		cbz	r3, .L399
 3413 001c 0223     		movs	r3, #2
 3414 001e 2B70     		strb	r3, [r5]
 3415 0020 38BD     		pop	{r3, r4, r5, pc}
 3416              	.L399:
 3417 0022 094B     		ldr	r3, .L402+8
 3418 0024 1D68     		ldr	r5, [r3]
 3419 0026 FFF7FEFF 		bl	_ZN4node7getNodeEv
ARM GAS  /tmp/ccFEREDd.s 			page 61


 3420 002a FFF7FEFF 		bl	_ZNK6uavcan5INode9getNodeIDEv
 3421 002e 0146     		mov	r1, r0
 3422 0030 2846     		mov	r0, r5
 3423 0032 FFF7FEFF 		bl	_ZN20bootloader_interface26passParametersToBootloaderEmN6uavcan6NodeIDE
 3424 0036 054A     		ldr	r2, .L402+12
 3425 0038 0123     		movs	r3, #1
 3426 003a 1370     		strb	r3, [r2]
 3427 003c 2370     		strb	r3, [r4]
 3428 003e 38BD     		pop	{r3, r4, r5, pc}
 3429              	.L403:
 3430              		.align	2
 3431              	.L402:
 3432 0040 00000000 		.word	.LANCHOR12
 3433 0044 6F000000 		.word	.LC5
 3434 0048 00000000 		.word	.LANCHOR13
 3435 004c 00000000 		.word	.LANCHOR0
 3436              		.size	_ZN4node12_GLOBAL__N_132handleBeginFirmwareUpdateRequestERKN6uavcan21ReceivedDataStructureIN
 3437              		.section	.text._ZN4node12_GLOBAL__N_117getTimeSyncMasterEv.part.122,"ax",%progbits
 3438              		.align	1
 3439              		.thumb
 3440              		.thumb_func
 3441              		.type	_ZN4node12_GLOBAL__N_117getTimeSyncMasterEv.part.122, %function
 3442              	_ZN4node12_GLOBAL__N_117getTimeSyncMasterEv.part.122:
 3443              		@ args = 0, pretend = 0, frame = 8
 3444              		@ frame_needed = 0, uses_anonymous_args = 0
 3445 0000 F7B5     		push	{r0, r1, r2, r4, r5, r6, r7, lr}
 3446 0002 FFF7FEFF 		bl	_ZN4node7getNodeEv
 3447 0006 0546     		mov	r5, r0
 3448 0008 FFF7FEFF 		bl	_ZN6uavcan5INode13getDispatcherEv
 3449 000c 164B     		ldr	r3, .L407
 3450 000e 174A     		ldr	r2, .L407+4
 3451 0010 DD60     		str	r5, [r3, #12]
 3452 0012 1D46     		mov	r5, r3
 3453 0014 0024     		movs	r4, #0
 3454 0016 5C60     		str	r4, [r3, #4]
 3455 0018 9860     		str	r0, [r3, #8]
 3456 001a 1A60     		str	r2, [r3]
 3457              	.L405:
 3458 001c 2B19     		adds	r3, r5, r4
 3459 001e 0027     		movs	r7, #0
 3460 0020 02AA     		add	r2, sp, #8
 3461 0022 04F11000 		add	r0, r4, #16
 3462 0026 04F15001 		add	r1, r4, #80
 3463 002a 1F65     		str	r7, [r3, #80]
 3464 002c 02F8017D 		strb	r7, [r2, #-1]!
 3465 0030 2844     		add	r0, r0, r5
 3466 0032 2944     		add	r1, r1, r5
 3467 0034 4834     		adds	r4, r4, #72
 3468 0036 FFF7FEFF 		bl	_ZN6uavcan4fillIPhhEEvT_S2_RKT0_
 3469 003a D82C     		cmp	r4, #216
 3470 003c 0A4E     		ldr	r6, .L407
 3471 003e EDD1     		bne	.L405
 3472 0040 0022     		movs	r2, #0
 3473 0042 0023     		movs	r3, #0
 3474 0044 C6E93A23 		strd	r2, [r6, #232]
 3475 0048 4FF0FF33 		mov	r3, #-1
 3476 004c C6F8F030 		str	r3, [r6, #240]
ARM GAS  /tmp/ccFEREDd.s 			page 62


 3477 0050 074B     		ldr	r3, .L407+8
 3478 0052 0122     		movs	r2, #1
 3479 0054 1A60     		str	r2, [r3]
 3480 0056 3046     		mov	r0, r6
 3481 0058 0649     		ldr	r1, .L407+12
 3482 005a 074A     		ldr	r2, .L407+16
 3483 005c 86F8F470 		strb	r7, [r6, #244]
 3484 0060 FFF7FEFF 		bl	__aeabi_atexit
 3485 0064 03B0     		add	sp, sp, #12
 3486              		@ sp needed
 3487 0066 F0BD     		pop	{r4, r5, r6, r7, pc}
 3488              	.L408:
 3489              		.align	2
 3490              	.L407:
 3491 0068 00000000 		.word	.LANCHOR14
 3492 006c 08000000 		.word	_ZTVN6uavcan20GlobalTimeSyncMasterE+8
 3493 0070 00000000 		.word	.LANCHOR15
 3494 0074 00000000 		.word	_ZN6uavcan20GlobalTimeSyncMasterD1Ev
 3495 0078 00000000 		.word	__dso_handle
 3496              		.size	_ZN4node12_GLOBAL__N_117getTimeSyncMasterEv.part.122, .-_ZN4node12_GLOBAL__N_117getTimeSyncM
 3497              		.section	.text._ZNK4node12_GLOBAL__N_15._3458spinOnceEv,"ax",%progbits
 3498              		.align	1
 3499              		.thumb
 3500              		.thumb_func
 3501              		.type	_ZNK4node12_GLOBAL__N_15._3458spinOnceEv, %function
 3502              	_ZNK4node12_GLOBAL__N_15._3458spinOnceEv:
 3503              		@ args = 0, pretend = 0, frame = 24
 3504              		@ frame_needed = 0, uses_anonymous_args = 0
 3505 0000 2DE9F041 		push	{r4, r5, r6, r7, r8, lr}
 3506 0004 86B0     		sub	sp, sp, #24
 3507 0006 0546     		mov	r5, r0
 3508 0008 FFF7FEFF 		bl	_ZN4node7getNodeEv
 3509 000c 344B     		ldr	r3, .L418
 3510 000e 00F5E950 		add	r0, r0, #7456
 3511 0012 DE78     		ldrb	r6, [r3, #3]	@ zero_extendqisi2
 3512 0014 1979     		ldrb	r1, [r3, #4]	@ zero_extendqisi2
 3513 0016 DC1C     		adds	r4, r3, #3
 3514 0018 1A1D     		adds	r2, r3, #4
 3515 001a 8E42     		cmp	r6, r1
 3516 001c 2CBF     		ite	cs
 3517 001e 2146     		movcs	r1, r4
 3518 0020 1146     		movcc	r1, r2
 3519 0022 13F8052F 		ldrb	r2, [r3, #5]!	@ zero_extendqisi2
 3520 0026 0C78     		ldrb	r4, [r1]	@ zero_extendqisi2
 3521 0028 9442     		cmp	r4, r2
 3522 002a 38BF     		it	cc
 3523 002c 1946     		movcc	r1, r3
 3524 002e 0978     		ldrb	r1, [r1]	@ zero_extendqisi2
 3525 0030 FFF7FEFF 		bl	_ZN6uavcan18NodeStatusProvider9setHealthEh
 3526 0034 FFF7FEFF 		bl	_ZN4node7getNodeEv
 3527 0038 42F29813 		movw	r3, #8600
 3528 003c C35C     		ldrb	r3, [r0, r3]	@ zero_extendqisi2
 3529 003e 0746     		mov	r7, r0
 3530 0040 02AC     		add	r4, sp, #8
 3531 0042 CBB1     		cbz	r3, .L417
 3532 0044 4FF4FA72 		mov	r2, #500
 3533 0048 06AE     		add	r6, sp, #24
ARM GAS  /tmp/ccFEREDd.s 			page 63


 3534 004a 0023     		movs	r3, #0
 3535 004c 66E90623 		strd	r2, [r6, #-24]!
 3536 0050 0368     		ldr	r3, [r0]
 3537 0052 DB68     		ldr	r3, [r3, #12]
 3538 0054 9847     		blx	r3
 3539 0056 8046     		mov	r8, r0
 3540 0058 3946     		mov	r1, r7
 3541 005a 2046     		mov	r0, r4
 3542 005c FFF7FEFF 		bl	_ZNK6uavcan5INode16getMonotonicTimeEv
 3543 0060 04A8     		add	r0, sp, #16
 3544 0062 2146     		mov	r1, r4
 3545 0064 3246     		mov	r2, r6
 3546 0066 FFF7FEFF 		bl	_ZNK6uavcan8TimeBaseINS_13MonotonicTimeENS_17MonotonicDurationEEplERKS2_
 3547 006a 04A9     		add	r1, sp, #16
 3548 006c 4046     		mov	r0, r8
 3549 006e FFF7FEFF 		bl	_ZN6uavcan9Scheduler4spinENS_13MonotonicTimeE
 3550 0072 011E     		subs	r1, r0, #0
 3551 0074 05DA     		bge	.L413
 3552 0076 01E0     		b	.L412
 3553              	.L417:
 3554 0078 6FF00701 		mvn	r1, #7
 3555              	.L412:
 3556 007c 1948     		ldr	r0, .L418+4
 3557 007e FFF7FEFF 		bl	lowsyslog
 3558              	.L413:
 3559 0082 2046     		mov	r0, r4
 3560 0084 05F64865 		addw	r5, r5, #3656
 3561 0088 FFF7FEFF 		bl	_ZN12uavcan_stm325clock12getMonotonicEv
 3562 008c 04A8     		add	r0, sp, #16
 3563 008e 2146     		mov	r1, r4
 3564 0090 2A46     		mov	r2, r5
 3565 0092 FFF7FEFF 		bl	_ZNK6uavcan8TimeBaseINS_13MonotonicTimeENS_17MonotonicDurationEEmiERKS1_
 3566 0096 DDE90423 		ldrd	r2, [sp, #16]
 3567 009a 46F2A710 		movw	r0, #24999
 3568 009e 0021     		movs	r1, #0
 3569 00a0 9042     		cmp	r0, r2
 3570 00a2 71EB0303 		sbcs	r3, r1, r3
 3571 00a6 17DA     		bge	.L409
 3572 00a8 94E80300 		ldmia	r4, {r0, r1}
 3573 00ac 85E80300 		stmia	r5, {r0, r1}
 3574 00b0 0021     		movs	r1, #0
 3575 00b2 0D48     		ldr	r0, .L418+8
 3576 00b4 FFF7FEFF 		bl	_ZN12uavcan_stm329CanDriver8getIfaceEh
 3577 00b8 FFF7FEFF 		bl	_ZN12uavcan_stm328CanIface11hadActivityEv
 3578 00bc 0146     		mov	r1, r0
 3579 00be 0020     		movs	r0, #0
 3580 00c0 FFF7FEFF 		bl	_ZN5board9setCANLedEjb
 3581 00c4 0121     		movs	r1, #1
 3582 00c6 0848     		ldr	r0, .L418+8
 3583 00c8 FFF7FEFF 		bl	_ZN12uavcan_stm329CanDriver8getIfaceEh
 3584 00cc FFF7FEFF 		bl	_ZN12uavcan_stm328CanIface11hadActivityEv
 3585 00d0 0146     		mov	r1, r0
 3586 00d2 0120     		movs	r0, #1
 3587 00d4 FFF7FEFF 		bl	_ZN5board9setCANLedEjb
 3588              	.L409:
 3589 00d8 06B0     		add	sp, sp, #24
 3590              		@ sp needed
ARM GAS  /tmp/ccFEREDd.s 			page 64


 3591 00da BDE8F081 		pop	{r4, r5, r6, r7, r8, pc}
 3592              	.L419:
 3593 00de 00BF     		.align	2
 3594              	.L418:
 3595 00e0 00000000 		.word	.LANCHOR3
 3596 00e4 94000000 		.word	.LC6
 3597 00e8 00080000 		.word	.LANCHOR7+2048
 3598              		.size	_ZNK4node12_GLOBAL__N_15._3458spinOnceEv, .-_ZNK4node12_GLOBAL__N_15._3458spinOnceEv
 3599              		.section	.text._ZN6uavcan22GlobalDataTypeRegistry16registerDataTypeINS_8protocol12GetNodeInfo_EEEN
 3600              		.align	1
 3601              		.weak	_ZN6uavcan22GlobalDataTypeRegistry16registerDataTypeINS_8protocol12GetNodeInfo_EEENS0_18Regi
 3602              		.thumb
 3603              		.thumb_func
 3604              		.type	_ZN6uavcan22GlobalDataTypeRegistry16registerDataTypeINS_8protocol12GetNodeInfo_EEENS0_18Regi
 3605              	_ZN6uavcan22GlobalDataTypeRegistry16registerDataTypeINS_8protocol12GetNodeInfo_EEENS0_18Registratio
 3606              		@ args = 0, pretend = 0, frame = 40
 3607              		@ frame_needed = 0, uses_anonymous_args = 0
 3608 0000 F0B5     		push	{r4, r5, r6, r7, lr}
 3609 0002 037A     		ldrb	r3, [r0, #8]	@ zero_extendqisi2
 3610 0004 8BB0     		sub	sp, sp, #44
 3611 0006 0646     		mov	r6, r0
 3612 0008 0F46     		mov	r7, r1
 3613 000a 002B     		cmp	r3, #0
 3614 000c 4AD1     		bne	.L423
 3615 000e 304C     		ldr	r4, .L426+32
 3616 0010 2368     		ldr	r3, [r4]
 3617 0012 DB07     		lsls	r3, r3, #31
 3618 0014 09D4     		bmi	.L422
 3619 0016 2F48     		ldr	r0, .L426+36
 3620 0018 FFF7FEFF 		bl	_ZN6uavcan22GlobalDataTypeRegistry5EntryC1Ev
 3621 001c 0123     		movs	r3, #1
 3622 001e 2D48     		ldr	r0, .L426+36
 3623 0020 2D49     		ldr	r1, .L426+40
 3624 0022 2E4A     		ldr	r2, .L426+44
 3625 0024 2360     		str	r3, [r4]
 3626 0026 FFF7FEFF 		bl	__aeabi_atexit
 3627              	.L422:
 3628 002a 3046     		mov	r0, r6
 3629 002c 2949     		ldr	r1, .L426+36
 3630 002e FFF7FEFF 		bl	_ZN6uavcan22GlobalDataTypeRegistry6removeEPNS0_5EntryE
 3631 0032 0446     		mov	r4, r0
 3632 0034 0028     		cmp	r0, #0
 3633 0036 36D1     		bne	.L421
 3634 0038 1DA3     		adr	r3, .L426
 3635 003a D3E90023 		ldrd	r2, [r3]
 3636 003e 0AAD     		add	r5, sp, #40
 3637 0040 65E90A23 		strd	r2, [r5, #-40]!
 3638 0044 1CA3     		adr	r3, .L426+8
 3639 0046 D3E90023 		ldrd	r2, [r3]
 3640 004a 2846     		mov	r0, r5
 3641 004c FFF7FEFF 		bl	_ZN6uavcan17DataTypeSignature6extendES0_
 3642 0050 1BA3     		adr	r3, .L426+16
 3643 0052 D3E90023 		ldrd	r2, [r3]
 3644 0056 2846     		mov	r0, r5
 3645 0058 FFF7FEFF 		bl	_ZN6uavcan17DataTypeSignature6extendES0_
 3646 005c 1AA3     		adr	r3, .L426+24
 3647 005e D3E90023 		ldrd	r2, [r3]
ARM GAS  /tmp/ccFEREDd.s 			page 65


 3648 0062 2846     		mov	r0, r5
 3649 0064 FFF7FEFF 		bl	_ZN6uavcan17DataTypeSignature6extendES0_
 3650 0068 DDE90023 		ldrd	r2, [sp]
 3651 006c CDE90423 		strd	r2, [sp, #16]
 3652 0070 1B4B     		ldr	r3, .L426+48
 3653 0072 8DF81C40 		strb	r4, [sp, #28]
 3654 0076 0294     		str	r4, [sp, #8]
 3655 0078 164C     		ldr	r4, .L426+36
 3656 007a 0693     		str	r3, [sp, #24]
 3657 007c 0897     		str	r7, [sp, #32]
 3658 007e 02AD     		add	r5, sp, #8
 3659 0080 0FCD     		ldmia	r5!, {r0, r1, r2, r3}
 3660 0082 0FC4     		stmia	r4!, {r0, r1, r2, r3}
 3661 0084 95E80F00 		ldmia	r5, {r0, r1, r2, r3}
 3662 0088 84E80F00 		stmia	r4, {r0, r1, r2, r3}
 3663 008c 3046     		mov	r0, r6
 3664 008e A4F11001 		sub	r1, r4, #16
 3665 0092 FFF7FEFF 		bl	_ZN6uavcan22GlobalDataTypeRegistry6removeEPNS0_5EntryE
 3666 0096 30B9     		cbnz	r0, .L421
 3667 0098 3046     		mov	r0, r6
 3668 009a A4F11001 		sub	r1, r4, #16
 3669 009e FFF7FEFF 		bl	_ZN6uavcan22GlobalDataTypeRegistry10registImplEPNS0_5EntryE
 3670 00a2 00E0     		b	.L421
 3671              	.L423:
 3672 00a4 0320     		movs	r0, #3
 3673              	.L421:
 3674 00a6 0BB0     		add	sp, sp, #44
 3675              		@ sp needed
 3676 00a8 F0BD     		pop	{r4, r5, r6, r7, pc}
 3677              	.L427:
 3678 00aa 00BFAFF3 		.align	3
 3678      0080
 3679              	.L426:
 3680 00b0 85E65350 		.word	1347675781
 3681 00b4 99C80DA8 		.word	-1475491687
 3682 00b8 F1C6A7C1 		.word	-1045969167
 3683 00bc D068080F 		.word	252209360
 3684 00c0 A1FE2765 		.word	1697119905
 3685 00c4 37FD46DD 		.word	-582550217
 3686 00c8 C4A0F433 		.word	871669956
 3687 00cc C9C4D50A 		.word	181781705
 3688 00d0 00000000 		.word	_ZGVZN6uavcan22GlobalDataTypeRegistry16registerDataTypeINS_8protocol12GetNodeInfo_EEENS0_18R
 3689 00d4 00000000 		.word	_ZZN6uavcan22GlobalDataTypeRegistry16registerDataTypeINS_8protocol12GetNodeInfo_EEENS0_18Reg
 3690 00d8 00000000 		.word	_ZN6uavcan22GlobalDataTypeRegistry5EntryD1Ev
 3691 00dc 00000000 		.word	__dso_handle
 3692 00e0 AD000000 		.word	.LC7
 3693              		.size	_ZN6uavcan22GlobalDataTypeRegistry16registerDataTypeINS_8protocol12GetNodeInfo_EEENS0_18Regi
 3694              		.section	.text._ZN6uavcan17GenericSubscriberINS_8protocol12GetNodeInfo_ENS2_8Request_ILi0EEENS_16T
 3695              		.align	1
 3696              		.weak	_ZN6uavcan17GenericSubscriberINS_8protocol12GetNodeInfo_ENS2_8Request_ILi0EEENS_16TransferLi
 3697              		.thumb
 3698              		.thumb_func
 3699              		.type	_ZN6uavcan17GenericSubscriberINS_8protocol12GetNodeInfo_ENS2_8Request_ILi0EEENS_16TransferLi
 3700              	_ZN6uavcan17GenericSubscriberINS_8protocol12GetNodeInfo_ENS2_8Request_ILi0EEENS_16TransferListenerE
 3701              		@ args = 0, pretend = 0, frame = 8
 3702              		@ frame_needed = 0, uses_anonymous_args = 0
 3703 0000 13B5     		push	{r0, r1, r4, lr}
ARM GAS  /tmp/ccFEREDd.s 			page 66


 3704 0002 0446     		mov	r4, r0
 3705 0004 0C4B     		ldr	r3, .L433
 3706 0006 40F8043B 		str	r3, [r0], #4
 3707 000a A16B     		ldr	r1, [r4, #56]
 3708 000c FFF7FEFF 		bl	_ZN6uavcan21GenericSubscriberBase4stopEPNS_16TransferListenerE
 3709 0010 A06B     		ldr	r0, [r4, #56]
 3710 0012 10B1     		cbz	r0, .L429
 3711 0014 0368     		ldr	r3, [r0]
 3712 0016 5B68     		ldr	r3, [r3, #4]
 3713 0018 9847     		blx	r3
 3714              	.L429:
 3715 001a 0023     		movs	r3, #0
 3716 001c 02AA     		add	r2, sp, #8
 3717 001e 04F10C00 		add	r0, r4, #12
 3718 0022 A363     		str	r3, [r4, #56]
 3719 0024 02F8013D 		strb	r3, [r2, #-1]!
 3720 0028 04F13801 		add	r1, r4, #56
 3721 002c FFF7FEFF 		bl	_ZN6uavcan4fillIPhhEEvT_S2_RKT0_
 3722 0030 2046     		mov	r0, r4
 3723 0032 02B0     		add	sp, sp, #8
 3724              		@ sp needed
 3725 0034 10BD     		pop	{r4, pc}
 3726              	.L434:
 3727 0036 00BF     		.align	2
 3728              	.L433:
 3729 0038 08000000 		.word	_ZTVN6uavcan17GenericSubscriberINS_8protocol12GetNodeInfo_ENS2_8Request_ILi0EEENS_16Transfer
 3730              		.size	_ZN6uavcan17GenericSubscriberINS_8protocol12GetNodeInfo_ENS2_8Request_ILi0EEENS_16TransferLi
 3731              		.weak	_ZN6uavcan17GenericSubscriberINS_8protocol12GetNodeInfo_ENS2_8Request_ILi0EEENS_16TransferLi
 3732              		.thumb_set _ZN6uavcan17GenericSubscriberINS_8protocol12GetNodeInfo_ENS2_8Request_ILi0EEENS_16Trans
 3733              		.section	.text._ZN6uavcan13ServiceServerINS_8protocol12GetNodeInfo_ENS_12MethodBinderIPNS_18NodeSt
 3734              		.align	1
 3735              		.weak	_ZN6uavcan13ServiceServerINS_8protocol12GetNodeInfo_ENS_12MethodBinderIPNS_18NodeStatusProvi
 3736              		.thumb
 3737              		.thumb_func
 3738              		.type	_ZN6uavcan13ServiceServerINS_8protocol12GetNodeInfo_ENS_12MethodBinderIPNS_18NodeStatusProvi
 3739              	_ZN6uavcan13ServiceServerINS_8protocol12GetNodeInfo_ENS_12MethodBinderIPNS_18NodeStatusProviderEMS4
 3740              		@ args = 0, pretend = 0, frame = 0
 3741              		@ frame_needed = 0, uses_anonymous_args = 0
 3742 0000 10B5     		push	{r4, lr}
 3743 0002 0446     		mov	r4, r0
 3744 0004 024B     		ldr	r3, .L436
 3745 0006 0360     		str	r3, [r0]
 3746 0008 FFF7FEFF 		bl	_ZN6uavcan17GenericSubscriberINS_8protocol12GetNodeInfo_ENS2_8Request_ILi0EEENS_16TransferListe
 3747 000c 2046     		mov	r0, r4
 3748 000e 10BD     		pop	{r4, pc}
 3749              	.L437:
 3750              		.align	2
 3751              	.L436:
 3752 0010 08000000 		.word	_ZTVN6uavcan13ServiceServerINS_8protocol12GetNodeInfo_ENS_12MethodBinderIPNS_18NodeStatusPro
 3753              		.size	_ZN6uavcan13ServiceServerINS_8protocol12GetNodeInfo_ENS_12MethodBinderIPNS_18NodeStatusProvi
 3754              		.weak	_ZN6uavcan13ServiceServerINS_8protocol12GetNodeInfo_ENS_12MethodBinderIPNS_18NodeStatusProvi
 3755              		.thumb_set _ZN6uavcan13ServiceServerINS_8protocol12GetNodeInfo_ENS_12MethodBinderIPNS_18NodeStatus
 3756              		.section	.text._ZN6uavcan18NodeStatusProviderD2Ev,"axG",%progbits,_ZN6uavcan18NodeStatusProviderD5
 3757              		.align	1
 3758              		.weak	_ZN6uavcan18NodeStatusProviderD2Ev
 3759              		.thumb
 3760              		.thumb_func
ARM GAS  /tmp/ccFEREDd.s 			page 67


 3761              		.type	_ZN6uavcan18NodeStatusProviderD2Ev, %function
 3762              	_ZN6uavcan18NodeStatusProviderD2Ev:
 3763              		@ args = 0, pretend = 0, frame = 0
 3764              		@ frame_needed = 0, uses_anonymous_args = 0
 3765 0000 10B5     		push	{r4, lr}
 3766 0002 0446     		mov	r4, r0
 3767 0004 054B     		ldr	r3, .L439
 3768 0006 40F8503B 		str	r3, [r0], #80
 3769 000a FFF7FEFF 		bl	_ZN6uavcan13ServiceServerINS_8protocol12GetNodeInfo_ENS_12MethodBinderIPNS_18NodeStatusProvider
 3770 000e 044B     		ldr	r3, .L439+4
 3771 0010 2046     		mov	r0, r4
 3772 0012 2360     		str	r3, [r4]
 3773 0014 FFF7FEFF 		bl	_ZN6uavcan15DeadlineHandler4stopEv
 3774 0018 2046     		mov	r0, r4
 3775 001a 10BD     		pop	{r4, pc}
 3776              	.L440:
 3777              		.align	2
 3778              	.L439:
 3779 001c 08000000 		.word	_ZTVN6uavcan18NodeStatusProviderE+8
 3780 0020 08000000 		.word	_ZTVN6uavcan15DeadlineHandlerE+8
 3781              		.size	_ZN6uavcan18NodeStatusProviderD2Ev, .-_ZN6uavcan18NodeStatusProviderD2Ev
 3782              		.weak	_ZN6uavcan18NodeStatusProviderD1Ev
 3783              		.thumb_set _ZN6uavcan18NodeStatusProviderD1Ev,_ZN6uavcan18NodeStatusProviderD2Ev
 3784              		.section	.text._ZN6uavcan18NodeStatusProviderD0Ev,"axG",%progbits,_ZN6uavcan18NodeStatusProviderD5
 3785              		.align	1
 3786              		.weak	_ZN6uavcan18NodeStatusProviderD0Ev
 3787              		.thumb
 3788              		.thumb_func
 3789              		.type	_ZN6uavcan18NodeStatusProviderD0Ev, %function
 3790              	_ZN6uavcan18NodeStatusProviderD0Ev:
 3791              		@ args = 0, pretend = 0, frame = 0
 3792              		@ frame_needed = 0, uses_anonymous_args = 0
 3793 0000 10B5     		push	{r4, lr}
 3794 0002 0446     		mov	r4, r0
 3795 0004 FFF7FEFF 		bl	_ZN6uavcan18NodeStatusProviderD1Ev
 3796 0008 2046     		mov	r0, r4
 3797 000a FFF7FEFF 		bl	_ZdlPv
 3798 000e 2046     		mov	r0, r4
 3799 0010 10BD     		pop	{r4, pc}
 3800              		.size	_ZN6uavcan18NodeStatusProviderD0Ev, .-_ZN6uavcan18NodeStatusProviderD0Ev
 3801              		.section	.text._ZN6uavcan13ServiceServerINS_8protocol12GetNodeInfo_ENS_12MethodBinderIPNS_18NodeSt
 3802              		.align	1
 3803              		.weak	_ZN6uavcan13ServiceServerINS_8protocol12GetNodeInfo_ENS_12MethodBinderIPNS_18NodeStatusProvi
 3804              		.thumb
 3805              		.thumb_func
 3806              		.type	_ZN6uavcan13ServiceServerINS_8protocol12GetNodeInfo_ENS_12MethodBinderIPNS_18NodeStatusProvi
 3807              	_ZN6uavcan13ServiceServerINS_8protocol12GetNodeInfo_ENS_12MethodBinderIPNS_18NodeStatusProviderEMS4
 3808              		@ args = 0, pretend = 0, frame = 0
 3809              		@ frame_needed = 0, uses_anonymous_args = 0
 3810 0000 10B5     		push	{r4, lr}
 3811 0002 0446     		mov	r4, r0
 3812 0004 FFF7FEFF 		bl	_ZN6uavcan13ServiceServerINS_8protocol12GetNodeInfo_ENS_12MethodBinderIPNS_18NodeStatusProvider
 3813 0008 2046     		mov	r0, r4
 3814 000a FFF7FEFF 		bl	_ZdlPv
 3815 000e 2046     		mov	r0, r4
 3816 0010 10BD     		pop	{r4, pc}
 3817              		.size	_ZN6uavcan13ServiceServerINS_8protocol12GetNodeInfo_ENS_12MethodBinderIPNS_18NodeStatusProvi
ARM GAS  /tmp/ccFEREDd.s 			page 68


 3818              		.section	.text._ZN6uavcan17GenericSubscriberINS_8protocol12GetNodeInfo_ENS2_8Request_ILi0EEENS_16T
 3819              		.align	1
 3820              		.weak	_ZN6uavcan17GenericSubscriberINS_8protocol12GetNodeInfo_ENS2_8Request_ILi0EEENS_16TransferLi
 3821              		.thumb
 3822              		.thumb_func
 3823              		.type	_ZN6uavcan17GenericSubscriberINS_8protocol12GetNodeInfo_ENS2_8Request_ILi0EEENS_16TransferLi
 3824              	_ZN6uavcan17GenericSubscriberINS_8protocol12GetNodeInfo_ENS2_8Request_ILi0EEENS_16TransferListenerE
 3825              		@ args = 0, pretend = 0, frame = 0
 3826              		@ frame_needed = 0, uses_anonymous_args = 0
 3827 0000 10B5     		push	{r4, lr}
 3828 0002 0446     		mov	r4, r0
 3829 0004 FFF7FEFF 		bl	_ZN6uavcan17GenericSubscriberINS_8protocol12GetNodeInfo_ENS2_8Request_ILi0EEENS_16TransferListe
 3830 0008 2046     		mov	r0, r4
 3831 000a FFF7FEFF 		bl	_ZdlPv
 3832 000e 2046     		mov	r0, r4
 3833 0010 10BD     		pop	{r4, pc}
 3834              		.size	_ZN6uavcan17GenericSubscriberINS_8protocol12GetNodeInfo_ENS2_8Request_ILi0EEENS_16TransferLi
 3835              		.section	.text._ZN6uavcan22GlobalDataTypeRegistry16registerDataTypeINS_8protocol16GetDataTypeInfo_
 3836              		.align	1
 3837              		.weak	_ZN6uavcan22GlobalDataTypeRegistry16registerDataTypeINS_8protocol16GetDataTypeInfo_EEENS0_18
 3838              		.thumb
 3839              		.thumb_func
 3840              		.type	_ZN6uavcan22GlobalDataTypeRegistry16registerDataTypeINS_8protocol16GetDataTypeInfo_EEENS0_18
 3841              	_ZN6uavcan22GlobalDataTypeRegistry16registerDataTypeINS_8protocol16GetDataTypeInfo_EEENS0_18Registr
 3842              		@ args = 0, pretend = 0, frame = 40
 3843              		@ frame_needed = 0, uses_anonymous_args = 0
 3844 0000 F0B5     		push	{r4, r5, r6, r7, lr}
 3845 0002 037A     		ldrb	r3, [r0, #8]	@ zero_extendqisi2
 3846 0004 8BB0     		sub	sp, sp, #44
 3847 0006 0646     		mov	r6, r0
 3848 0008 0F46     		mov	r7, r1
 3849 000a 002B     		cmp	r3, #0
 3850 000c 3DD1     		bne	.L447
 3851 000e 224C     		ldr	r4, .L450+8
 3852 0010 2368     		ldr	r3, [r4]
 3853 0012 DB07     		lsls	r3, r3, #31
 3854 0014 09D4     		bmi	.L446
 3855 0016 2148     		ldr	r0, .L450+12
 3856 0018 FFF7FEFF 		bl	_ZN6uavcan22GlobalDataTypeRegistry5EntryC1Ev
 3857 001c 0123     		movs	r3, #1
 3858 001e 1F48     		ldr	r0, .L450+12
 3859 0020 1F49     		ldr	r1, .L450+16
 3860 0022 204A     		ldr	r2, .L450+20
 3861 0024 2360     		str	r3, [r4]
 3862 0026 FFF7FEFF 		bl	__aeabi_atexit
 3863              	.L446:
 3864 002a 3046     		mov	r0, r6
 3865 002c 1B49     		ldr	r1, .L450+12
 3866 002e FFF7FEFF 		bl	_ZN6uavcan22GlobalDataTypeRegistry6removeEPNS0_5EntryE
 3867 0032 0446     		mov	r4, r0
 3868 0034 50BB     		cbnz	r0, .L445
 3869 0036 16A3     		adr	r3, .L450
 3870 0038 D3E90023 		ldrd	r2, [r3]
 3871 003c 0AAD     		add	r5, sp, #40
 3872 003e 65E90A23 		strd	r2, [r5, #-40]!
 3873 0042 2846     		mov	r0, r5
 3874 0044 FFF7FEFF 		bl	_ZN6uavcan8protocol13DataTypeKind_ILi0EE23extendDataTypeSignatureERNS_17DataTypeSignatureE
ARM GAS  /tmp/ccFEREDd.s 			page 69


 3875 0048 2846     		mov	r0, r5
 3876 004a FFF7FEFF 		bl	_ZN6uavcan8protocol13DataTypeKind_ILi0EE23extendDataTypeSignatureERNS_17DataTypeSignatureE
 3877 004e DDE90023 		ldrd	r2, [sp]
 3878 0052 CDE90423 		strd	r2, [sp, #16]
 3879 0056 144B     		ldr	r3, .L450+24
 3880 0058 8DF81C40 		strb	r4, [sp, #28]
 3881 005c 0294     		str	r4, [sp, #8]
 3882 005e 0F4C     		ldr	r4, .L450+12
 3883 0060 0693     		str	r3, [sp, #24]
 3884 0062 0897     		str	r7, [sp, #32]
 3885 0064 02AD     		add	r5, sp, #8
 3886 0066 0FCD     		ldmia	r5!, {r0, r1, r2, r3}
 3887 0068 0FC4     		stmia	r4!, {r0, r1, r2, r3}
 3888 006a 95E80F00 		ldmia	r5, {r0, r1, r2, r3}
 3889 006e 84E80F00 		stmia	r4, {r0, r1, r2, r3}
 3890 0072 3046     		mov	r0, r6
 3891 0074 A4F11001 		sub	r1, r4, #16
 3892 0078 FFF7FEFF 		bl	_ZN6uavcan22GlobalDataTypeRegistry6removeEPNS0_5EntryE
 3893 007c 30B9     		cbnz	r0, .L445
 3894 007e 3046     		mov	r0, r6
 3895 0080 A4F11001 		sub	r1, r4, #16
 3896 0084 FFF7FEFF 		bl	_ZN6uavcan22GlobalDataTypeRegistry10registImplEPNS0_5EntryE
 3897 0088 00E0     		b	.L445
 3898              	.L447:
 3899 008a 0320     		movs	r0, #3
 3900              	.L445:
 3901 008c 0BB0     		add	sp, sp, #44
 3902              		@ sp needed
 3903 008e F0BD     		pop	{r4, r5, r6, r7, pc}
 3904              	.L451:
 3905              		.align	3
 3906              	.L450:
 3907 0090 FC248DF6 		.word	-158522116
 3908 0094 C93DC988 		.word	-2000077367
 3909 0098 00000000 		.word	_ZGVZN6uavcan22GlobalDataTypeRegistry16registerDataTypeINS_8protocol16GetDataTypeInfo_EEENS0
 3910 009c 00000000 		.word	_ZZN6uavcan22GlobalDataTypeRegistry16registerDataTypeINS_8protocol16GetDataTypeInfo_EEENS0_1
 3911 00a0 00000000 		.word	_ZN6uavcan22GlobalDataTypeRegistry5EntryD1Ev
 3912 00a4 00000000 		.word	__dso_handle
 3913 00a8 C9000000 		.word	.LC8
 3914              		.size	_ZN6uavcan22GlobalDataTypeRegistry16registerDataTypeINS_8protocol16GetDataTypeInfo_EEENS0_18
 3915              		.section	.text._ZN6uavcan5ArrayINS_11IntegerSpecILj8ELNS_10SignednessE0ELNS_8CastModeE0EEELNS_9Arr
 3916              		.align	1
 3917              		.weak	_ZN6uavcan5ArrayINS_11IntegerSpecILj8ELNS_10SignednessE0ELNS_8CastModeE0EEELNS_9ArrayModeE1E
 3918              		.thumb
 3919              		.thumb_func
 3920              		.type	_ZN6uavcan5ArrayINS_11IntegerSpecILj8ELNS_10SignednessE0ELNS_8CastModeE0EEELNS_9ArrayModeE1E
 3921              	_ZN6uavcan5ArrayINS_11IntegerSpecILj8ELNS_10SignednessE0ELNS_8CastModeE0EEELNS_9ArrayModeE1ELj80EE9
 3922              		@ args = 0, pretend = 0, frame = 0
 3923              		@ frame_needed = 0, uses_anonymous_args = 0
 3924 0000 0378     		ldrb	r3, [r0]	@ zero_extendqisi2
 3925 0002 10B5     		push	{r4, lr}
 3926 0004 4F2B     		cmp	r3, #79
 3927 0006 9CBF     		itt	ls
 3928 0008 0133     		addls	r3, r3, #1
 3929 000a 0370     		strbls	r3, [r0]
 3930 000c 0478     		ldrb	r4, [r0]	@ zero_extendqisi2
 3931 000e 621E     		subs	r2, r4, #1
ARM GAS  /tmp/ccFEREDd.s 			page 70


 3932 0010 D3B2     		uxtb	r3, r2
 3933 0012 A342     		cmp	r3, r4
 3934 0014 02D3     		bcc	.L454
 3935 0016 002C     		cmp	r4, #0
 3936 0018 08BF     		it	eq
 3937 001a 0023     		moveq	r3, #0
 3938              	.L454:
 3939 001c 0A78     		ldrb	r2, [r1]	@ zero_extendqisi2
 3940 001e 0344     		add	r3, r3, r0
 3941 0020 5A70     		strb	r2, [r3, #1]
 3942 0022 10BD     		pop	{r4, pc}
 3943              		.size	_ZN6uavcan5ArrayINS_11IntegerSpecILj8ELNS_10SignednessE0ELNS_8CastModeE0EEELNS_9ArrayModeE1E
 3944              		.section	.text._ZN4node12_GLOBAL__N_113configureNodeEv,"ax",%progbits
 3945              		.align	1
 3946              		.thumb
 3947              		.thumb_func
 3948              		.type	_ZN4node12_GLOBAL__N_113configureNodeEv, %function
 3949              	_ZN4node12_GLOBAL__N_113configureNodeEv:
 3950              		@ args = 0, pretend = 0, frame = 296
 3951              		@ frame_needed = 0, uses_anonymous_args = 0
 3952 0000 70B5     		push	{r4, r5, r6, lr}
 3953 0002 CAB0     		sub	sp, sp, #296
 3954 0004 FFF7FEFF 		bl	_ZN4node7getNodeEv
 3955 0008 0546     		mov	r5, r0
 3956 000a 0023     		movs	r3, #0
 3957 000c 2A4E     		ldr	r6, .L462
 3958 000e 8DF81030 		strb	r3, [sp, #16]
 3959              	.L457:
 3960 0012 16F8014F 		ldrb	r4, [r6, #1]!	@ zero_extendqisi2
 3961 0016 34B1     		cbz	r4, .L461
 3962 0018 04A8     		add	r0, sp, #16
 3963 001a 01A9     		add	r1, sp, #4
 3964 001c 8DF80440 		strb	r4, [sp, #4]
 3965 0020 FFF7FEFF 		bl	_ZN6uavcan5ArrayINS_11IntegerSpecILj8ELNS_10SignednessE0ELNS_8CastModeE0EEELNS_9ArrayModeE1ELj8
 3966 0024 F5E7     		b	.L457
 3967              	.L461:
 3968 0026 05F5E955 		add	r5, r5, #7456
 3969 002a 04A9     		add	r1, sp, #16
 3970 002c 2846     		mov	r0, r5
 3971 002e FFF7FEFF 		bl	_ZN6uavcan18NodeStatusProvider7setNameERKNS_5ArrayINS_11IntegerSpecILj8ELNS_10SignednessE0ELNS_
 3972 0032 04A8     		add	r0, sp, #16
 3973 0034 FFF7FEFF 		bl	_ZN20bootloader_interface31makeUavcanSoftwareVersionStructEv
 3974 0038 2846     		mov	r0, r5
 3975 003a 04A9     		add	r1, sp, #16
 3976 003c FFF7FEFF 		bl	_ZN6uavcan18NodeStatusProvider18setSoftwareVersionERKNS_8protocol16SoftwareVersion_ILi0EEE
 3977 0040 0DF11200 		add	r0, sp, #18
 3978 0044 0DF12201 		add	r1, sp, #34
 3979 0048 01AA     		add	r2, sp, #4
 3980 004a 8DF81040 		strb	r4, [sp, #16]
 3981 004e 8DF81140 		strb	r4, [sp, #17]
 3982 0052 8DF80440 		strb	r4, [sp, #4]
 3983 0056 FFF7FEFF 		bl	_ZN6uavcan4fillIPhhEEvT_S2_RKT0_
 3984 005a 0123     		movs	r3, #1
 3985 005c 0C22     		movs	r2, #12
 3986 005e 2146     		mov	r1, r4
 3987 0060 01A8     		add	r0, sp, #4
 3988 0062 8DF81030 		strb	r3, [sp, #16]
ARM GAS  /tmp/ccFEREDd.s 			page 71


 3989 0066 8DF82240 		strb	r4, [sp, #34]
 3990 006a FFF7FEFF 		bl	memset
 3991 006e 01A8     		add	r0, sp, #4
 3992 0070 FFF7FEFF 		bl	_ZN5board12readUniqueIDEPh
 3993 0074 01AB     		add	r3, sp, #4
 3994 0076 03CB     		ldmia	r3!, {r0, r1}
 3995 0078 CDF81200 		str	r0, [sp, #18]	@ unaligned
 3996 007c 1868     		ldr	r0, [r3]	@ unaligned
 3997 007e CDF81610 		str	r1, [sp, #22]	@ unaligned
 3998 0082 CDF81A00 		str	r0, [sp, #26]	@ unaligned
 3999 0086 04A9     		add	r1, sp, #16
 4000 0088 2846     		mov	r0, r5
 4001 008a FFF7FEFF 		bl	_ZN6uavcan18NodeStatusProvider18setHardwareVersionERKNS_8protocol16HardwareVersion_ILi0EEE
 4002 008e 0B48     		ldr	r0, .L462+4
 4003 0090 0B49     		ldr	r1, .L462+8
 4004 0092 FFF7FEFF 		bl	lowsyslog
 4005 0096 0B48     		ldr	r0, .L462+12
 4006 0098 FFF7FEFF 		bl	lowsyslog
 4007              	.L459:
 4008 009c 04AB     		add	r3, sp, #16
 4009 009e 2344     		add	r3, r3, r4
 4010 00a0 0948     		ldr	r0, .L462+16
 4011 00a2 9978     		ldrb	r1, [r3, #2]	@ zero_extendqisi2
 4012 00a4 0134     		adds	r4, r4, #1
 4013 00a6 FFF7FEFF 		bl	lowsyslog
 4014 00aa 102C     		cmp	r4, #16
 4015 00ac F6D1     		bne	.L459
 4016 00ae 0748     		ldr	r0, .L462+20
 4017 00b0 FFF7FEFF 		bl	lowsyslog
 4018 00b4 4AB0     		add	sp, sp, #296
 4019              		@ sp needed
 4020 00b6 70BD     		pop	{r4, r5, r6, pc}
 4021              	.L463:
 4022              		.align	2
 4023              	.L462:
 4024 00b8 FFFFFFFF 		.word	.LC9-1
 4025 00bc F8000000 		.word	.LC10
 4026 00c0 8EBF9A02 		.word	43696014
 4027 00c4 11010000 		.word	.LC11
 4028 00c8 17010000 		.word	.LC12
 4029 00cc 1D010000 		.word	.LC13
 4030              		.size	_ZN4node12_GLOBAL__N_113configureNodeEv, .-_ZN4node12_GLOBAL__N_113configureNodeEv
 4031              		.section	.text._ZN6uavcan20DataTypeInfoProvider28handleGetDataTypeInfoRequestERKNS_8protocol16GetD
 4032              		.align	1
 4033              		.weak	_ZN6uavcan20DataTypeInfoProvider28handleGetDataTypeInfoRequestERKNS_8protocol16GetDataTypeIn
 4034              		.thumb
 4035              		.thumb_func
 4036              		.type	_ZN6uavcan20DataTypeInfoProvider28handleGetDataTypeInfoRequestERKNS_8protocol16GetDataTypeIn
 4037              	_ZN6uavcan20DataTypeInfoProvider28handleGetDataTypeInfoRequestERKNS_8protocol16GetDataTypeInfo_8Req
 4038              		@ args = 0, pretend = 0, frame = 8
 4039              		@ frame_needed = 0, uses_anonymous_args = 0
 4040 0000 2DE9F341 		push	{r0, r1, r4, r5, r6, r7, r8, lr}
 4041 0004 CB78     		ldrb	r3, [r1, #3]	@ zero_extendqisi2
 4042 0006 0746     		mov	r7, r0
 4043 0008 0D46     		mov	r5, r1
 4044 000a 1446     		mov	r4, r2
 4045 000c 6BB9     		cbnz	r3, .L465
ARM GAS  /tmp/ccFEREDd.s 			page 72


 4046 000e 0B88     		ldrh	r3, [r1]
 4047 0010 1381     		strh	r3, [r2, #8]	@ movhi
 4048 0012 8B78     		ldrb	r3, [r1, #2]	@ zero_extendqisi2
 4049 0014 9372     		strb	r3, [r2, #10]
 4050 0016 8B78     		ldrb	r3, [r1, #2]	@ zero_extendqisi2
 4051 0018 012B     		cmp	r3, #1
 4052 001a 58D8     		bhi	.L464
 4053 001c FFF7FEFF 		bl	_ZN6uavcan22GlobalDataTypeRegistry8instanceEv
 4054 0020 A978     		ldrb	r1, [r5, #2]	@ zero_extendqisi2
 4055 0022 2A88     		ldrh	r2, [r5]
 4056 0024 FFF7FEFF 		bl	_ZNK6uavcan22GlobalDataTypeRegistry4findENS_12DataTypeKindENS_10DataTypeIDE
 4057 0028 0EE0     		b	.L487
 4058              	.L465:
 4059 002a 0331     		adds	r1, r1, #3
 4060 002c 02F10C00 		add	r0, r2, #12
 4061 0030 5222     		movs	r2, #82
 4062 0032 FFF7FEFF 		bl	memcpy
 4063 0036 FFF7FEFF 		bl	_ZN6uavcan22GlobalDataTypeRegistry8instanceEv
 4064 003a EB78     		ldrb	r3, [r5, #3]	@ zero_extendqisi2
 4065 003c 0022     		movs	r2, #0
 4066 003e 2B44     		add	r3, r3, r5
 4067 0040 1A71     		strb	r2, [r3, #4]
 4068 0042 291D     		adds	r1, r5, #4
 4069 0044 FFF7FEFF 		bl	_ZNK6uavcan22GlobalDataTypeRegistry4findEPKc
 4070              	.L487:
 4071 0048 0546     		mov	r5, r0
 4072 004a 0028     		cmp	r0, #0
 4073 004c 3FD0     		beq	.L464
 4074 004e D0E90023 		ldrd	r2, [r0]
 4075 0052 C4E90023 		strd	r2, [r4]
 4076 0056 0369     		ldr	r3, [r0, #16]
 4077 0058 04F10C08 		add	r8, r4, #12
 4078 005c 2381     		strh	r3, [r4, #8]	@ movhi
 4079 005e 037B     		ldrb	r3, [r0, #12]	@ zero_extendqisi2
 4080 0060 A372     		strb	r3, [r4, #10]
 4081 0062 0123     		movs	r3, #1
 4082 0064 E372     		strb	r3, [r4, #11]
 4083 0066 8668     		ldr	r6, [r0, #8]
 4084 0068 0023     		movs	r3, #0
 4085 006a 2373     		strb	r3, [r4, #12]
 4086 006c 0EB1     		cbz	r6, .L470
 4087 006e 013E     		subs	r6, r6, #1
 4088 0070 02E0     		b	.L471
 4089              	.L470:
 4090 0072 1848     		ldr	r0, .L490
 4091 0074 FFF7FEFF 		bl	_ZN6uavcan16handleFatalErrorEPKc
 4092              	.L471:
 4093 0078 16F8013F 		ldrb	r3, [r6, #1]!	@ zero_extendqisi2
 4094 007c 33B1     		cbz	r3, .L489
 4095 007e 02A9     		add	r1, sp, #8
 4096 0080 01F8013D 		strb	r3, [r1, #-1]!
 4097 0084 4046     		mov	r0, r8
 4098 0086 FFF7FEFF 		bl	_ZN6uavcan5ArrayINS_11IntegerSpecILj8ELNS_10SignednessE0ELNS_8CastModeE0EEELNS_9ArrayModeE1ELj8
 4099 008a F5E7     		b	.L471
 4100              	.L489:
 4101 008c 7868     		ldr	r0, [r7, #4]
 4102 008e FFF7FEFF 		bl	_ZN6uavcan5INode13getDispatcherEv
ARM GAS  /tmp/ccFEREDd.s 			page 73


 4103 0092 2B7B     		ldrb	r3, [r5, #12]	@ zero_extendqisi2
 4104 0094 0646     		mov	r6, r0
 4105 0096 3BB9     		cbnz	r3, .L473
 4106 0098 298A     		ldrh	r1, [r5, #16]
 4107 009a FFF7FEFF 		bl	_ZNK6uavcan10Dispatcher9hasServerENS_10DataTypeIDE
 4108 009e B0B1     		cbz	r0, .L464
 4109 00a0 E37A     		ldrb	r3, [r4, #11]	@ zero_extendqisi2
 4110 00a2 43F00803 		orr	r3, r3, #8
 4111 00a6 11E0     		b	.L488
 4112              	.L473:
 4113 00a8 012B     		cmp	r3, #1
 4114 00aa 10D1     		bne	.L464
 4115 00ac 298A     		ldrh	r1, [r5, #16]
 4116 00ae FFF7FEFF 		bl	_ZNK6uavcan10Dispatcher13hasSubscriberENS_10DataTypeIDE
 4117 00b2 18B1     		cbz	r0, .L474
 4118 00b4 E37A     		ldrb	r3, [r4, #11]	@ zero_extendqisi2
 4119 00b6 43F00203 		orr	r3, r3, #2
 4120 00ba E372     		strb	r3, [r4, #11]
 4121              	.L474:
 4122 00bc 3046     		mov	r0, r6
 4123 00be 298A     		ldrh	r1, [r5, #16]
 4124 00c0 FFF7FEFF 		bl	_ZNK6uavcan10Dispatcher12hasPublisherENS_10DataTypeIDE
 4125 00c4 18B1     		cbz	r0, .L464
 4126 00c6 E37A     		ldrb	r3, [r4, #11]	@ zero_extendqisi2
 4127 00c8 43F00403 		orr	r3, r3, #4
 4128              	.L488:
 4129 00cc E372     		strb	r3, [r4, #11]
 4130              	.L464:
 4131 00ce 02B0     		add	sp, sp, #8
 4132              		@ sp needed
 4133 00d0 BDE8F081 		pop	{r4, r5, r6, r7, r8, pc}
 4134              	.L491:
 4135              		.align	2
 4136              	.L490:
 4137 00d4 1F010000 		.word	.LC14
 4138              		.size	_ZN6uavcan20DataTypeInfoProvider28handleGetDataTypeInfoRequestERKNS_8protocol16GetDataTypeIn
 4139              		.section	.text._ZN6uavcan17GenericSubscriberINS_8protocol16GetDataTypeInfo_ENS2_8Request_ILi0EEENS
 4140              		.align	1
 4141              		.weak	_ZN6uavcan17GenericSubscriberINS_8protocol16GetDataTypeInfo_ENS2_8Request_ILi0EEENS_16Transf
 4142              		.thumb
 4143              		.thumb_func
 4144              		.type	_ZN6uavcan17GenericSubscriberINS_8protocol16GetDataTypeInfo_ENS2_8Request_ILi0EEENS_16Transf
 4145              	_ZN6uavcan17GenericSubscriberINS_8protocol16GetDataTypeInfo_ENS2_8Request_ILi0EEENS_16TransferListe
 4146              		@ args = 0, pretend = 0, frame = 8
 4147              		@ frame_needed = 0, uses_anonymous_args = 0
 4148 0000 13B5     		push	{r0, r1, r4, lr}
 4149 0002 0446     		mov	r4, r0
 4150 0004 0C4B     		ldr	r3, .L497
 4151 0006 40F8043B 		str	r3, [r0], #4
 4152 000a A16B     		ldr	r1, [r4, #56]
 4153 000c FFF7FEFF 		bl	_ZN6uavcan21GenericSubscriberBase4stopEPNS_16TransferListenerE
 4154 0010 A06B     		ldr	r0, [r4, #56]
 4155 0012 10B1     		cbz	r0, .L493
 4156 0014 0368     		ldr	r3, [r0]
 4157 0016 5B68     		ldr	r3, [r3, #4]
 4158 0018 9847     		blx	r3
 4159              	.L493:
ARM GAS  /tmp/ccFEREDd.s 			page 74


 4160 001a 0023     		movs	r3, #0
 4161 001c 02AA     		add	r2, sp, #8
 4162 001e 04F10C00 		add	r0, r4, #12
 4163 0022 A363     		str	r3, [r4, #56]
 4164 0024 02F8013D 		strb	r3, [r2, #-1]!
 4165 0028 04F13801 		add	r1, r4, #56
 4166 002c FFF7FEFF 		bl	_ZN6uavcan4fillIPhhEEvT_S2_RKT0_
 4167 0030 2046     		mov	r0, r4
 4168 0032 02B0     		add	sp, sp, #8
 4169              		@ sp needed
 4170 0034 10BD     		pop	{r4, pc}
 4171              	.L498:
 4172 0036 00BF     		.align	2
 4173              	.L497:
 4174 0038 08000000 		.word	_ZTVN6uavcan17GenericSubscriberINS_8protocol16GetDataTypeInfo_ENS2_8Request_ILi0EEENS_16Tran
 4175              		.size	_ZN6uavcan17GenericSubscriberINS_8protocol16GetDataTypeInfo_ENS2_8Request_ILi0EEENS_16Transf
 4176              		.weak	_ZN6uavcan17GenericSubscriberINS_8protocol16GetDataTypeInfo_ENS2_8Request_ILi0EEENS_16Transf
 4177              		.thumb_set _ZN6uavcan17GenericSubscriberINS_8protocol16GetDataTypeInfo_ENS2_8Request_ILi0EEENS_16T
 4178              		.section	.text._ZN6uavcan13ServiceServerINS_8protocol16GetDataTypeInfo_ENS_12MethodBinderIPNS_20Da
 4179              		.align	1
 4180              		.weak	_ZN6uavcan13ServiceServerINS_8protocol16GetDataTypeInfo_ENS_12MethodBinderIPNS_20DataTypeInf
 4181              		.thumb
 4182              		.thumb_func
 4183              		.type	_ZN6uavcan13ServiceServerINS_8protocol16GetDataTypeInfo_ENS_12MethodBinderIPNS_20DataTypeInf
 4184              	_ZN6uavcan13ServiceServerINS_8protocol16GetDataTypeInfo_ENS_12MethodBinderIPNS_20DataTypeInfoProvid
 4185              		@ args = 0, pretend = 0, frame = 0
 4186              		@ frame_needed = 0, uses_anonymous_args = 0
 4187 0000 10B5     		push	{r4, lr}
 4188 0002 0446     		mov	r4, r0
 4189 0004 024B     		ldr	r3, .L500
 4190 0006 0360     		str	r3, [r0]
 4191 0008 FFF7FEFF 		bl	_ZN6uavcan17GenericSubscriberINS_8protocol16GetDataTypeInfo_ENS2_8Request_ILi0EEENS_16TransferL
 4192 000c 2046     		mov	r0, r4
 4193 000e 10BD     		pop	{r4, pc}
 4194              	.L501:
 4195              		.align	2
 4196              	.L500:
 4197 0010 08000000 		.word	_ZTVN6uavcan13ServiceServerINS_8protocol16GetDataTypeInfo_ENS_12MethodBinderIPNS_20DataTypeI
 4198              		.size	_ZN6uavcan13ServiceServerINS_8protocol16GetDataTypeInfo_ENS_12MethodBinderIPNS_20DataTypeInf
 4199              		.weak	_ZN6uavcan13ServiceServerINS_8protocol16GetDataTypeInfo_ENS_12MethodBinderIPNS_20DataTypeInf
 4200              		.thumb_set _ZN6uavcan13ServiceServerINS_8protocol16GetDataTypeInfo_ENS_12MethodBinderIPNS_20DataTy
 4201              		.section	.text._ZN6uavcan13ServiceServerINS_8protocol16GetDataTypeInfo_ENS_12MethodBinderIPNS_20Da
 4202              		.align	1
 4203              		.weak	_ZN6uavcan13ServiceServerINS_8protocol16GetDataTypeInfo_ENS_12MethodBinderIPNS_20DataTypeInf
 4204              		.thumb
 4205              		.thumb_func
 4206              		.type	_ZN6uavcan13ServiceServerINS_8protocol16GetDataTypeInfo_ENS_12MethodBinderIPNS_20DataTypeInf
 4207              	_ZN6uavcan13ServiceServerINS_8protocol16GetDataTypeInfo_ENS_12MethodBinderIPNS_20DataTypeInfoProvid
 4208              		@ args = 0, pretend = 0, frame = 0
 4209              		@ frame_needed = 0, uses_anonymous_args = 0
 4210 0000 10B5     		push	{r4, lr}
 4211 0002 0446     		mov	r4, r0
 4212 0004 FFF7FEFF 		bl	_ZN6uavcan13ServiceServerINS_8protocol16GetDataTypeInfo_ENS_12MethodBinderIPNS_20DataTypeInfoPr
 4213 0008 2046     		mov	r0, r4
 4214 000a FFF7FEFF 		bl	_ZdlPv
 4215 000e 2046     		mov	r0, r4
 4216 0010 10BD     		pop	{r4, pc}
ARM GAS  /tmp/ccFEREDd.s 			page 75


 4217              		.size	_ZN6uavcan13ServiceServerINS_8protocol16GetDataTypeInfo_ENS_12MethodBinderIPNS_20DataTypeInf
 4218              		.section	.text._ZN6uavcan17GenericSubscriberINS_8protocol16GetDataTypeInfo_ENS2_8Request_ILi0EEENS
 4219              		.align	1
 4220              		.weak	_ZN6uavcan17GenericSubscriberINS_8protocol16GetDataTypeInfo_ENS2_8Request_ILi0EEENS_16Transf
 4221              		.thumb
 4222              		.thumb_func
 4223              		.type	_ZN6uavcan17GenericSubscriberINS_8protocol16GetDataTypeInfo_ENS2_8Request_ILi0EEENS_16Transf
 4224              	_ZN6uavcan17GenericSubscriberINS_8protocol16GetDataTypeInfo_ENS2_8Request_ILi0EEENS_16TransferListe
 4225              		@ args = 0, pretend = 0, frame = 0
 4226              		@ frame_needed = 0, uses_anonymous_args = 0
 4227 0000 10B5     		push	{r4, lr}
 4228 0002 0446     		mov	r4, r0
 4229 0004 FFF7FEFF 		bl	_ZN6uavcan17GenericSubscriberINS_8protocol16GetDataTypeInfo_ENS2_8Request_ILi0EEENS_16TransferL
 4230 0008 2046     		mov	r0, r4
 4231 000a FFF7FEFF 		bl	_ZdlPv
 4232 000e 2046     		mov	r0, r4
 4233 0010 10BD     		pop	{r4, pc}
 4234              		.size	_ZN6uavcan17GenericSubscriberINS_8protocol16GetDataTypeInfo_ENS2_8Request_ILi0EEENS_16Transf
 4235              		.section	.text._ZN6uavcan22GlobalDataTypeRegistry16registerDataTypeINS_8protocol5debug11LogMessage
 4236              		.align	1
 4237              		.weak	_ZN6uavcan22GlobalDataTypeRegistry16registerDataTypeINS_8protocol5debug11LogMessage_ILi0EEEE
 4238              		.thumb
 4239              		.thumb_func
 4240              		.type	_ZN6uavcan22GlobalDataTypeRegistry16registerDataTypeINS_8protocol5debug11LogMessage_ILi0EEEE
 4241              	_ZN6uavcan22GlobalDataTypeRegistry16registerDataTypeINS_8protocol5debug11LogMessage_ILi0EEEEENS0_18
 4242              		@ args = 0, pretend = 0, frame = 40
 4243              		@ frame_needed = 0, uses_anonymous_args = 0
 4244 0000 70B5     		push	{r4, r5, r6, lr}
 4245 0002 037A     		ldrb	r3, [r0, #8]	@ zero_extendqisi2
 4246 0004 8AB0     		sub	sp, sp, #40
 4247 0006 0646     		mov	r6, r0
 4248 0008 0D46     		mov	r5, r1
 4249 000a 002B     		cmp	r3, #0
 4250 000c 3DD1     		bne	.L507
 4251 000e 244C     		ldr	r4, .L510+16
 4252 0010 2368     		ldr	r3, [r4]
 4253 0012 DB07     		lsls	r3, r3, #31
 4254 0014 09D4     		bmi	.L506
 4255 0016 2348     		ldr	r0, .L510+20
 4256 0018 FFF7FEFF 		bl	_ZN6uavcan22GlobalDataTypeRegistry5EntryC1Ev
 4257 001c 0123     		movs	r3, #1
 4258 001e 2148     		ldr	r0, .L510+20
 4259 0020 2149     		ldr	r1, .L510+24
 4260 0022 224A     		ldr	r2, .L510+28
 4261 0024 2360     		str	r3, [r4]
 4262 0026 FFF7FEFF 		bl	__aeabi_atexit
 4263              	.L506:
 4264 002a 3046     		mov	r0, r6
 4265 002c 1D49     		ldr	r1, .L510+20
 4266 002e FFF7FEFF 		bl	_ZN6uavcan22GlobalDataTypeRegistry6removeEPNS0_5EntryE
 4267 0032 0446     		mov	r4, r0
 4268 0034 50BB     		cbnz	r0, .L505
 4269 0036 16A3     		adr	r3, .L510
 4270 0038 D3E90023 		ldrd	r2, [r3]
 4271 003c 0AA8     		add	r0, sp, #40
 4272 003e 60E90A23 		strd	r2, [r0, #-40]!
 4273 0042 15A3     		adr	r3, .L510+8
ARM GAS  /tmp/ccFEREDd.s 			page 76


 4274 0044 D3E90023 		ldrd	r2, [r3]
 4275 0048 FFF7FEFF 		bl	_ZN6uavcan17DataTypeSignature6extendES0_
 4276 004c DDE90023 		ldrd	r2, [sp]
 4277 0050 CDE90423 		strd	r2, [sp, #16]
 4278 0054 164B     		ldr	r3, .L510+32
 4279 0056 0294     		str	r4, [sp, #8]
 4280 0058 0693     		str	r3, [sp, #24]
 4281 005a 124C     		ldr	r4, .L510+20
 4282 005c 0123     		movs	r3, #1
 4283 005e 0895     		str	r5, [sp, #32]
 4284 0060 8DF81C30 		strb	r3, [sp, #28]
 4285 0064 02AD     		add	r5, sp, #8
 4286 0066 0FCD     		ldmia	r5!, {r0, r1, r2, r3}
 4287 0068 0FC4     		stmia	r4!, {r0, r1, r2, r3}
 4288 006a 95E80F00 		ldmia	r5, {r0, r1, r2, r3}
 4289 006e 84E80F00 		stmia	r4, {r0, r1, r2, r3}
 4290 0072 3046     		mov	r0, r6
 4291 0074 A4F11001 		sub	r1, r4, #16
 4292 0078 FFF7FEFF 		bl	_ZN6uavcan22GlobalDataTypeRegistry6removeEPNS0_5EntryE
 4293 007c 30B9     		cbnz	r0, .L505
 4294 007e 3046     		mov	r0, r6
 4295 0080 A4F11001 		sub	r1, r4, #16
 4296 0084 FFF7FEFF 		bl	_ZN6uavcan22GlobalDataTypeRegistry10registImplEPNS0_5EntryE
 4297 0088 00E0     		b	.L505
 4298              	.L507:
 4299 008a 0320     		movs	r0, #3
 4300              	.L505:
 4301 008c 0AB0     		add	sp, sp, #40
 4302              		@ sp needed
 4303 008e 70BD     		pop	{r4, r5, r6, pc}
 4304              	.L511:
 4305              		.align	3
 4306              	.L510:
 4307 0090 BA6287D3 		.word	-746102086
 4308 0094 782B86E9 		.word	-377083016
 4309 0098 462357AF 		.word	-1353243834
 4310 009c 41F11B71 		.word	1897656641
 4311 00a0 00000000 		.word	_ZGVZN6uavcan22GlobalDataTypeRegistry16registerDataTypeINS_8protocol5debug11LogMessage_ILi0E
 4312 00a4 00000000 		.word	_ZZN6uavcan22GlobalDataTypeRegistry16registerDataTypeINS_8protocol5debug11LogMessage_ILi0EEE
 4313 00a8 00000000 		.word	_ZN6uavcan22GlobalDataTypeRegistry5EntryD1Ev
 4314 00ac 00000000 		.word	__dso_handle
 4315 00b0 3D010000 		.word	.LC15
 4316              		.size	_ZN6uavcan22GlobalDataTypeRegistry16registerDataTypeINS_8protocol5debug11LogMessage_ILi0EEEE
 4317              		.section	.text._ZN6uavcan16GenericPublisherINS_8protocol5debug11LogMessage_ILi0EEES4_E9checkInitEv
 4318              		.align	1
 4319              		.weak	_ZN6uavcan16GenericPublisherINS_8protocol5debug11LogMessage_ILi0EEES4_E9checkInitEv
 4320              		.thumb
 4321              		.thumb_func
 4322              		.type	_ZN6uavcan16GenericPublisherINS_8protocol5debug11LogMessage_ILi0EEES4_E9checkInitEv, %functi
 4323              	_ZN6uavcan16GenericPublisherINS_8protocol5debug11LogMessage_ILi0EEES4_E9checkInitEv:
 4324              		@ args = 0, pretend = 0, frame = 0
 4325              		@ frame_needed = 0, uses_anonymous_args = 0
 4326 0000 10B5     		push	{r4, lr}
 4327 0002 0446     		mov	r4, r0
 4328 0004 FFF7FEFF 		bl	_ZNK6uavcan20GenericPublisherBase8isInitedEv
 4329 0008 0346     		mov	r3, r0
 4330 000a 30B9     		cbnz	r0, .L513
ARM GAS  /tmp/ccFEREDd.s 			page 77


 4331 000c 2046     		mov	r0, r4
 4332 000e BDE81040 		pop	{r4, lr}
 4333 0012 0121     		movs	r1, #1
 4334 0014 024A     		ldr	r2, .L514
 4335 0016 FFF7FEBF 		b	_ZN6uavcan20GenericPublisherBase6doInitENS_12DataTypeKindEPKcNS_10CanTxQueue3QosE
 4336              	.L513:
 4337 001a 0020     		movs	r0, #0
 4338 001c 10BD     		pop	{r4, pc}
 4339              	.L515:
 4340 001e 00BF     		.align	2
 4341              	.L514:
 4342 0020 3D010000 		.word	.LC15
 4343              		.size	_ZN6uavcan16GenericPublisherINS_8protocol5debug11LogMessage_ILi0EEES4_E9checkInitEv, .-_ZN6u
 4344              		.section	.text._ZN6uavcan17GenericSubscriberINS_8protocol12RestartNode_ENS2_8Request_ILi0EEENS_16T
 4345              		.align	1
 4346              		.weak	_ZN6uavcan17GenericSubscriberINS_8protocol12RestartNode_ENS2_8Request_ILi0EEENS_16TransferLi
 4347              		.thumb
 4348              		.thumb_func
 4349              		.type	_ZN6uavcan17GenericSubscriberINS_8protocol12RestartNode_ENS2_8Request_ILi0EEENS_16TransferLi
 4350              	_ZN6uavcan17GenericSubscriberINS_8protocol12RestartNode_ENS2_8Request_ILi0EEENS_16TransferListenerE
 4351              		@ args = 0, pretend = 0, frame = 8
 4352              		@ frame_needed = 0, uses_anonymous_args = 0
 4353 0000 13B5     		push	{r0, r1, r4, lr}
 4354 0002 0446     		mov	r4, r0
 4355 0004 0C4B     		ldr	r3, .L521
 4356 0006 40F8043B 		str	r3, [r0], #4
 4357 000a A16B     		ldr	r1, [r4, #56]
 4358 000c FFF7FEFF 		bl	_ZN6uavcan21GenericSubscriberBase4stopEPNS_16TransferListenerE
 4359 0010 A06B     		ldr	r0, [r4, #56]
 4360 0012 10B1     		cbz	r0, .L517
 4361 0014 0368     		ldr	r3, [r0]
 4362 0016 5B68     		ldr	r3, [r3, #4]
 4363 0018 9847     		blx	r3
 4364              	.L517:
 4365 001a 0023     		movs	r3, #0
 4366 001c 02AA     		add	r2, sp, #8
 4367 001e 04F10C00 		add	r0, r4, #12
 4368 0022 A363     		str	r3, [r4, #56]
 4369 0024 02F8013D 		strb	r3, [r2, #-1]!
 4370 0028 04F13801 		add	r1, r4, #56
 4371 002c FFF7FEFF 		bl	_ZN6uavcan4fillIPhhEEvT_S2_RKT0_
 4372 0030 2046     		mov	r0, r4
 4373 0032 02B0     		add	sp, sp, #8
 4374              		@ sp needed
 4375 0034 10BD     		pop	{r4, pc}
 4376              	.L522:
 4377 0036 00BF     		.align	2
 4378              	.L521:
 4379 0038 08000000 		.word	_ZTVN6uavcan17GenericSubscriberINS_8protocol12RestartNode_ENS2_8Request_ILi0EEENS_16Transfer
 4380              		.size	_ZN6uavcan17GenericSubscriberINS_8protocol12RestartNode_ENS2_8Request_ILi0EEENS_16TransferLi
 4381              		.weak	_ZN6uavcan17GenericSubscriberINS_8protocol12RestartNode_ENS2_8Request_ILi0EEENS_16TransferLi
 4382              		.thumb_set _ZN6uavcan17GenericSubscriberINS_8protocol12RestartNode_ENS2_8Request_ILi0EEENS_16Trans
 4383              		.section	.text._ZN6uavcan13ServiceServerINS_8protocol12RestartNode_ENS_12MethodBinderIPKNS_20Resta
 4384              		.align	1
 4385              		.weak	_ZN6uavcan13ServiceServerINS_8protocol12RestartNode_ENS_12MethodBinderIPKNS_20RestartRequest
 4386              		.thumb
 4387              		.thumb_func
ARM GAS  /tmp/ccFEREDd.s 			page 78


 4388              		.type	_ZN6uavcan13ServiceServerINS_8protocol12RestartNode_ENS_12MethodBinderIPKNS_20RestartRequest
 4389              	_ZN6uavcan13ServiceServerINS_8protocol12RestartNode_ENS_12MethodBinderIPKNS_20RestartRequestServerE
 4390              		@ args = 0, pretend = 0, frame = 0
 4391              		@ frame_needed = 0, uses_anonymous_args = 0
 4392 0000 10B5     		push	{r4, lr}
 4393 0002 0446     		mov	r4, r0
 4394 0004 024B     		ldr	r3, .L524
 4395 0006 0360     		str	r3, [r0]
 4396 0008 FFF7FEFF 		bl	_ZN6uavcan17GenericSubscriberINS_8protocol12RestartNode_ENS2_8Request_ILi0EEENS_16TransferListe
 4397 000c 2046     		mov	r0, r4
 4398 000e 10BD     		pop	{r4, pc}
 4399              	.L525:
 4400              		.align	2
 4401              	.L524:
 4402 0010 08000000 		.word	_ZTVN6uavcan13ServiceServerINS_8protocol12RestartNode_ENS_12MethodBinderIPKNS_20RestartReque
 4403              		.size	_ZN6uavcan13ServiceServerINS_8protocol12RestartNode_ENS_12MethodBinderIPKNS_20RestartRequest
 4404              		.weak	_ZN6uavcan13ServiceServerINS_8protocol12RestartNode_ENS_12MethodBinderIPKNS_20RestartRequest
 4405              		.thumb_set _ZN6uavcan13ServiceServerINS_8protocol12RestartNode_ENS_12MethodBinderIPKNS_20RestartRe
 4406              		.section	.text._ZN6uavcan13ServiceServerINS_8protocol12RestartNode_ENS_12MethodBinderIPKNS_20Resta
 4407              		.align	1
 4408              		.weak	_ZN6uavcan13ServiceServerINS_8protocol12RestartNode_ENS_12MethodBinderIPKNS_20RestartRequest
 4409              		.thumb
 4410              		.thumb_func
 4411              		.type	_ZN6uavcan13ServiceServerINS_8protocol12RestartNode_ENS_12MethodBinderIPKNS_20RestartRequest
 4412              	_ZN6uavcan13ServiceServerINS_8protocol12RestartNode_ENS_12MethodBinderIPKNS_20RestartRequestServerE
 4413              		@ args = 0, pretend = 0, frame = 0
 4414              		@ frame_needed = 0, uses_anonymous_args = 0
 4415 0000 10B5     		push	{r4, lr}
 4416 0002 0446     		mov	r4, r0
 4417 0004 FFF7FEFF 		bl	_ZN6uavcan13ServiceServerINS_8protocol12RestartNode_ENS_12MethodBinderIPKNS_20RestartRequestSer
 4418 0008 2046     		mov	r0, r4
 4419 000a FFF7FEFF 		bl	_ZdlPv
 4420 000e 2046     		mov	r0, r4
 4421 0010 10BD     		pop	{r4, pc}
 4422              		.size	_ZN6uavcan13ServiceServerINS_8protocol12RestartNode_ENS_12MethodBinderIPKNS_20RestartRequest
 4423              		.section	.text._ZN6uavcan17GenericSubscriberINS_8protocol12RestartNode_ENS2_8Request_ILi0EEENS_16T
 4424              		.align	1
 4425              		.weak	_ZN6uavcan17GenericSubscriberINS_8protocol12RestartNode_ENS2_8Request_ILi0EEENS_16TransferLi
 4426              		.thumb
 4427              		.thumb_func
 4428              		.type	_ZN6uavcan17GenericSubscriberINS_8protocol12RestartNode_ENS2_8Request_ILi0EEENS_16TransferLi
 4429              	_ZN6uavcan17GenericSubscriberINS_8protocol12RestartNode_ENS2_8Request_ILi0EEENS_16TransferListenerE
 4430              		@ args = 0, pretend = 0, frame = 0
 4431              		@ frame_needed = 0, uses_anonymous_args = 0
 4432 0000 10B5     		push	{r4, lr}
 4433 0002 0446     		mov	r4, r0
 4434 0004 FFF7FEFF 		bl	_ZN6uavcan17GenericSubscriberINS_8protocol12RestartNode_ENS2_8Request_ILi0EEENS_16TransferListe
 4435 0008 2046     		mov	r0, r4
 4436 000a FFF7FEFF 		bl	_ZdlPv
 4437 000e 2046     		mov	r0, r4
 4438 0010 10BD     		pop	{r4, pc}
 4439              		.size	_ZN6uavcan17GenericSubscriberINS_8protocol12RestartNode_ENS2_8Request_ILi0EEENS_16TransferLi
 4440              		.section	.text._ZN6uavcan22GlobalDataTypeRegistry16registerDataTypeINS_8protocol18GetTransportStat
 4441              		.align	1
 4442              		.weak	_ZN6uavcan22GlobalDataTypeRegistry16registerDataTypeINS_8protocol18GetTransportStats_EEENS0_
 4443              		.thumb
 4444              		.thumb_func
ARM GAS  /tmp/ccFEREDd.s 			page 79


 4445              		.type	_ZN6uavcan22GlobalDataTypeRegistry16registerDataTypeINS_8protocol18GetTransportStats_EEENS0_
 4446              	_ZN6uavcan22GlobalDataTypeRegistry16registerDataTypeINS_8protocol18GetTransportStats_EEENS0_18Regis
 4447              		@ args = 0, pretend = 0, frame = 40
 4448              		@ frame_needed = 0, uses_anonymous_args = 0
 4449 0000 70B5     		push	{r4, r5, r6, lr}
 4450 0002 037A     		ldrb	r3, [r0, #8]	@ zero_extendqisi2
 4451 0004 8AB0     		sub	sp, sp, #40
 4452 0006 0646     		mov	r6, r0
 4453 0008 0D46     		mov	r5, r1
 4454 000a 002B     		cmp	r3, #0
 4455 000c 3CD1     		bne	.L531
 4456 000e 244C     		ldr	r4, .L534+16
 4457 0010 2368     		ldr	r3, [r4]
 4458 0012 DB07     		lsls	r3, r3, #31
 4459 0014 09D4     		bmi	.L530
 4460 0016 2348     		ldr	r0, .L534+20
 4461 0018 FFF7FEFF 		bl	_ZN6uavcan22GlobalDataTypeRegistry5EntryC1Ev
 4462 001c 0123     		movs	r3, #1
 4463 001e 2148     		ldr	r0, .L534+20
 4464 0020 2149     		ldr	r1, .L534+24
 4465 0022 224A     		ldr	r2, .L534+28
 4466 0024 2360     		str	r3, [r4]
 4467 0026 FFF7FEFF 		bl	__aeabi_atexit
 4468              	.L530:
 4469 002a 3046     		mov	r0, r6
 4470 002c 1D49     		ldr	r1, .L534+20
 4471 002e FFF7FEFF 		bl	_ZN6uavcan22GlobalDataTypeRegistry6removeEPNS0_5EntryE
 4472 0032 0446     		mov	r4, r0
 4473 0034 48BB     		cbnz	r0, .L529
 4474 0036 16A3     		adr	r3, .L534
 4475 0038 D3E90023 		ldrd	r2, [r3]
 4476 003c 0AA8     		add	r0, sp, #40
 4477 003e 60E90A23 		strd	r2, [r0, #-40]!
 4478 0042 15A3     		adr	r3, .L534+8
 4479 0044 D3E90023 		ldrd	r2, [r3]
 4480 0048 FFF7FEFF 		bl	_ZN6uavcan17DataTypeSignature6extendES0_
 4481 004c DDE90023 		ldrd	r2, [sp]
 4482 0050 CDE90423 		strd	r2, [sp, #16]
 4483 0054 164B     		ldr	r3, .L534+32
 4484 0056 8DF81C40 		strb	r4, [sp, #28]
 4485 005a 0294     		str	r4, [sp, #8]
 4486 005c 114C     		ldr	r4, .L534+20
 4487 005e 0895     		str	r5, [sp, #32]
 4488 0060 0693     		str	r3, [sp, #24]
 4489 0062 02AD     		add	r5, sp, #8
 4490 0064 0FCD     		ldmia	r5!, {r0, r1, r2, r3}
 4491 0066 0FC4     		stmia	r4!, {r0, r1, r2, r3}
 4492 0068 95E80F00 		ldmia	r5, {r0, r1, r2, r3}
 4493 006c 84E80F00 		stmia	r4, {r0, r1, r2, r3}
 4494 0070 3046     		mov	r0, r6
 4495 0072 A4F11001 		sub	r1, r4, #16
 4496 0076 FFF7FEFF 		bl	_ZN6uavcan22GlobalDataTypeRegistry6removeEPNS0_5EntryE
 4497 007a 30B9     		cbnz	r0, .L529
 4498 007c 3046     		mov	r0, r6
 4499 007e A4F11001 		sub	r1, r4, #16
 4500 0082 FFF7FEFF 		bl	_ZN6uavcan22GlobalDataTypeRegistry10registImplEPNS0_5EntryE
 4501 0086 00E0     		b	.L529
ARM GAS  /tmp/ccFEREDd.s 			page 80


 4502              	.L531:
 4503 0088 0320     		movs	r0, #3
 4504              	.L529:
 4505 008a 0AB0     		add	sp, sp, #40
 4506              		@ sp needed
 4507 008c 70BD     		pop	{r4, r5, r6, pc}
 4508              	.L535:
 4509 008e 00BF     		.align	3
 4510              	.L534:
 4511 0090 B3611B53 		.word	1394303411
 4512 0094 54F6C731 		.word	835188308
 4513 0098 50A34CC4 		.word	-1001610416
 4514 009c F006B113 		.word	330368752
 4515 00a0 00000000 		.word	_ZGVZN6uavcan22GlobalDataTypeRegistry16registerDataTypeINS_8protocol18GetTransportStats_EEEN
 4516 00a4 00000000 		.word	_ZZN6uavcan22GlobalDataTypeRegistry16registerDataTypeINS_8protocol18GetTransportStats_EEENS0
 4517 00a8 00000000 		.word	_ZN6uavcan22GlobalDataTypeRegistry5EntryD1Ev
 4518 00ac 00000000 		.word	__dso_handle
 4519 00b0 5E010000 		.word	.LC16
 4520              		.size	_ZN6uavcan22GlobalDataTypeRegistry16registerDataTypeINS_8protocol18GetTransportStats_EEENS0_
 4521              		.section	.text._ZN6uavcan17GenericSubscriberINS_8protocol18GetTransportStats_ENS2_8Request_ILi0EEE
 4522              		.align	1
 4523              		.weak	_ZN6uavcan17GenericSubscriberINS_8protocol18GetTransportStats_ENS2_8Request_ILi0EEENS_16Tran
 4524              		.thumb
 4525              		.thumb_func
 4526              		.type	_ZN6uavcan17GenericSubscriberINS_8protocol18GetTransportStats_ENS2_8Request_ILi0EEENS_16Tran
 4527              	_ZN6uavcan17GenericSubscriberINS_8protocol18GetTransportStats_ENS2_8Request_ILi0EEENS_16TransferLis
 4528              		@ args = 0, pretend = 0, frame = 8
 4529              		@ frame_needed = 0, uses_anonymous_args = 0
 4530 0000 13B5     		push	{r0, r1, r4, lr}
 4531 0002 0446     		mov	r4, r0
 4532 0004 0C4B     		ldr	r3, .L541
 4533 0006 40F8043B 		str	r3, [r0], #4
 4534 000a A16B     		ldr	r1, [r4, #56]
 4535 000c FFF7FEFF 		bl	_ZN6uavcan21GenericSubscriberBase4stopEPNS_16TransferListenerE
 4536 0010 A06B     		ldr	r0, [r4, #56]
 4537 0012 10B1     		cbz	r0, .L537
 4538 0014 0368     		ldr	r3, [r0]
 4539 0016 5B68     		ldr	r3, [r3, #4]
 4540 0018 9847     		blx	r3
 4541              	.L537:
 4542 001a 0023     		movs	r3, #0
 4543 001c 02AA     		add	r2, sp, #8
 4544 001e 04F10C00 		add	r0, r4, #12
 4545 0022 A363     		str	r3, [r4, #56]
 4546 0024 02F8013D 		strb	r3, [r2, #-1]!
 4547 0028 04F13801 		add	r1, r4, #56
 4548 002c FFF7FEFF 		bl	_ZN6uavcan4fillIPhhEEvT_S2_RKT0_
 4549 0030 2046     		mov	r0, r4
 4550 0032 02B0     		add	sp, sp, #8
 4551              		@ sp needed
 4552 0034 10BD     		pop	{r4, pc}
 4553              	.L542:
 4554 0036 00BF     		.align	2
 4555              	.L541:
 4556 0038 08000000 		.word	_ZTVN6uavcan17GenericSubscriberINS_8protocol18GetTransportStats_ENS2_8Request_ILi0EEENS_16Tr
 4557              		.size	_ZN6uavcan17GenericSubscriberINS_8protocol18GetTransportStats_ENS2_8Request_ILi0EEENS_16Tran
 4558              		.weak	_ZN6uavcan17GenericSubscriberINS_8protocol18GetTransportStats_ENS2_8Request_ILi0EEENS_16Tran
ARM GAS  /tmp/ccFEREDd.s 			page 81


 4559              		.thumb_set _ZN6uavcan17GenericSubscriberINS_8protocol18GetTransportStats_ENS2_8Request_ILi0EEENS_1
 4560              		.section	.text._ZN6uavcan13ServiceServerINS_8protocol18GetTransportStats_ENS_12MethodBinderIPKNS_2
 4561              		.align	1
 4562              		.weak	_ZN6uavcan13ServiceServerINS_8protocol18GetTransportStats_ENS_12MethodBinderIPKNS_22Transpor
 4563              		.thumb
 4564              		.thumb_func
 4565              		.type	_ZN6uavcan13ServiceServerINS_8protocol18GetTransportStats_ENS_12MethodBinderIPKNS_22Transpor
 4566              	_ZN6uavcan13ServiceServerINS_8protocol18GetTransportStats_ENS_12MethodBinderIPKNS_22TransportStatsP
 4567              		@ args = 0, pretend = 0, frame = 0
 4568              		@ frame_needed = 0, uses_anonymous_args = 0
 4569 0000 10B5     		push	{r4, lr}
 4570 0002 0446     		mov	r4, r0
 4571 0004 024B     		ldr	r3, .L544
 4572 0006 0360     		str	r3, [r0]
 4573 0008 FFF7FEFF 		bl	_ZN6uavcan17GenericSubscriberINS_8protocol18GetTransportStats_ENS2_8Request_ILi0EEENS_16Transfe
 4574 000c 2046     		mov	r0, r4
 4575 000e 10BD     		pop	{r4, pc}
 4576              	.L545:
 4577              		.align	2
 4578              	.L544:
 4579 0010 08000000 		.word	_ZTVN6uavcan13ServiceServerINS_8protocol18GetTransportStats_ENS_12MethodBinderIPKNS_22Transp
 4580              		.size	_ZN6uavcan13ServiceServerINS_8protocol18GetTransportStats_ENS_12MethodBinderIPKNS_22Transpor
 4581              		.weak	_ZN6uavcan13ServiceServerINS_8protocol18GetTransportStats_ENS_12MethodBinderIPKNS_22Transpor
 4582              		.thumb_set _ZN6uavcan13ServiceServerINS_8protocol18GetTransportStats_ENS_12MethodBinderIPKNS_22Tra
 4583              		.section	.text._ZN6uavcan13ServiceServerINS_8protocol18GetTransportStats_ENS_12MethodBinderIPKNS_2
 4584              		.align	1
 4585              		.weak	_ZN6uavcan13ServiceServerINS_8protocol18GetTransportStats_ENS_12MethodBinderIPKNS_22Transpor
 4586              		.thumb
 4587              		.thumb_func
 4588              		.type	_ZN6uavcan13ServiceServerINS_8protocol18GetTransportStats_ENS_12MethodBinderIPKNS_22Transpor
 4589              	_ZN6uavcan13ServiceServerINS_8protocol18GetTransportStats_ENS_12MethodBinderIPKNS_22TransportStatsP
 4590              		@ args = 0, pretend = 0, frame = 0
 4591              		@ frame_needed = 0, uses_anonymous_args = 0
 4592 0000 10B5     		push	{r4, lr}
 4593 0002 0446     		mov	r4, r0
 4594 0004 FFF7FEFF 		bl	_ZN6uavcan13ServiceServerINS_8protocol18GetTransportStats_ENS_12MethodBinderIPKNS_22TransportSt
 4595 0008 2046     		mov	r0, r4
 4596 000a FFF7FEFF 		bl	_ZdlPv
 4597 000e 2046     		mov	r0, r4
 4598 0010 10BD     		pop	{r4, pc}
 4599              		.size	_ZN6uavcan13ServiceServerINS_8protocol18GetTransportStats_ENS_12MethodBinderIPKNS_22Transpor
 4600              		.section	.text._ZN6uavcan17GenericSubscriberINS_8protocol18GetTransportStats_ENS2_8Request_ILi0EEE
 4601              		.align	1
 4602              		.weak	_ZN6uavcan17GenericSubscriberINS_8protocol18GetTransportStats_ENS2_8Request_ILi0EEENS_16Tran
 4603              		.thumb
 4604              		.thumb_func
 4605              		.type	_ZN6uavcan17GenericSubscriberINS_8protocol18GetTransportStats_ENS2_8Request_ILi0EEENS_16Tran
 4606              	_ZN6uavcan17GenericSubscriberINS_8protocol18GetTransportStats_ENS2_8Request_ILi0EEENS_16TransferLis
 4607              		@ args = 0, pretend = 0, frame = 0
 4608              		@ frame_needed = 0, uses_anonymous_args = 0
 4609 0000 10B5     		push	{r4, lr}
 4610 0002 0446     		mov	r4, r0
 4611 0004 FFF7FEFF 		bl	_ZN6uavcan17GenericSubscriberINS_8protocol18GetTransportStats_ENS2_8Request_ILi0EEENS_16Transfe
 4612 0008 2046     		mov	r0, r4
 4613 000a FFF7FEFF 		bl	_ZdlPv
 4614 000e 2046     		mov	r0, r4
 4615 0010 10BD     		pop	{r4, pc}
ARM GAS  /tmp/ccFEREDd.s 			page 82


 4616              		.size	_ZN6uavcan17GenericSubscriberINS_8protocol18GetTransportStats_ENS2_8Request_ILi0EEENS_16Tran
 4617              		.section	.text._ZN6uavcan16GenericPublisherINS_8protocol15GlobalTimeSync_ILi0EEES3_E9checkInitEv,"
 4618              		.align	1
 4619              		.weak	_ZN6uavcan16GenericPublisherINS_8protocol15GlobalTimeSync_ILi0EEES3_E9checkInitEv
 4620              		.thumb
 4621              		.thumb_func
 4622              		.type	_ZN6uavcan16GenericPublisherINS_8protocol15GlobalTimeSync_ILi0EEES3_E9checkInitEv, %function
 4623              	_ZN6uavcan16GenericPublisherINS_8protocol15GlobalTimeSync_ILi0EEES3_E9checkInitEv:
 4624              		@ args = 0, pretend = 0, frame = 0
 4625              		@ frame_needed = 0, uses_anonymous_args = 0
 4626 0000 10B5     		push	{r4, lr}
 4627 0002 0446     		mov	r4, r0
 4628 0004 FFF7FEFF 		bl	_ZNK6uavcan20GenericPublisherBase8isInitedEv
 4629 0008 0346     		mov	r3, r0
 4630 000a 30B9     		cbnz	r0, .L549
 4631 000c 2046     		mov	r0, r4
 4632 000e BDE81040 		pop	{r4, lr}
 4633 0012 0121     		movs	r1, #1
 4634 0014 024A     		ldr	r2, .L550
 4635 0016 FFF7FEBF 		b	_ZN6uavcan20GenericPublisherBase6doInitENS_12DataTypeKindEPKcNS_10CanTxQueue3QosE
 4636              	.L549:
 4637 001a 0020     		movs	r0, #0
 4638 001c 10BD     		pop	{r4, pc}
 4639              	.L551:
 4640 001e 00BF     		.align	2
 4641              	.L550:
 4642 0020 80010000 		.word	.LC17
 4643              		.size	_ZN6uavcan16GenericPublisherINS_8protocol15GlobalTimeSync_ILi0EEES3_E9checkInitEv, .-_ZN6uav
 4644              		.section	.text._ZN6uavcan20GlobalTimeSyncMaster4initENS_16TransferPriorityE,"axG",%progbits,_ZN6ua
 4645              		.align	1
 4646              		.weak	_ZN6uavcan20GlobalTimeSyncMaster4initENS_16TransferPriorityE
 4647              		.thumb
 4648              		.thumb_func
 4649              		.type	_ZN6uavcan20GlobalTimeSyncMaster4initENS_16TransferPriorityE, %function
 4650              	_ZN6uavcan20GlobalTimeSyncMaster4initENS_16TransferPriorityE:
 4651              		@ args = 0, pretend = 0, frame = 16
 4652              		@ frame_needed = 0, uses_anonymous_args = 0
 4653 0000 2DE9F043 		push	{r4, r5, r6, r7, r8, r9, lr}
 4654 0004 90F8F460 		ldrb	r6, [r0, #244]	@ zero_extendqisi2
 4655 0008 85B0     		sub	sp, sp, #20
 4656 000a 0746     		mov	r7, r0
 4657 000c 8946     		mov	r9, r1
 4658 000e 002E     		cmp	r6, #0
 4659 0010 4FD1     		bne	.L560
 4660 0012 FFF7FEFF 		bl	_ZN6uavcan22GlobalDataTypeRegistry8instanceEv
 4661 0016 0121     		movs	r1, #1
 4662 0018 294A     		ldr	r2, .L564
 4663 001a FFF7FEFF 		bl	_ZNK6uavcan22GlobalDataTypeRegistry4findENS_12DataTypeKindEPKc
 4664 001e 0028     		cmp	r0, #0
 4665 0020 49D0     		beq	.L561
 4666 0022 0369     		ldr	r3, [r0, #16]
 4667 0024 07F11004 		add	r4, r7, #16
 4668 0028 C7F8F030 		str	r3, [r7, #240]
 4669              	.L558:
 4670 002c 236C     		ldr	r3, [r4, #64]
 4671 002e F5B2     		uxtb	r5, r6
 4672 0030 B3B9     		cbnz	r3, .L554
ARM GAS  /tmp/ccFEREDd.s 			page 83


 4673 0032 244A     		ldr	r2, .L564+4
 4674 0034 0023     		movs	r3, #0
 4675 0036 CDE90223 		strd	r2, [sp, #8]
 4676 003a 234A     		ldr	r2, .L564+8
 4677 003c 0023     		movs	r3, #0
 4678 003e CDE90023 		strd	r2, [sp]
 4679 0042 2046     		mov	r0, r4
 4680 0044 02AA     		add	r2, sp, #8
 4681 0046 6B46     		mov	r3, sp
 4682 0048 F968     		ldr	r1, [r7, #12]
 4683 004a FFF7FEFF 		bl	_ZN6uavcan20GenericPublisherBaseC2ERNS_5INodeENS_17MonotonicDurationES3_
 4684 004e 0022     		movs	r2, #0
 4685 0050 0023     		movs	r3, #0
 4686 0052 C4E90A23 		strd	r2, [r4, #40]
 4687 0056 C4E90C23 		strd	r2, [r4, #48]
 4688 005a 84F83850 		strb	r5, [r4, #56]
 4689 005e 2464     		str	r4, [r4, #64]
 4690              	.L554:
 4691 0060 D4F84080 		ldr	r8, [r4, #64]
 4692 0064 B8F1000F 		cmp	r8, #0
 4693 0068 02D1     		bne	.L555
 4694 006a 1848     		ldr	r0, .L564+12
 4695 006c FFF7FEFF 		bl	_ZN6uavcan16handleFatalErrorEPKc
 4696              	.L555:
 4697 0070 88F80C90 		strb	r9, [r8, #12]
 4698 0074 4046     		mov	r0, r8
 4699 0076 FFF7FEFF 		bl	_ZN6uavcan16GenericPublisherINS_8protocol15GlobalTimeSync_ILi0EEES3_E9checkInitEv
 4700 007a 051E     		subs	r5, r0, #0
 4701 007c 08DA     		bge	.L556
 4702              	.L559:
 4703 007e EB43     		mvns	r3, r5
 4704 0080 DB0F     		lsrs	r3, r3, #31
 4705 0082 87F8F430 		strb	r3, [r7, #244]
 4706 0086 93B1     		cbz	r3, .L563
 4707 0088 3846     		mov	r0, r7
 4708 008a FFF7FEFF 		bl	_ZN6uavcan25LoopbackFrameListenerBase14startListeningEv
 4709 008e 0EE0     		b	.L563
 4710              	.L556:
 4711 0090 0123     		movs	r3, #1
 4712 0092 98F83820 		ldrb	r2, [r8, #56]	@ zero_extendqisi2
 4713 0096 1E44     		add	r6, r6, r3
 4714 0098 03FA02F2 		lsl	r2, r3, r2
 4715 009c 032E     		cmp	r6, #3
 4716 009e 88F81620 		strb	r2, [r8, #22]
 4717 00a2 A8F81430 		strh	r3, [r8, #20]	@ movhi
 4718 00a6 04F14804 		add	r4, r4, #72
 4719 00aa BFD1     		bne	.L558
 4720 00ac E7E7     		b	.L559
 4721              	.L563:
 4722 00ae 2846     		mov	r0, r5
 4723 00b0 03E0     		b	.L553
 4724              	.L560:
 4725 00b2 0020     		movs	r0, #0
 4726 00b4 01E0     		b	.L553
 4727              	.L561:
 4728 00b6 6FF00400 		mvn	r0, #4
 4729              	.L553:
ARM GAS  /tmp/ccFEREDd.s 			page 84


 4730 00ba 05B0     		add	sp, sp, #20
 4731              		@ sp needed
 4732 00bc BDE8F083 		pop	{r4, r5, r6, r7, r8, r9, pc}
 4733              	.L565:
 4734              		.align	2
 4735              	.L564:
 4736 00c0 80010000 		.word	.LC17
 4737 00c4 A0860100 		.word	100000
 4738 00c8 00879303 		.word	60000000
 4739 00cc 1A000000 		.word	.LC2
 4740              		.size	_ZN6uavcan20GlobalTimeSyncMaster4initENS_16TransferPriorityE, .-_ZN6uavcan20GlobalTimeSyncMa
 4741              		.section	.text._ZN6uavcan17GenericSubscriberINS_8protocol15GlobalTimeSync_ILi0EEES3_NS_16TransferL
 4742              		.align	1
 4743              		.weak	_ZN6uavcan17GenericSubscriberINS_8protocol15GlobalTimeSync_ILi0EEES3_NS_16TransferListenerEE
 4744              		.thumb
 4745              		.thumb_func
 4746              		.type	_ZN6uavcan17GenericSubscriberINS_8protocol15GlobalTimeSync_ILi0EEES3_NS_16TransferListenerEE
 4747              	_ZN6uavcan17GenericSubscriberINS_8protocol15GlobalTimeSync_ILi0EEES3_NS_16TransferListenerEED2Ev:
 4748              		@ args = 0, pretend = 0, frame = 8
 4749              		@ frame_needed = 0, uses_anonymous_args = 0
 4750 0000 13B5     		push	{r0, r1, r4, lr}
 4751 0002 0446     		mov	r4, r0
 4752 0004 0C4B     		ldr	r3, .L571
 4753 0006 40F8043B 		str	r3, [r0], #4
 4754 000a A16B     		ldr	r1, [r4, #56]
 4755 000c FFF7FEFF 		bl	_ZN6uavcan21GenericSubscriberBase4stopEPNS_16TransferListenerE
 4756 0010 A06B     		ldr	r0, [r4, #56]
 4757 0012 10B1     		cbz	r0, .L567
 4758 0014 0368     		ldr	r3, [r0]
 4759 0016 5B68     		ldr	r3, [r3, #4]
 4760 0018 9847     		blx	r3
 4761              	.L567:
 4762 001a 0023     		movs	r3, #0
 4763 001c 02AA     		add	r2, sp, #8
 4764 001e 04F10C00 		add	r0, r4, #12
 4765 0022 A363     		str	r3, [r4, #56]
 4766 0024 02F8013D 		strb	r3, [r2, #-1]!
 4767 0028 04F13801 		add	r1, r4, #56
 4768 002c FFF7FEFF 		bl	_ZN6uavcan4fillIPhhEEvT_S2_RKT0_
 4769 0030 2046     		mov	r0, r4
 4770 0032 02B0     		add	sp, sp, #8
 4771              		@ sp needed
 4772 0034 10BD     		pop	{r4, pc}
 4773              	.L572:
 4774 0036 00BF     		.align	2
 4775              	.L571:
 4776 0038 08000000 		.word	_ZTVN6uavcan17GenericSubscriberINS_8protocol15GlobalTimeSync_ILi0EEES3_NS_16TransferListener
 4777              		.size	_ZN6uavcan17GenericSubscriberINS_8protocol15GlobalTimeSync_ILi0EEES3_NS_16TransferListenerEE
 4778              		.weak	_ZN6uavcan17GenericSubscriberINS_8protocol15GlobalTimeSync_ILi0EEES3_NS_16TransferListenerEE
 4779              		.thumb_set _ZN6uavcan17GenericSubscriberINS_8protocol15GlobalTimeSync_ILi0EEES3_NS_16TransferListe
 4780              		.section	.text._ZN6uavcan10SubscriberINS_8protocol15GlobalTimeSync_ILi0EEENS_12MethodBinderIPNS_19
 4781              		.align	1
 4782              		.weak	_ZN6uavcan10SubscriberINS_8protocol15GlobalTimeSync_ILi0EEENS_12MethodBinderIPNS_19GlobalTim
 4783              		.thumb
 4784              		.thumb_func
 4785              		.type	_ZN6uavcan10SubscriberINS_8protocol15GlobalTimeSync_ILi0EEENS_12MethodBinderIPNS_19GlobalTim
 4786              	_ZN6uavcan10SubscriberINS_8protocol15GlobalTimeSync_ILi0EEENS_12MethodBinderIPNS_19GlobalTimeSyncSl
ARM GAS  /tmp/ccFEREDd.s 			page 85


 4787              		@ args = 0, pretend = 0, frame = 0
 4788              		@ frame_needed = 0, uses_anonymous_args = 0
 4789 0000 10B5     		push	{r4, lr}
 4790 0002 0446     		mov	r4, r0
 4791 0004 024B     		ldr	r3, .L574
 4792 0006 0360     		str	r3, [r0]
 4793 0008 FFF7FEFF 		bl	_ZN6uavcan17GenericSubscriberINS_8protocol15GlobalTimeSync_ILi0EEES3_NS_16TransferListenerEED2E
 4794 000c 2046     		mov	r0, r4
 4795 000e 10BD     		pop	{r4, pc}
 4796              	.L575:
 4797              		.align	2
 4798              	.L574:
 4799 0010 08000000 		.word	_ZTVN6uavcan10SubscriberINS_8protocol15GlobalTimeSync_ILi0EEENS_12MethodBinderIPNS_19GlobalT
 4800              		.size	_ZN6uavcan10SubscriberINS_8protocol15GlobalTimeSync_ILi0EEENS_12MethodBinderIPNS_19GlobalTim
 4801              		.weak	_ZN6uavcan10SubscriberINS_8protocol15GlobalTimeSync_ILi0EEENS_12MethodBinderIPNS_19GlobalTim
 4802              		.thumb_set _ZN6uavcan10SubscriberINS_8protocol15GlobalTimeSync_ILi0EEENS_12MethodBinderIPNS_19Glob
 4803              		.section	.text._ZN6uavcan19GlobalTimeSyncSlaveD2Ev,"axG",%progbits,_ZN6uavcan19GlobalTimeSyncSlave
 4804              		.align	1
 4805              		.weak	_ZN6uavcan19GlobalTimeSyncSlaveD2Ev
 4806              		.thumb
 4807              		.thumb_func
 4808              		.type	_ZN6uavcan19GlobalTimeSyncSlaveD2Ev, %function
 4809              	_ZN6uavcan19GlobalTimeSyncSlaveD2Ev:
 4810              		@ args = 0, pretend = 0, frame = 0
 4811              		@ frame_needed = 0, uses_anonymous_args = 0
 4812 0000 10B5     		push	{r4, lr}
 4813 0002 0446     		mov	r4, r0
 4814 0004 FFF7FEFF 		bl	_ZN6uavcan10SubscriberINS_8protocol15GlobalTimeSync_ILi0EEENS_12MethodBinderIPNS_19GlobalTimeSy
 4815 0008 2046     		mov	r0, r4
 4816 000a 10BD     		pop	{r4, pc}
 4817              		.size	_ZN6uavcan19GlobalTimeSyncSlaveD2Ev, .-_ZN6uavcan19GlobalTimeSyncSlaveD2Ev
 4818              		.weak	_ZN6uavcan19GlobalTimeSyncSlaveD1Ev
 4819              		.thumb_set _ZN6uavcan19GlobalTimeSyncSlaveD1Ev,_ZN6uavcan19GlobalTimeSyncSlaveD2Ev
 4820              		.section	.text._ZN6uavcan10SubscriberINS_8protocol15GlobalTimeSync_ILi0EEENS_12MethodBinderIPNS_19
 4821              		.align	1
 4822              		.weak	_ZN6uavcan10SubscriberINS_8protocol15GlobalTimeSync_ILi0EEENS_12MethodBinderIPNS_19GlobalTim
 4823              		.thumb
 4824              		.thumb_func
 4825              		.type	_ZN6uavcan10SubscriberINS_8protocol15GlobalTimeSync_ILi0EEENS_12MethodBinderIPNS_19GlobalTim
 4826              	_ZN6uavcan10SubscriberINS_8protocol15GlobalTimeSync_ILi0EEENS_12MethodBinderIPNS_19GlobalTimeSyncSl
 4827              		@ args = 0, pretend = 0, frame = 0
 4828              		@ frame_needed = 0, uses_anonymous_args = 0
 4829 0000 10B5     		push	{r4, lr}
 4830 0002 0446     		mov	r4, r0
 4831 0004 FFF7FEFF 		bl	_ZN6uavcan10SubscriberINS_8protocol15GlobalTimeSync_ILi0EEENS_12MethodBinderIPNS_19GlobalTimeSy
 4832 0008 2046     		mov	r0, r4
 4833 000a FFF7FEFF 		bl	_ZdlPv
 4834 000e 2046     		mov	r0, r4
 4835 0010 10BD     		pop	{r4, pc}
 4836              		.size	_ZN6uavcan10SubscriberINS_8protocol15GlobalTimeSync_ILi0EEENS_12MethodBinderIPNS_19GlobalTim
 4837              		.section	.text._ZN6uavcan17GenericSubscriberINS_8protocol15GlobalTimeSync_ILi0EEES3_NS_16TransferL
 4838              		.align	1
 4839              		.weak	_ZN6uavcan17GenericSubscriberINS_8protocol15GlobalTimeSync_ILi0EEES3_NS_16TransferListenerEE
 4840              		.thumb
 4841              		.thumb_func
 4842              		.type	_ZN6uavcan17GenericSubscriberINS_8protocol15GlobalTimeSync_ILi0EEES3_NS_16TransferListenerEE
 4843              	_ZN6uavcan17GenericSubscriberINS_8protocol15GlobalTimeSync_ILi0EEES3_NS_16TransferListenerEED0Ev:
ARM GAS  /tmp/ccFEREDd.s 			page 86


 4844              		@ args = 0, pretend = 0, frame = 0
 4845              		@ frame_needed = 0, uses_anonymous_args = 0
 4846 0000 10B5     		push	{r4, lr}
 4847 0002 0446     		mov	r4, r0
 4848 0004 FFF7FEFF 		bl	_ZN6uavcan17GenericSubscriberINS_8protocol15GlobalTimeSync_ILi0EEES3_NS_16TransferListenerEED1E
 4849 0008 2046     		mov	r0, r4
 4850 000a FFF7FEFF 		bl	_ZdlPv
 4851 000e 2046     		mov	r0, r4
 4852 0010 10BD     		pop	{r4, pc}
 4853              		.size	_ZN6uavcan17GenericSubscriberINS_8protocol15GlobalTimeSync_ILi0EEES3_NS_16TransferListenerEE
 4854              		.section	.text._ZN6uavcan17GenericSubscriberINS_8protocol5param7GetSet_ENS3_8Request_ILi0EEENS_16T
 4855              		.align	1
 4856              		.weak	_ZN6uavcan17GenericSubscriberINS_8protocol5param7GetSet_ENS3_8Request_ILi0EEENS_16TransferLi
 4857              		.thumb
 4858              		.thumb_func
 4859              		.type	_ZN6uavcan17GenericSubscriberINS_8protocol5param7GetSet_ENS3_8Request_ILi0EEENS_16TransferLi
 4860              	_ZN6uavcan17GenericSubscriberINS_8protocol5param7GetSet_ENS3_8Request_ILi0EEENS_16TransferListenerE
 4861              		@ args = 0, pretend = 0, frame = 8
 4862              		@ frame_needed = 0, uses_anonymous_args = 0
 4863 0000 13B5     		push	{r0, r1, r4, lr}
 4864 0002 0446     		mov	r4, r0
 4865 0004 0C4B     		ldr	r3, .L584
 4866 0006 40F8043B 		str	r3, [r0], #4
 4867 000a A16B     		ldr	r1, [r4, #56]
 4868 000c FFF7FEFF 		bl	_ZN6uavcan21GenericSubscriberBase4stopEPNS_16TransferListenerE
 4869 0010 A06B     		ldr	r0, [r4, #56]
 4870 0012 10B1     		cbz	r0, .L580
 4871 0014 0368     		ldr	r3, [r0]
 4872 0016 5B68     		ldr	r3, [r3, #4]
 4873 0018 9847     		blx	r3
 4874              	.L580:
 4875 001a 0023     		movs	r3, #0
 4876 001c 02AA     		add	r2, sp, #8
 4877 001e 04F10C00 		add	r0, r4, #12
 4878 0022 A363     		str	r3, [r4, #56]
 4879 0024 02F8013D 		strb	r3, [r2, #-1]!
 4880 0028 04F13801 		add	r1, r4, #56
 4881 002c FFF7FEFF 		bl	_ZN6uavcan4fillIPhhEEvT_S2_RKT0_
 4882 0030 2046     		mov	r0, r4
 4883 0032 02B0     		add	sp, sp, #8
 4884              		@ sp needed
 4885 0034 10BD     		pop	{r4, pc}
 4886              	.L585:
 4887 0036 00BF     		.align	2
 4888              	.L584:
 4889 0038 08000000 		.word	_ZTVN6uavcan17GenericSubscriberINS_8protocol5param7GetSet_ENS3_8Request_ILi0EEENS_16Transfer
 4890              		.size	_ZN6uavcan17GenericSubscriberINS_8protocol5param7GetSet_ENS3_8Request_ILi0EEENS_16TransferLi
 4891              		.weak	_ZN6uavcan17GenericSubscriberINS_8protocol5param7GetSet_ENS3_8Request_ILi0EEENS_16TransferLi
 4892              		.thumb_set _ZN6uavcan17GenericSubscriberINS_8protocol5param7GetSet_ENS3_8Request_ILi0EEENS_16Trans
 4893              		.section	.text._ZN6uavcan13ServiceServerINS_8protocol5param7GetSet_ENS_12MethodBinderIPNS_11ParamS
 4894              		.align	1
 4895              		.weak	_ZN6uavcan13ServiceServerINS_8protocol5param7GetSet_ENS_12MethodBinderIPNS_11ParamServerEMS5
 4896              		.thumb
 4897              		.thumb_func
 4898              		.type	_ZN6uavcan13ServiceServerINS_8protocol5param7GetSet_ENS_12MethodBinderIPNS_11ParamServerEMS5
 4899              	_ZN6uavcan13ServiceServerINS_8protocol5param7GetSet_ENS_12MethodBinderIPNS_11ParamServerEMS5_FvRKNS
 4900              		@ args = 0, pretend = 0, frame = 0
ARM GAS  /tmp/ccFEREDd.s 			page 87


 4901              		@ frame_needed = 0, uses_anonymous_args = 0
 4902 0000 10B5     		push	{r4, lr}
 4903 0002 0446     		mov	r4, r0
 4904 0004 024B     		ldr	r3, .L587
 4905 0006 0360     		str	r3, [r0]
 4906 0008 FFF7FEFF 		bl	_ZN6uavcan17GenericSubscriberINS_8protocol5param7GetSet_ENS3_8Request_ILi0EEENS_16TransferListe
 4907 000c 2046     		mov	r0, r4
 4908 000e 10BD     		pop	{r4, pc}
 4909              	.L588:
 4910              		.align	2
 4911              	.L587:
 4912 0010 08000000 		.word	_ZTVN6uavcan13ServiceServerINS_8protocol5param7GetSet_ENS_12MethodBinderIPNS_11ParamServerEM
 4913              		.size	_ZN6uavcan13ServiceServerINS_8protocol5param7GetSet_ENS_12MethodBinderIPNS_11ParamServerEMS5
 4914              		.weak	_ZN6uavcan13ServiceServerINS_8protocol5param7GetSet_ENS_12MethodBinderIPNS_11ParamServerEMS5
 4915              		.thumb_set _ZN6uavcan13ServiceServerINS_8protocol5param7GetSet_ENS_12MethodBinderIPNS_11ParamServe
 4916              		.section	.text._ZN6uavcan13ServiceServerINS_8protocol5param7GetSet_ENS_12MethodBinderIPNS_11ParamS
 4917              		.align	1
 4918              		.weak	_ZN6uavcan13ServiceServerINS_8protocol5param7GetSet_ENS_12MethodBinderIPNS_11ParamServerEMS5
 4919              		.thumb
 4920              		.thumb_func
 4921              		.type	_ZN6uavcan13ServiceServerINS_8protocol5param7GetSet_ENS_12MethodBinderIPNS_11ParamServerEMS5
 4922              	_ZN6uavcan13ServiceServerINS_8protocol5param7GetSet_ENS_12MethodBinderIPNS_11ParamServerEMS5_FvRKNS
 4923              		@ args = 0, pretend = 0, frame = 0
 4924              		@ frame_needed = 0, uses_anonymous_args = 0
 4925 0000 10B5     		push	{r4, lr}
 4926 0002 0446     		mov	r4, r0
 4927 0004 FFF7FEFF 		bl	_ZN6uavcan13ServiceServerINS_8protocol5param7GetSet_ENS_12MethodBinderIPNS_11ParamServerEMS5_Fv
 4928 0008 2046     		mov	r0, r4
 4929 000a FFF7FEFF 		bl	_ZdlPv
 4930 000e 2046     		mov	r0, r4
 4931 0010 10BD     		pop	{r4, pc}
 4932              		.size	_ZN6uavcan13ServiceServerINS_8protocol5param7GetSet_ENS_12MethodBinderIPNS_11ParamServerEMS5
 4933              		.section	.text._ZN6uavcan17GenericSubscriberINS_8protocol5param7GetSet_ENS3_8Request_ILi0EEENS_16T
 4934              		.align	1
 4935              		.weak	_ZN6uavcan17GenericSubscriberINS_8protocol5param7GetSet_ENS3_8Request_ILi0EEENS_16TransferLi
 4936              		.thumb
 4937              		.thumb_func
 4938              		.type	_ZN6uavcan17GenericSubscriberINS_8protocol5param7GetSet_ENS3_8Request_ILi0EEENS_16TransferLi
 4939              	_ZN6uavcan17GenericSubscriberINS_8protocol5param7GetSet_ENS3_8Request_ILi0EEENS_16TransferListenerE
 4940              		@ args = 0, pretend = 0, frame = 0
 4941              		@ frame_needed = 0, uses_anonymous_args = 0
 4942 0000 10B5     		push	{r4, lr}
 4943 0002 0446     		mov	r4, r0
 4944 0004 FFF7FEFF 		bl	_ZN6uavcan17GenericSubscriberINS_8protocol5param7GetSet_ENS3_8Request_ILi0EEENS_16TransferListe
 4945 0008 2046     		mov	r0, r4
 4946 000a FFF7FEFF 		bl	_ZdlPv
 4947 000e 2046     		mov	r0, r4
 4948 0010 10BD     		pop	{r4, pc}
 4949              		.size	_ZN6uavcan17GenericSubscriberINS_8protocol5param7GetSet_ENS3_8Request_ILi0EEENS_16TransferLi
 4950              		.section	.text._ZN6uavcan17GenericSubscriberINS_8protocol5param14ExecuteOpcode_ENS3_8Request_ILi0E
 4951              		.align	1
 4952              		.weak	_ZN6uavcan17GenericSubscriberINS_8protocol5param14ExecuteOpcode_ENS3_8Request_ILi0EEENS_16Tr
 4953              		.thumb
 4954              		.thumb_func
 4955              		.type	_ZN6uavcan17GenericSubscriberINS_8protocol5param14ExecuteOpcode_ENS3_8Request_ILi0EEENS_16Tr
 4956              	_ZN6uavcan17GenericSubscriberINS_8protocol5param14ExecuteOpcode_ENS3_8Request_ILi0EEENS_16TransferL
 4957              		@ args = 0, pretend = 0, frame = 8
ARM GAS  /tmp/ccFEREDd.s 			page 88


 4958              		@ frame_needed = 0, uses_anonymous_args = 0
 4959 0000 13B5     		push	{r0, r1, r4, lr}
 4960 0002 0446     		mov	r4, r0
 4961 0004 0C4B     		ldr	r3, .L596
 4962 0006 40F8043B 		str	r3, [r0], #4
 4963 000a A16B     		ldr	r1, [r4, #56]
 4964 000c FFF7FEFF 		bl	_ZN6uavcan21GenericSubscriberBase4stopEPNS_16TransferListenerE
 4965 0010 A06B     		ldr	r0, [r4, #56]
 4966 0012 10B1     		cbz	r0, .L592
 4967 0014 0368     		ldr	r3, [r0]
 4968 0016 5B68     		ldr	r3, [r3, #4]
 4969 0018 9847     		blx	r3
 4970              	.L592:
 4971 001a 0023     		movs	r3, #0
 4972 001c 02AA     		add	r2, sp, #8
 4973 001e 04F10C00 		add	r0, r4, #12
 4974 0022 A363     		str	r3, [r4, #56]
 4975 0024 02F8013D 		strb	r3, [r2, #-1]!
 4976 0028 04F13801 		add	r1, r4, #56
 4977 002c FFF7FEFF 		bl	_ZN6uavcan4fillIPhhEEvT_S2_RKT0_
 4978 0030 2046     		mov	r0, r4
 4979 0032 02B0     		add	sp, sp, #8
 4980              		@ sp needed
 4981 0034 10BD     		pop	{r4, pc}
 4982              	.L597:
 4983 0036 00BF     		.align	2
 4984              	.L596:
 4985 0038 08000000 		.word	_ZTVN6uavcan17GenericSubscriberINS_8protocol5param14ExecuteOpcode_ENS3_8Request_ILi0EEENS_16
 4986              		.size	_ZN6uavcan17GenericSubscriberINS_8protocol5param14ExecuteOpcode_ENS3_8Request_ILi0EEENS_16Tr
 4987              		.weak	_ZN6uavcan17GenericSubscriberINS_8protocol5param14ExecuteOpcode_ENS3_8Request_ILi0EEENS_16Tr
 4988              		.thumb_set _ZN6uavcan17GenericSubscriberINS_8protocol5param14ExecuteOpcode_ENS3_8Request_ILi0EEENS
 4989              		.section	.text._ZN6uavcan13ServiceServerINS_8protocol5param14ExecuteOpcode_ENS_12MethodBinderIPNS_
 4990              		.align	1
 4991              		.weak	_ZN6uavcan13ServiceServerINS_8protocol5param14ExecuteOpcode_ENS_12MethodBinderIPNS_11ParamSe
 4992              		.thumb
 4993              		.thumb_func
 4994              		.type	_ZN6uavcan13ServiceServerINS_8protocol5param14ExecuteOpcode_ENS_12MethodBinderIPNS_11ParamSe
 4995              	_ZN6uavcan13ServiceServerINS_8protocol5param14ExecuteOpcode_ENS_12MethodBinderIPNS_11ParamServerEMS
 4996              		@ args = 0, pretend = 0, frame = 0
 4997              		@ frame_needed = 0, uses_anonymous_args = 0
 4998 0000 10B5     		push	{r4, lr}
 4999 0002 0446     		mov	r4, r0
 5000 0004 024B     		ldr	r3, .L599
 5001 0006 0360     		str	r3, [r0]
 5002 0008 FFF7FEFF 		bl	_ZN6uavcan17GenericSubscriberINS_8protocol5param14ExecuteOpcode_ENS3_8Request_ILi0EEENS_16Trans
 5003 000c 2046     		mov	r0, r4
 5004 000e 10BD     		pop	{r4, pc}
 5005              	.L600:
 5006              		.align	2
 5007              	.L599:
 5008 0010 08000000 		.word	_ZTVN6uavcan13ServiceServerINS_8protocol5param14ExecuteOpcode_ENS_12MethodBinderIPNS_11Param
 5009              		.size	_ZN6uavcan13ServiceServerINS_8protocol5param14ExecuteOpcode_ENS_12MethodBinderIPNS_11ParamSe
 5010              		.weak	_ZN6uavcan13ServiceServerINS_8protocol5param14ExecuteOpcode_ENS_12MethodBinderIPNS_11ParamSe
 5011              		.thumb_set _ZN6uavcan13ServiceServerINS_8protocol5param14ExecuteOpcode_ENS_12MethodBinderIPNS_11Pa
 5012              		.section	.text._ZN6uavcan11ParamServerD2Ev,"axG",%progbits,_ZN6uavcan11ParamServerD5Ev,comdat
 5013              		.align	1
 5014              		.weak	_ZN6uavcan11ParamServerD2Ev
ARM GAS  /tmp/ccFEREDd.s 			page 89


 5015              		.thumb
 5016              		.thumb_func
 5017              		.type	_ZN6uavcan11ParamServerD2Ev, %function
 5018              	_ZN6uavcan11ParamServerD2Ev:
 5019              		@ args = 0, pretend = 0, frame = 0
 5020              		@ frame_needed = 0, uses_anonymous_args = 0
 5021 0000 10B5     		push	{r4, lr}
 5022 0002 0446     		mov	r4, r0
 5023 0004 7830     		adds	r0, r0, #120
 5024 0006 FFF7FEFF 		bl	_ZN6uavcan13ServiceServerINS_8protocol5param14ExecuteOpcode_ENS_12MethodBinderIPNS_11ParamServe
 5025 000a 2046     		mov	r0, r4
 5026 000c FFF7FEFF 		bl	_ZN6uavcan13ServiceServerINS_8protocol5param7GetSet_ENS_12MethodBinderIPNS_11ParamServerEMS5_Fv
 5027 0010 2046     		mov	r0, r4
 5028 0012 10BD     		pop	{r4, pc}
 5029              		.size	_ZN6uavcan11ParamServerD2Ev, .-_ZN6uavcan11ParamServerD2Ev
 5030              		.weak	_ZN6uavcan11ParamServerD1Ev
 5031              		.thumb_set _ZN6uavcan11ParamServerD1Ev,_ZN6uavcan11ParamServerD2Ev
 5032              		.section	.text._ZN6uavcan13ServiceServerINS_8protocol5param14ExecuteOpcode_ENS_12MethodBinderIPNS_
 5033              		.align	1
 5034              		.weak	_ZN6uavcan13ServiceServerINS_8protocol5param14ExecuteOpcode_ENS_12MethodBinderIPNS_11ParamSe
 5035              		.thumb
 5036              		.thumb_func
 5037              		.type	_ZN6uavcan13ServiceServerINS_8protocol5param14ExecuteOpcode_ENS_12MethodBinderIPNS_11ParamSe
 5038              	_ZN6uavcan13ServiceServerINS_8protocol5param14ExecuteOpcode_ENS_12MethodBinderIPNS_11ParamServerEMS
 5039              		@ args = 0, pretend = 0, frame = 0
 5040              		@ frame_needed = 0, uses_anonymous_args = 0
 5041 0000 10B5     		push	{r4, lr}
 5042 0002 0446     		mov	r4, r0
 5043 0004 FFF7FEFF 		bl	_ZN6uavcan13ServiceServerINS_8protocol5param14ExecuteOpcode_ENS_12MethodBinderIPNS_11ParamServe
 5044 0008 2046     		mov	r0, r4
 5045 000a FFF7FEFF 		bl	_ZdlPv
 5046 000e 2046     		mov	r0, r4
 5047 0010 10BD     		pop	{r4, pc}
 5048              		.size	_ZN6uavcan13ServiceServerINS_8protocol5param14ExecuteOpcode_ENS_12MethodBinderIPNS_11ParamSe
 5049              		.section	.text._ZN6uavcan17GenericSubscriberINS_8protocol5param14ExecuteOpcode_ENS3_8Request_ILi0E
 5050              		.align	1
 5051              		.weak	_ZN6uavcan17GenericSubscriberINS_8protocol5param14ExecuteOpcode_ENS3_8Request_ILi0EEENS_16Tr
 5052              		.thumb
 5053              		.thumb_func
 5054              		.type	_ZN6uavcan17GenericSubscriberINS_8protocol5param14ExecuteOpcode_ENS3_8Request_ILi0EEENS_16Tr
 5055              	_ZN6uavcan17GenericSubscriberINS_8protocol5param14ExecuteOpcode_ENS3_8Request_ILi0EEENS_16TransferL
 5056              		@ args = 0, pretend = 0, frame = 0
 5057              		@ frame_needed = 0, uses_anonymous_args = 0
 5058 0000 10B5     		push	{r4, lr}
 5059 0002 0446     		mov	r4, r0
 5060 0004 FFF7FEFF 		bl	_ZN6uavcan17GenericSubscriberINS_8protocol5param14ExecuteOpcode_ENS3_8Request_ILi0EEENS_16Trans
 5061 0008 2046     		mov	r0, r4
 5062 000a FFF7FEFF 		bl	_ZdlPv
 5063 000e 2046     		mov	r0, r4
 5064 0010 10BD     		pop	{r4, pc}
 5065              		.size	_ZN6uavcan17GenericSubscriberINS_8protocol5param14ExecuteOpcode_ENS3_8Request_ILi0EEENS_16Tr
 5066              		.section	.text._ZN6uavcan17GenericSubscriberINS_8protocol15dynamic_node_id11Allocation_ILi0EEES4_N
 5067              		.align	1
 5068              		.weak	_ZN6uavcan17GenericSubscriberINS_8protocol15dynamic_node_id11Allocation_ILi0EEES4_NS_16Trans
 5069              		.thumb
 5070              		.thumb_func
 5071              		.type	_ZN6uavcan17GenericSubscriberINS_8protocol15dynamic_node_id11Allocation_ILi0EEES4_NS_16Trans
ARM GAS  /tmp/ccFEREDd.s 			page 90


 5072              	_ZN6uavcan17GenericSubscriberINS_8protocol15dynamic_node_id11Allocation_ILi0EEES4_NS_16TransferList
 5073              		@ args = 0, pretend = 0, frame = 8
 5074              		@ frame_needed = 0, uses_anonymous_args = 0
 5075 0000 13B5     		push	{r0, r1, r4, lr}
 5076 0002 0446     		mov	r4, r0
 5077 0004 0C4B     		ldr	r3, .L609
 5078 0006 40F8043B 		str	r3, [r0], #4
 5079 000a A16B     		ldr	r1, [r4, #56]
 5080 000c FFF7FEFF 		bl	_ZN6uavcan21GenericSubscriberBase4stopEPNS_16TransferListenerE
 5081 0010 A06B     		ldr	r0, [r4, #56]
 5082 0012 10B1     		cbz	r0, .L605
 5083 0014 0368     		ldr	r3, [r0]
 5084 0016 5B68     		ldr	r3, [r3, #4]
 5085 0018 9847     		blx	r3
 5086              	.L605:
 5087 001a 0023     		movs	r3, #0
 5088 001c 02AA     		add	r2, sp, #8
 5089 001e 04F10C00 		add	r0, r4, #12
 5090 0022 A363     		str	r3, [r4, #56]
 5091 0024 02F8013D 		strb	r3, [r2, #-1]!
 5092 0028 04F13801 		add	r1, r4, #56
 5093 002c FFF7FEFF 		bl	_ZN6uavcan4fillIPhhEEvT_S2_RKT0_
 5094 0030 2046     		mov	r0, r4
 5095 0032 02B0     		add	sp, sp, #8
 5096              		@ sp needed
 5097 0034 10BD     		pop	{r4, pc}
 5098              	.L610:
 5099 0036 00BF     		.align	2
 5100              	.L609:
 5101 0038 08000000 		.word	_ZTVN6uavcan17GenericSubscriberINS_8protocol15dynamic_node_id11Allocation_ILi0EEES4_NS_16Tra
 5102              		.size	_ZN6uavcan17GenericSubscriberINS_8protocol15dynamic_node_id11Allocation_ILi0EEES4_NS_16Trans
 5103              		.weak	_ZN6uavcan17GenericSubscriberINS_8protocol15dynamic_node_id11Allocation_ILi0EEES4_NS_16Trans
 5104              		.thumb_set _ZN6uavcan17GenericSubscriberINS_8protocol15dynamic_node_id11Allocation_ILi0EEES4_NS_16
 5105              		.section	.text._ZN6uavcan10SubscriberINS_8protocol15dynamic_node_id11Allocation_ILi0EEENS_12Method
 5106              		.align	1
 5107              		.weak	_ZN6uavcan10SubscriberINS_8protocol15dynamic_node_id11Allocation_ILi0EEENS_12MethodBinderIPN
 5108              		.thumb
 5109              		.thumb_func
 5110              		.type	_ZN6uavcan10SubscriberINS_8protocol15dynamic_node_id11Allocation_ILi0EEENS_12MethodBinderIPN
 5111              	_ZN6uavcan10SubscriberINS_8protocol15dynamic_node_id11Allocation_ILi0EEENS_12MethodBinderIPNS_19Dyn
 5112              		@ args = 0, pretend = 0, frame = 0
 5113              		@ frame_needed = 0, uses_anonymous_args = 0
 5114 0000 10B5     		push	{r4, lr}
 5115 0002 0446     		mov	r4, r0
 5116 0004 024B     		ldr	r3, .L612
 5117 0006 0360     		str	r3, [r0]
 5118 0008 FFF7FEFF 		bl	_ZN6uavcan17GenericSubscriberINS_8protocol15dynamic_node_id11Allocation_ILi0EEES4_NS_16Transfer
 5119 000c 2046     		mov	r0, r4
 5120 000e 10BD     		pop	{r4, pc}
 5121              	.L613:
 5122              		.align	2
 5123              	.L612:
 5124 0010 08000000 		.word	_ZTVN6uavcan10SubscriberINS_8protocol15dynamic_node_id11Allocation_ILi0EEENS_12MethodBinderI
 5125              		.size	_ZN6uavcan10SubscriberINS_8protocol15dynamic_node_id11Allocation_ILi0EEENS_12MethodBinderIPN
 5126              		.weak	_ZN6uavcan10SubscriberINS_8protocol15dynamic_node_id11Allocation_ILi0EEENS_12MethodBinderIPN
 5127              		.thumb_set _ZN6uavcan10SubscriberINS_8protocol15dynamic_node_id11Allocation_ILi0EEENS_12MethodBind
 5128              		.section	.text._ZN6uavcan10SubscriberINS_8protocol15dynamic_node_id11Allocation_ILi0EEENS_12Method
ARM GAS  /tmp/ccFEREDd.s 			page 91


 5129              		.align	1
 5130              		.weak	_ZN6uavcan10SubscriberINS_8protocol15dynamic_node_id11Allocation_ILi0EEENS_12MethodBinderIPN
 5131              		.thumb
 5132              		.thumb_func
 5133              		.type	_ZN6uavcan10SubscriberINS_8protocol15dynamic_node_id11Allocation_ILi0EEENS_12MethodBinderIPN
 5134              	_ZN6uavcan10SubscriberINS_8protocol15dynamic_node_id11Allocation_ILi0EEENS_12MethodBinderIPNS_19Dyn
 5135              		@ args = 0, pretend = 0, frame = 0
 5136              		@ frame_needed = 0, uses_anonymous_args = 0
 5137 0000 10B5     		push	{r4, lr}
 5138 0002 0446     		mov	r4, r0
 5139 0004 FFF7FEFF 		bl	_ZN6uavcan10SubscriberINS_8protocol15dynamic_node_id11Allocation_ILi0EEENS_12MethodBinderIPNS_1
 5140 0008 2046     		mov	r0, r4
 5141 000a FFF7FEFF 		bl	_ZdlPv
 5142 000e 2046     		mov	r0, r4
 5143 0010 10BD     		pop	{r4, pc}
 5144              		.size	_ZN6uavcan10SubscriberINS_8protocol15dynamic_node_id11Allocation_ILi0EEENS_12MethodBinderIPN
 5145              		.section	.text._ZN6uavcan17GenericSubscriberINS_8protocol15dynamic_node_id11Allocation_ILi0EEES4_N
 5146              		.align	1
 5147              		.weak	_ZN6uavcan17GenericSubscriberINS_8protocol15dynamic_node_id11Allocation_ILi0EEES4_NS_16Trans
 5148              		.thumb
 5149              		.thumb_func
 5150              		.type	_ZN6uavcan17GenericSubscriberINS_8protocol15dynamic_node_id11Allocation_ILi0EEES4_NS_16Trans
 5151              	_ZN6uavcan17GenericSubscriberINS_8protocol15dynamic_node_id11Allocation_ILi0EEES4_NS_16TransferList
 5152              		@ args = 0, pretend = 0, frame = 0
 5153              		@ frame_needed = 0, uses_anonymous_args = 0
 5154 0000 10B5     		push	{r4, lr}
 5155 0002 0446     		mov	r4, r0
 5156 0004 FFF7FEFF 		bl	_ZN6uavcan17GenericSubscriberINS_8protocol15dynamic_node_id11Allocation_ILi0EEES4_NS_16Transfer
 5157 0008 2046     		mov	r0, r4
 5158 000a FFF7FEFF 		bl	_ZdlPv
 5159 000e 2046     		mov	r0, r4
 5160 0010 10BD     		pop	{r4, pc}
 5161              		.size	_ZN6uavcan17GenericSubscriberINS_8protocol15dynamic_node_id11Allocation_ILi0EEES4_NS_16Trans
 5162              		.section	.text._ZN6uavcan22GlobalDataTypeRegistry16registerDataTypeINS_8protocol4file20BeginFirmwa
 5163              		.align	1
 5164              		.weak	_ZN6uavcan22GlobalDataTypeRegistry16registerDataTypeINS_8protocol4file20BeginFirmwareUpdate_
 5165              		.thumb
 5166              		.thumb_func
 5167              		.type	_ZN6uavcan22GlobalDataTypeRegistry16registerDataTypeINS_8protocol4file20BeginFirmwareUpdate_
 5168              	_ZN6uavcan22GlobalDataTypeRegistry16registerDataTypeINS_8protocol4file20BeginFirmwareUpdate_EEENS0_
 5169              		@ args = 0, pretend = 0, frame = 40
 5170              		@ frame_needed = 0, uses_anonymous_args = 0
 5171 0000 70B5     		push	{r4, r5, r6, lr}
 5172 0002 037A     		ldrb	r3, [r0, #8]	@ zero_extendqisi2
 5173 0004 8AB0     		sub	sp, sp, #40
 5174 0006 0646     		mov	r6, r0
 5175 0008 0D46     		mov	r5, r1
 5176 000a 002B     		cmp	r3, #0
 5177 000c 3CD1     		bne	.L619
 5178 000e 244C     		ldr	r4, .L622+16
 5179 0010 2368     		ldr	r3, [r4]
 5180 0012 DB07     		lsls	r3, r3, #31
 5181 0014 09D4     		bmi	.L618
 5182 0016 2348     		ldr	r0, .L622+20
 5183 0018 FFF7FEFF 		bl	_ZN6uavcan22GlobalDataTypeRegistry5EntryC1Ev
 5184 001c 0123     		movs	r3, #1
 5185 001e 2148     		ldr	r0, .L622+20
ARM GAS  /tmp/ccFEREDd.s 			page 92


 5186 0020 2149     		ldr	r1, .L622+24
 5187 0022 224A     		ldr	r2, .L622+28
 5188 0024 2360     		str	r3, [r4]
 5189 0026 FFF7FEFF 		bl	__aeabi_atexit
 5190              	.L618:
 5191 002a 3046     		mov	r0, r6
 5192 002c 1D49     		ldr	r1, .L622+20
 5193 002e FFF7FEFF 		bl	_ZN6uavcan22GlobalDataTypeRegistry6removeEPNS0_5EntryE
 5194 0032 0446     		mov	r4, r0
 5195 0034 48BB     		cbnz	r0, .L617
 5196 0036 16A3     		adr	r3, .L622
 5197 0038 D3E90023 		ldrd	r2, [r3]
 5198 003c 0AA8     		add	r0, sp, #40
 5199 003e 60E90A23 		strd	r2, [r0, #-40]!
 5200 0042 15A3     		adr	r3, .L622+8
 5201 0044 D3E90023 		ldrd	r2, [r3]
 5202 0048 FFF7FEFF 		bl	_ZN6uavcan17DataTypeSignature6extendES0_
 5203 004c DDE90023 		ldrd	r2, [sp]
 5204 0050 CDE90423 		strd	r2, [sp, #16]
 5205 0054 164B     		ldr	r3, .L622+32
 5206 0056 8DF81C40 		strb	r4, [sp, #28]
 5207 005a 0294     		str	r4, [sp, #8]
 5208 005c 114C     		ldr	r4, .L622+20
 5209 005e 0895     		str	r5, [sp, #32]
 5210 0060 0693     		str	r3, [sp, #24]
 5211 0062 02AD     		add	r5, sp, #8
 5212 0064 0FCD     		ldmia	r5!, {r0, r1, r2, r3}
 5213 0066 0FC4     		stmia	r4!, {r0, r1, r2, r3}
 5214 0068 95E80F00 		ldmia	r5, {r0, r1, r2, r3}
 5215 006c 84E80F00 		stmia	r4, {r0, r1, r2, r3}
 5216 0070 3046     		mov	r0, r6
 5217 0072 A4F11001 		sub	r1, r4, #16
 5218 0076 FFF7FEFF 		bl	_ZN6uavcan22GlobalDataTypeRegistry6removeEPNS0_5EntryE
 5219 007a 30B9     		cbnz	r0, .L617
 5220 007c 3046     		mov	r0, r6
 5221 007e A4F11001 		sub	r1, r4, #16
 5222 0082 FFF7FEFF 		bl	_ZN6uavcan22GlobalDataTypeRegistry10registImplEPNS0_5EntryE
 5223 0086 00E0     		b	.L617
 5224              	.L619:
 5225 0088 0320     		movs	r0, #3
 5226              	.L617:
 5227 008a 0AB0     		add	sp, sp, #40
 5228              		@ sp needed
 5229 008c 70BD     		pop	{r4, r5, r6, pc}
 5230              	.L623:
 5231 008e 00BF     		.align	3
 5232              	.L622:
 5233 0090 7B255354 		.word	1414735227
 5234 0094 AAB8A836 		.word	917026986
 5235 0098 E2438A87 		.word	-2020981790
 5236 009c 50FCAE12 		.word	313457744
 5237 00a0 00000000 		.word	_ZGVZN6uavcan22GlobalDataTypeRegistry16registerDataTypeINS_8protocol4file20BeginFirmwareUpda
 5238 00a4 00000000 		.word	_ZZN6uavcan22GlobalDataTypeRegistry16registerDataTypeINS_8protocol4file20BeginFirmwareUpdate
 5239 00a8 00000000 		.word	_ZN6uavcan22GlobalDataTypeRegistry5EntryD1Ev
 5240 00ac 00000000 		.word	__dso_handle
 5241 00b0 9F010000 		.word	.LC18
 5242              		.size	_ZN6uavcan22GlobalDataTypeRegistry16registerDataTypeINS_8protocol4file20BeginFirmwareUpdate_
ARM GAS  /tmp/ccFEREDd.s 			page 93


 5243              		.section	.text._ZN12uavcan_stm329CanDriverC2ILj32EEERA2_AT__NS_9CanRxItemE,"axG",%progbits,_ZN12ua
 5244              		.align	1
 5245              		.weak	_ZN12uavcan_stm329CanDriverC2ILj32EEERA2_AT__NS_9CanRxItemE
 5246              		.thumb
 5247              		.thumb_func
 5248              		.type	_ZN12uavcan_stm329CanDriverC2ILj32EEERA2_AT__NS_9CanRxItemE, %function
 5249              	_ZN12uavcan_stm329CanDriverC2ILj32EEERA2_AT__NS_9CanRxItemE:
 5250              		@ args = 0, pretend = 0, frame = 0
 5251              		@ frame_needed = 0, uses_anonymous_args = 0
 5252 0000 2DE9F84F 		push	{r3, r4, r5, r6, r7, r8, r9, r10, fp, lr}
 5253 0004 0646     		mov	r6, r0
 5254 0006 384B     		ldr	r3, .L629
 5255 0008 0446     		mov	r4, r0
 5256 000a 46F8043B 		str	r3, [r6], #4
 5257 000e 0F46     		mov	r7, r1
 5258 0010 3046     		mov	r0, r6
 5259 0012 0021     		movs	r1, #0
 5260 0014 FFF7FEFF 		bl	_ZN10chibios_rt16CounterSemaphoreC1El
 5261 0018 344A     		ldr	r2, .L629+4
 5262 001a 3549     		ldr	r1, .L629+8
 5263 001c 9246     		mov	r10, r2
 5264 001e 2162     		str	r1, [r4, #32]
 5265 0020 0020     		movs	r0, #0
 5266 0022 0021     		movs	r1, #0
 5267 0024 2023     		movs	r3, #32
 5268 0026 C4E90A01 		strd	r0, [r4, #40]
 5269 002a 2376     		strb	r3, [r4, #24]
 5270 002c 0023     		movs	r3, #0
 5271 002e 2261     		str	r2, [r4, #16]
 5272 0030 6761     		str	r7, [r4, #20]
 5273 0032 6376     		strb	r3, [r4, #25]
 5274 0034 A376     		strb	r3, [r4, #26]
 5275 0036 E376     		strb	r3, [r4, #27]
 5276 0038 E361     		str	r3, [r4, #28]
 5277 003a 2363     		str	r3, [r4, #48]
 5278 003c 6663     		str	r6, [r4, #52]
 5279 003e 04F14005 		add	r5, r4, #64
 5280 0042 04F1A00B 		add	fp, r4, #160
 5281              	.L625:
 5282 0046 4FF00008 		mov	r8, #0
 5283 004a 4FF00009 		mov	r9, #0
 5284 004e 45E90289 		strd	r8, [r5, #-8]
 5285 0052 2846     		mov	r0, r5
 5286 0054 FFF7FEFF 		bl	_ZN6uavcan8CanFrameC1Ev
 5287 0058 0023     		movs	r3, #0
 5288 005a 2B74     		strb	r3, [r5, #16]
 5289 005c 6B74     		strb	r3, [r5, #17]
 5290 005e AB74     		strb	r3, [r5, #18]
 5291 0060 2035     		adds	r5, r5, #32
 5292 0062 5D45     		cmp	r5, fp
 5293 0064 EFD1     		bne	.L625
 5294 0066 2022     		movs	r2, #32
 5295 0068 84F8A820 		strb	r2, [r4, #168]
 5296 006c C4E92E89 		strd	r8, [r4, #184]
 5297 0070 204A     		ldr	r2, .L629+12
 5298 0072 07F58067 		add	r7, r7, #1024
 5299 0076 C4F8C460 		str	r6, [r4, #196]
ARM GAS  /tmp/ccFEREDd.s 			page 94


 5300 007a 84F89830 		strb	r3, [r4, #152]
 5301 007e 84F89930 		strb	r3, [r4, #153]
 5302 0082 84F89A30 		strb	r3, [r4, #154]
 5303 0086 84F89B30 		strb	r3, [r4, #155]
 5304 008a C4F8A0A0 		str	r10, [r4, #160]
 5305 008e C4F8A470 		str	r7, [r4, #164]
 5306 0092 84F8A930 		strb	r3, [r4, #169]
 5307 0096 84F8AA30 		strb	r3, [r4, #170]
 5308 009a 84F8AB30 		strb	r3, [r4, #171]
 5309 009e C4F8AC30 		str	r3, [r4, #172]
 5310 00a2 C4F8B020 		str	r2, [r4, #176]
 5311 00a6 C4F8C030 		str	r3, [r4, #192]
 5312 00aa 04F1D005 		add	r5, r4, #208
 5313 00ae 04F59876 		add	r6, r4, #304
 5314              	.L626:
 5315 00b2 0023     		movs	r3, #0
 5316 00b4 0022     		movs	r2, #0
 5317 00b6 45E90223 		strd	r2, [r5, #-8]
 5318 00ba 2846     		mov	r0, r5
 5319 00bc FFF7FEFF 		bl	_ZN6uavcan8CanFrameC1Ev
 5320 00c0 0023     		movs	r3, #0
 5321 00c2 2B74     		strb	r3, [r5, #16]
 5322 00c4 6B74     		strb	r3, [r5, #17]
 5323 00c6 AB74     		strb	r3, [r5, #18]
 5324 00c8 2035     		adds	r5, r5, #32
 5325 00ca B542     		cmp	r5, r6
 5326 00cc F1D1     		bne	.L626
 5327 00ce 0122     		movs	r2, #1
 5328 00d0 84F82831 		strb	r3, [r4, #296]
 5329 00d4 84F82931 		strb	r3, [r4, #297]
 5330 00d8 84F82A21 		strb	r2, [r4, #298]
 5331 00dc 84F82B31 		strb	r3, [r4, #299]
 5332 00e0 2046     		mov	r0, r4
 5333 00e2 BDE8F88F 		pop	{r3, r4, r5, r6, r7, r8, r9, r10, fp, pc}
 5334              	.L630:
 5335 00e6 00BF     		.align	2
 5336              	.L629:
 5337 00e8 08000000 		.word	_ZTVN12uavcan_stm329CanDriverE+8
 5338 00ec 08000000 		.word	_ZTVN12uavcan_stm328CanIfaceE+8
 5339 00f0 00640040 		.word	1073767424
 5340 00f4 00680040 		.word	1073768448
 5341              		.size	_ZN12uavcan_stm329CanDriverC2ILj32EEERA2_AT__NS_9CanRxItemE, .-_ZN12uavcan_stm329CanDriverC2
 5342              		.weak	_ZN12uavcan_stm329CanDriverC1ILj32EEERA2_AT__NS_9CanRxItemE
 5343              		.thumb_set _ZN12uavcan_stm329CanDriverC1ILj32EEERA2_AT__NS_9CanRxItemE,_ZN12uavcan_stm329CanDriver
 5344              		.section	.text._ZN6uavcan5ArrayINS_11IntegerSpecILj8ELNS_10SignednessE0ELNS_8CastModeE0EEELNS_9Arr
 5345              		.align	1
 5346              		.weak	_ZN6uavcan5ArrayINS_11IntegerSpecILj8ELNS_10SignednessE0ELNS_8CastModeE0EEELNS_9ArrayModeE1E
 5347              		.thumb
 5348              		.thumb_func
 5349              		.type	_ZN6uavcan5ArrayINS_11IntegerSpecILj8ELNS_10SignednessE0ELNS_8CastModeE0EEELNS_9ArrayModeE1E
 5350              	_ZN6uavcan5ArrayINS_11IntegerSpecILj8ELNS_10SignednessE0ELNS_8CastModeE0EEELNS_9ArrayModeE1ELj92EE9
 5351              		@ args = 0, pretend = 0, frame = 0
 5352              		@ frame_needed = 0, uses_anonymous_args = 0
 5353 0000 0378     		ldrb	r3, [r0]	@ zero_extendqisi2
 5354 0002 10B5     		push	{r4, lr}
 5355 0004 5B2B     		cmp	r3, #91
 5356 0006 9CBF     		itt	ls
ARM GAS  /tmp/ccFEREDd.s 			page 95


 5357 0008 0133     		addls	r3, r3, #1
 5358 000a 0370     		strbls	r3, [r0]
 5359 000c 0478     		ldrb	r4, [r0]	@ zero_extendqisi2
 5360 000e 621E     		subs	r2, r4, #1
 5361 0010 D3B2     		uxtb	r3, r2
 5362 0012 A342     		cmp	r3, r4
 5363 0014 02D3     		bcc	.L633
 5364 0016 002C     		cmp	r4, #0
 5365 0018 08BF     		it	eq
 5366 001a 0023     		moveq	r3, #0
 5367              	.L633:
 5368 001c 0A78     		ldrb	r2, [r1]	@ zero_extendqisi2
 5369 001e 0344     		add	r3, r3, r0
 5370 0020 5A70     		strb	r2, [r3, #1]
 5371 0022 10BD     		pop	{r4, pc}
 5372              		.size	_ZN6uavcan5ArrayINS_11IntegerSpecILj8ELNS_10SignednessE0ELNS_8CastModeE0EEELNS_9ArrayModeE1E
 5373              		.section	.text._ZNK4node12_GLOBAL__N_112ParamManager19getParamNameByIndexEtRN6uavcan5ArrayINS2_11I
 5374              		.align	1
 5375              		.thumb
 5376              		.thumb_func
 5377              		.type	_ZNK4node12_GLOBAL__N_112ParamManager19getParamNameByIndexEtRN6uavcan5ArrayINS2_11IntegerSpe
 5378              	_ZNK4node12_GLOBAL__N_112ParamManager19getParamNameByIndexEtRN6uavcan5ArrayINS2_11IntegerSpecILj8EL
 5379              		@ args = 0, pretend = 0, frame = 8
 5380              		@ frame_needed = 0, uses_anonymous_args = 0
 5381 0000 37B5     		push	{r0, r1, r2, r4, r5, lr}
 5382 0002 0846     		mov	r0, r1
 5383 0004 1546     		mov	r5, r2
 5384 0006 FFF7FEFF 		bl	configNameByIndex
 5385 000a 60B1     		cbz	r0, .L635
 5386 000c 0023     		movs	r3, #0
 5387 000e 2B70     		strb	r3, [r5]
 5388 0010 441E     		subs	r4, r0, #1
 5389              	.L637:
 5390 0012 14F8013F 		ldrb	r3, [r4, #1]!	@ zero_extendqisi2
 5391 0016 33B1     		cbz	r3, .L635
 5392 0018 02A9     		add	r1, sp, #8
 5393 001a 01F8013D 		strb	r3, [r1, #-1]!
 5394 001e 2846     		mov	r0, r5
 5395 0020 FFF7FEFF 		bl	_ZN6uavcan5ArrayINS_11IntegerSpecILj8ELNS_10SignednessE0ELNS_8CastModeE0EEELNS_9ArrayModeE1ELj9
 5396 0024 F5E7     		b	.L637
 5397              	.L635:
 5398 0026 03B0     		add	sp, sp, #12
 5399              		@ sp needed
 5400 0028 30BD     		pop	{r4, r5, pc}
 5401              		.size	_ZNK4node12_GLOBAL__N_112ParamManager19getParamNameByIndexEtRN6uavcan5ArrayINS2_11IntegerSpe
 5402              		.section	.text._ZN6uavcan17GenericSubscriberINS_8protocol4file20BeginFirmwareUpdate_ENS3_8Request_
 5403              		.align	1
 5404              		.weak	_ZN6uavcan17GenericSubscriberINS_8protocol4file20BeginFirmwareUpdate_ENS3_8Request_ILi0EEENS
 5405              		.thumb
 5406              		.thumb_func
 5407              		.type	_ZN6uavcan17GenericSubscriberINS_8protocol4file20BeginFirmwareUpdate_ENS3_8Request_ILi0EEENS
 5408              	_ZN6uavcan17GenericSubscriberINS_8protocol4file20BeginFirmwareUpdate_ENS3_8Request_ILi0EEENS_16Tran
 5409              		@ args = 0, pretend = 0, frame = 8
 5410              		@ frame_needed = 0, uses_anonymous_args = 0
 5411 0000 13B5     		push	{r0, r1, r4, lr}
 5412 0002 0446     		mov	r4, r0
 5413 0004 0C4B     		ldr	r3, .L645
ARM GAS  /tmp/ccFEREDd.s 			page 96


 5414 0006 40F8043B 		str	r3, [r0], #4
 5415 000a A16B     		ldr	r1, [r4, #56]
 5416 000c FFF7FEFF 		bl	_ZN6uavcan21GenericSubscriberBase4stopEPNS_16TransferListenerE
 5417 0010 A06B     		ldr	r0, [r4, #56]
 5418 0012 10B1     		cbz	r0, .L641
 5419 0014 0368     		ldr	r3, [r0]
 5420 0016 5B68     		ldr	r3, [r3, #4]
 5421 0018 9847     		blx	r3
 5422              	.L641:
 5423 001a 0023     		movs	r3, #0
 5424 001c 02AA     		add	r2, sp, #8
 5425 001e 04F10C00 		add	r0, r4, #12
 5426 0022 A363     		str	r3, [r4, #56]
 5427 0024 02F8013D 		strb	r3, [r2, #-1]!
 5428 0028 04F13801 		add	r1, r4, #56
 5429 002c FFF7FEFF 		bl	_ZN6uavcan4fillIPhhEEvT_S2_RKT0_
 5430 0030 2046     		mov	r0, r4
 5431 0032 02B0     		add	sp, sp, #8
 5432              		@ sp needed
 5433 0034 10BD     		pop	{r4, pc}
 5434              	.L646:
 5435 0036 00BF     		.align	2
 5436              	.L645:
 5437 0038 08000000 		.word	_ZTVN6uavcan17GenericSubscriberINS_8protocol4file20BeginFirmwareUpdate_ENS3_8Request_ILi0EEE
 5438              		.size	_ZN6uavcan17GenericSubscriberINS_8protocol4file20BeginFirmwareUpdate_ENS3_8Request_ILi0EEENS
 5439              		.weak	_ZN6uavcan17GenericSubscriberINS_8protocol4file20BeginFirmwareUpdate_ENS3_8Request_ILi0EEENS
 5440              		.thumb_set _ZN6uavcan17GenericSubscriberINS_8protocol4file20BeginFirmwareUpdate_ENS3_8Request_ILi0
 5441              		.section	.text._ZN6uavcan13ServiceServerINS_8protocol4file20BeginFirmwareUpdate_EPFvRKNS_21Receive
 5442              		.align	1
 5443              		.weak	_ZN6uavcan13ServiceServerINS_8protocol4file20BeginFirmwareUpdate_EPFvRKNS_21ReceivedDataStru
 5444              		.thumb
 5445              		.thumb_func
 5446              		.type	_ZN6uavcan13ServiceServerINS_8protocol4file20BeginFirmwareUpdate_EPFvRKNS_21ReceivedDataStru
 5447              	_ZN6uavcan13ServiceServerINS_8protocol4file20BeginFirmwareUpdate_EPFvRKNS_21ReceivedDataStructureIN
 5448              		@ args = 0, pretend = 0, frame = 0
 5449              		@ frame_needed = 0, uses_anonymous_args = 0
 5450 0000 10B5     		push	{r4, lr}
 5451 0002 0446     		mov	r4, r0
 5452 0004 024B     		ldr	r3, .L648
 5453 0006 0360     		str	r3, [r0]
 5454 0008 FFF7FEFF 		bl	_ZN6uavcan17GenericSubscriberINS_8protocol4file20BeginFirmwareUpdate_ENS3_8Request_ILi0EEENS_16
 5455 000c 2046     		mov	r0, r4
 5456 000e 10BD     		pop	{r4, pc}
 5457              	.L649:
 5458              		.align	2
 5459              	.L648:
 5460 0010 08000000 		.word	_ZTVN6uavcan13ServiceServerINS_8protocol4file20BeginFirmwareUpdate_EPFvRKNS_21ReceivedDataSt
 5461              		.size	_ZN6uavcan13ServiceServerINS_8protocol4file20BeginFirmwareUpdate_EPFvRKNS_21ReceivedDataStru
 5462              		.weak	_ZN6uavcan13ServiceServerINS_8protocol4file20BeginFirmwareUpdate_EPFvRKNS_21ReceivedDataStru
 5463              		.thumb_set _ZN6uavcan13ServiceServerINS_8protocol4file20BeginFirmwareUpdate_EPFvRKNS_21ReceivedDat
 5464              		.section	.text._ZN6uavcan13ServiceServerINS_8protocol4file20BeginFirmwareUpdate_EPFvRKNS_21Receive
 5465              		.align	1
 5466              		.weak	_ZN6uavcan13ServiceServerINS_8protocol4file20BeginFirmwareUpdate_EPFvRKNS_21ReceivedDataStru
 5467              		.thumb
 5468              		.thumb_func
 5469              		.type	_ZN6uavcan13ServiceServerINS_8protocol4file20BeginFirmwareUpdate_EPFvRKNS_21ReceivedDataStru
 5470              	_ZN6uavcan13ServiceServerINS_8protocol4file20BeginFirmwareUpdate_EPFvRKNS_21ReceivedDataStructureIN
ARM GAS  /tmp/ccFEREDd.s 			page 97


 5471              		@ args = 0, pretend = 0, frame = 0
 5472              		@ frame_needed = 0, uses_anonymous_args = 0
 5473 0000 10B5     		push	{r4, lr}
 5474 0002 0446     		mov	r4, r0
 5475 0004 FFF7FEFF 		bl	_ZN6uavcan13ServiceServerINS_8protocol4file20BeginFirmwareUpdate_EPFvRKNS_21ReceivedDataStructu
 5476 0008 2046     		mov	r0, r4
 5477 000a FFF7FEFF 		bl	_ZdlPv
 5478 000e 2046     		mov	r0, r4
 5479 0010 10BD     		pop	{r4, pc}
 5480              		.size	_ZN6uavcan13ServiceServerINS_8protocol4file20BeginFirmwareUpdate_EPFvRKNS_21ReceivedDataStru
 5481              		.section	.text._ZN6uavcan17GenericSubscriberINS_8protocol4file20BeginFirmwareUpdate_ENS3_8Request_
 5482              		.align	1
 5483              		.weak	_ZN6uavcan17GenericSubscriberINS_8protocol4file20BeginFirmwareUpdate_ENS3_8Request_ILi0EEENS
 5484              		.thumb
 5485              		.thumb_func
 5486              		.type	_ZN6uavcan17GenericSubscriberINS_8protocol4file20BeginFirmwareUpdate_ENS3_8Request_ILi0EEENS
 5487              	_ZN6uavcan17GenericSubscriberINS_8protocol4file20BeginFirmwareUpdate_ENS3_8Request_ILi0EEENS_16Tran
 5488              		@ args = 0, pretend = 0, frame = 0
 5489              		@ frame_needed = 0, uses_anonymous_args = 0
 5490 0000 10B5     		push	{r4, lr}
 5491 0002 0446     		mov	r4, r0
 5492 0004 FFF7FEFF 		bl	_ZN6uavcan17GenericSubscriberINS_8protocol4file20BeginFirmwareUpdate_ENS3_8Request_ILi0EEENS_16
 5493 0008 2046     		mov	r0, r4
 5494 000a FFF7FEFF 		bl	_ZdlPv
 5495 000e 2046     		mov	r0, r4
 5496 0010 10BD     		pop	{r4, pc}
 5497              		.size	_ZN6uavcan17GenericSubscriberINS_8protocol4file20BeginFirmwareUpdate_ENS3_8Request_ILi0EEENS
 5498              		.section	.text._ZN6uavcan16GenericPublisherINS_8protocol16GetDataTypeInfo_ENS2_9Response_ILi0EEEE9
 5499              		.align	1
 5500              		.weak	_ZN6uavcan16GenericPublisherINS_8protocol16GetDataTypeInfo_ENS2_9Response_ILi0EEEE9checkInit
 5501              		.thumb
 5502              		.thumb_func
 5503              		.type	_ZN6uavcan16GenericPublisherINS_8protocol16GetDataTypeInfo_ENS2_9Response_ILi0EEEE9checkInit
 5504              	_ZN6uavcan16GenericPublisherINS_8protocol16GetDataTypeInfo_ENS2_9Response_ILi0EEEE9checkInitEv:
 5505              		@ args = 0, pretend = 0, frame = 0
 5506              		@ frame_needed = 0, uses_anonymous_args = 0
 5507 0000 10B5     		push	{r4, lr}
 5508 0002 0446     		mov	r4, r0
 5509 0004 FFF7FEFF 		bl	_ZNK6uavcan20GenericPublisherBase8isInitedEv
 5510 0008 0146     		mov	r1, r0
 5511 000a 30B9     		cbnz	r0, .L653
 5512 000c 2046     		mov	r0, r4
 5513 000e BDE81040 		pop	{r4, lr}
 5514 0012 034A     		ldr	r2, .L654
 5515 0014 0123     		movs	r3, #1
 5516 0016 FFF7FEBF 		b	_ZN6uavcan20GenericPublisherBase6doInitENS_12DataTypeKindEPKcNS_10CanTxQueue3QosE
 5517              	.L653:
 5518 001a 0020     		movs	r0, #0
 5519 001c 10BD     		pop	{r4, pc}
 5520              	.L655:
 5521 001e 00BF     		.align	2
 5522              	.L654:
 5523 0020 C9000000 		.word	.LC8
 5524              		.size	_ZN6uavcan16GenericPublisherINS_8protocol16GetDataTypeInfo_ENS2_9Response_ILi0EEEE9checkInit
 5525              		.section	.text._ZN6uavcan16GenericPublisherINS_8protocol12RestartNode_ENS2_9Response_ILi0EEEE9chec
 5526              		.align	1
 5527              		.weak	_ZN6uavcan16GenericPublisherINS_8protocol12RestartNode_ENS2_9Response_ILi0EEEE9checkInitEv
ARM GAS  /tmp/ccFEREDd.s 			page 98


 5528              		.thumb
 5529              		.thumb_func
 5530              		.type	_ZN6uavcan16GenericPublisherINS_8protocol12RestartNode_ENS2_9Response_ILi0EEEE9checkInitEv, 
 5531              	_ZN6uavcan16GenericPublisherINS_8protocol12RestartNode_ENS2_9Response_ILi0EEEE9checkInitEv:
 5532              		@ args = 0, pretend = 0, frame = 0
 5533              		@ frame_needed = 0, uses_anonymous_args = 0
 5534 0000 10B5     		push	{r4, lr}
 5535 0002 0446     		mov	r4, r0
 5536 0004 FFF7FEFF 		bl	_ZNK6uavcan20GenericPublisherBase8isInitedEv
 5537 0008 0146     		mov	r1, r0
 5538 000a 30B9     		cbnz	r0, .L657
 5539 000c 2046     		mov	r0, r4
 5540 000e BDE81040 		pop	{r4, lr}
 5541 0012 034A     		ldr	r2, .L658
 5542 0014 0123     		movs	r3, #1
 5543 0016 FFF7FEBF 		b	_ZN6uavcan20GenericPublisherBase6doInitENS_12DataTypeKindEPKcNS_10CanTxQueue3QosE
 5544              	.L657:
 5545 001a 0020     		movs	r0, #0
 5546 001c 10BD     		pop	{r4, pc}
 5547              	.L659:
 5548 001e 00BF     		.align	2
 5549              	.L658:
 5550 0020 C8010000 		.word	.LC19
 5551              		.size	_ZN6uavcan16GenericPublisherINS_8protocol12RestartNode_ENS2_9Response_ILi0EEEE9checkInitEv, 
 5552              		.section	.text._ZN6uavcan16GenericPublisherINS_8protocol18GetTransportStats_ENS2_9Response_ILi0EEE
 5553              		.align	1
 5554              		.weak	_ZN6uavcan16GenericPublisherINS_8protocol18GetTransportStats_ENS2_9Response_ILi0EEEE9checkIn
 5555              		.thumb
 5556              		.thumb_func
 5557              		.type	_ZN6uavcan16GenericPublisherINS_8protocol18GetTransportStats_ENS2_9Response_ILi0EEEE9checkIn
 5558              	_ZN6uavcan16GenericPublisherINS_8protocol18GetTransportStats_ENS2_9Response_ILi0EEEE9checkInitEv:
 5559              		@ args = 0, pretend = 0, frame = 0
 5560              		@ frame_needed = 0, uses_anonymous_args = 0
 5561 0000 10B5     		push	{r4, lr}
 5562 0002 0446     		mov	r4, r0
 5563 0004 FFF7FEFF 		bl	_ZNK6uavcan20GenericPublisherBase8isInitedEv
 5564 0008 0146     		mov	r1, r0
 5565 000a 30B9     		cbnz	r0, .L661
 5566 000c 2046     		mov	r0, r4
 5567 000e BDE81040 		pop	{r4, lr}
 5568 0012 034A     		ldr	r2, .L662
 5569 0014 0123     		movs	r3, #1
 5570 0016 FFF7FEBF 		b	_ZN6uavcan20GenericPublisherBase6doInitENS_12DataTypeKindEPKcNS_10CanTxQueue3QosE
 5571              	.L661:
 5572 001a 0020     		movs	r0, #0
 5573 001c 10BD     		pop	{r4, pc}
 5574              	.L663:
 5575 001e 00BF     		.align	2
 5576              	.L662:
 5577 0020 5E010000 		.word	.LC16
 5578              		.size	_ZN6uavcan16GenericPublisherINS_8protocol18GetTransportStats_ENS2_9Response_ILi0EEEE9checkIn
 5579              		.section	.text._ZN6uavcan17GenericSubscriberINS_8protocol18GetTransportStats_ENS2_8Request_ILi0EEE
 5580              		.align	1
 5581              		.weak	_ZN6uavcan17GenericSubscriberINS_8protocol18GetTransportStats_ENS2_8Request_ILi0EEENS_16Tran
 5582              		.thumb
 5583              		.thumb_func
 5584              		.type	_ZN6uavcan17GenericSubscriberINS_8protocol18GetTransportStats_ENS2_8Request_ILi0EEENS_16Tran
ARM GAS  /tmp/ccFEREDd.s 			page 99


 5585              	_ZN6uavcan17GenericSubscriberINS_8protocol18GetTransportStats_ENS2_8Request_ILi0EEENS_16TransferLis
 5586              		@ args = 0, pretend = 0, frame = 8
 5587              		@ frame_needed = 0, uses_anonymous_args = 0
 5588 0000 2DE9F043 		push	{r4, r5, r6, r7, r8, r9, lr}
 5589 0004 866B     		ldr	r6, [r0, #56]
 5590 0006 85B0     		sub	sp, sp, #20
 5591 0008 02AD     		add	r5, sp, #8
 5592 000a 0446     		mov	r4, r0
 5593 000c 85E80600 		stmia	r5, {r1, r2}
 5594 0010 3EBB     		cbnz	r6, .L665
 5595 0012 FFF7FEFF 		bl	_ZN6uavcan22GlobalDataTypeRegistry8instanceEv
 5596 0016 FFF7FEFF 		bl	_ZN6uavcan22GlobalDataTypeRegistry6freezeEv
 5597 001a FFF7FEFF 		bl	_ZN6uavcan22GlobalDataTypeRegistry8instanceEv
 5598 001e 3146     		mov	r1, r6
 5599 0020 174A     		ldr	r2, .L669
 5600 0022 FFF7FEFF 		bl	_ZNK6uavcan22GlobalDataTypeRegistry4findENS_12DataTypeKindEPKc
 5601 0026 8046     		mov	r8, r0
 5602 0028 20B3     		cbz	r0, .L668
 5603 002a 6068     		ldr	r0, [r4, #4]
 5604 002c 0368     		ldr	r3, [r0]
 5605 002e 9B68     		ldr	r3, [r3, #8]
 5606 0030 9847     		blx	r3
 5607 0032 A76B     		ldr	r7, [r4, #56]
 5608 0034 8146     		mov	r9, r0
 5609 0036 17B1     		cbz	r7, .L667
 5610 0038 1248     		ldr	r0, .L669+4
 5611 003a FFF7FEFF 		bl	_ZN6uavcan16handleFatalErrorEPKc
 5612              	.L667:
 5613 003e 6068     		ldr	r0, [r4, #4]
 5614 0040 FFF7FEFF 		bl	_ZN6uavcan5INode13getDispatcherEv
 5615 0044 04F10C06 		add	r6, r4, #12
 5616 0048 00F1B001 		add	r1, r0, #176
 5617 004c 3B46     		mov	r3, r7
 5618 004e CDF80090 		str	r9, [sp]
 5619 0052 3046     		mov	r0, r6
 5620 0054 4246     		mov	r2, r8
 5621 0056 FFF7FEFF 		bl	_ZN6uavcan16TransferListenerC2ERNS_19TransferPerfCounterERKNS_18DataTypeDescriptorEtRNS_14IPool
 5622 005a 0B4B     		ldr	r3, .L669+8
 5623 005c 6463     		str	r4, [r4, #52]
 5624 005e E360     		str	r3, [r4, #12]
 5625 0060 A663     		str	r6, [r4, #56]
 5626              	.L665:
 5627 0062 A16B     		ldr	r1, [r4, #56]
 5628 0064 201D     		adds	r0, r4, #4
 5629 0066 95E80C00 		ldmia	r5, {r2, r3}
 5630 006a 05B0     		add	sp, sp, #20
 5631              		@ sp needed
 5632 006c BDE8F043 		pop	{r4, r5, r6, r7, r8, r9, lr}
 5633 0070 FFF7FEBF 		b	_ZN6uavcan21GenericSubscriberBase12genericStartEPNS_16TransferListenerEMNS_10DispatcherEFbS2_E
 5634              	.L668:
 5635 0074 6FF00400 		mvn	r0, #4
 5636 0078 05B0     		add	sp, sp, #20
 5637              		@ sp needed
 5638 007a BDE8F083 		pop	{r4, r5, r6, r7, r8, r9, pc}
 5639              	.L670:
 5640 007e 00BF     		.align	2
 5641              	.L669:
ARM GAS  /tmp/ccFEREDd.s 			page 100


 5642 0080 5E010000 		.word	.LC16
 5643 0084 1A000000 		.word	.LC2
 5644 0088 08000000 		.word	_ZTVN6uavcan17GenericSubscriberINS_8protocol18GetTransportStats_ENS2_8Request_ILi0EEENS_16Tr
 5645              		.size	_ZN6uavcan17GenericSubscriberINS_8protocol18GetTransportStats_ENS2_8Request_ILi0EEENS_16Tran
 5646              		.section	.text._ZN6uavcan16GenericPublisherINS_8protocol15GlobalTimeSync_ILi0EEES3_E14genericPubli
 5647              		.align	1
 5648              		.weak	_ZN6uavcan16GenericPublisherINS_8protocol15GlobalTimeSync_ILi0EEES3_E14genericPublishERKS3_N
 5649              		.thumb
 5650              		.thumb_func
 5651              		.type	_ZN6uavcan16GenericPublisherINS_8protocol15GlobalTimeSync_ILi0EEES3_E14genericPublishERKS3_N
 5652              	_ZN6uavcan16GenericPublisherINS_8protocol15GlobalTimeSync_ILi0EEES3_E14genericPublishERKS3_NS_12Tra
 5653              		@ args = 8, pretend = 0, frame = 48
 5654              		@ frame_needed = 0, uses_anonymous_args = 0
 5655 0000 2DE9F045 		push	{r4, r5, r6, r7, r8, r10, lr}
 5656 0004 8FB0     		sub	sp, sp, #60
 5657 0006 8046     		mov	r8, r0
 5658 0008 8A46     		mov	r10, r1
 5659 000a 1746     		mov	r7, r2
 5660 000c 1E46     		mov	r6, r3
 5661 000e FFF7FEFF 		bl	_ZN6uavcan16GenericPublisherINS_8protocol15GlobalTimeSync_ILi0EEES3_E9checkInitEv
 5662 0012 0028     		cmp	r0, #0
 5663 0014 2EDB     		blt	.L672
 5664 0016 0CAB     		add	r3, sp, #48
 5665 0018 0A93     		str	r3, [sp, #40]
 5666 001a 184A     		ldr	r2, .L678
 5667 001c 0723     		movs	r3, #7
 5668 001e ADF82C30 		strh	r3, [sp, #44]	@ movhi
 5669 0022 0023     		movs	r3, #0
 5670 0024 ADF82E30 		strh	r3, [sp, #46]	@ movhi
 5671 0028 0992     		str	r2, [sp, #36]
 5672 002a 0793     		str	r3, [sp, #28]
 5673 002c 8DF82030 		strb	r3, [sp, #32]
 5674 0030 DAE90023 		ldrd	r2, [r10]
 5675 0034 23F07F43 		bic	r3, r3, #-16777216
 5676 0038 CDE90423 		strd	r2, [sp, #16]
 5677 003c 09AD     		add	r5, sp, #36
 5678 003e 06AC     		add	r4, sp, #24
 5679 0040 03A8     		add	r0, sp, #12
 5680 0042 04A9     		add	r1, sp, #16
 5681 0044 3822     		movs	r2, #56
 5682 0046 0695     		str	r5, [sp, #24]
 5683 0048 0394     		str	r4, [sp, #12]
 5684 004a FFF7FEFF 		bl	_ZN6uavcan11ScalarCodec15encodeBytesImplEPhj
 5685 004e 0028     		cmp	r0, #0
 5686 0050 02DC     		bgt	.L677
 5687 0052 6FF00500 		mvn	r0, #5
 5688 0056 0DE0     		b	.L672
 5689              	.L677:
 5690 0058 179B     		ldr	r3, [sp, #92]
 5691 005a 3A46     		mov	r2, r7
 5692 005c 93E80300 		ldmia	r3, {r0, r1}
 5693 0060 169B     		ldr	r3, [sp, #88]
 5694 0062 84E80300 		stmia	r4, {r0, r1}
 5695 0066 8DE81800 		stmia	sp, {r3, r4}
 5696 006a 4046     		mov	r0, r8
 5697 006c 2946     		mov	r1, r5
 5698 006e 3346     		mov	r3, r6
ARM GAS  /tmp/ccFEREDd.s 			page 101


 5699 0070 FFF7FEFF 		bl	_ZN6uavcan20GenericPublisherBase14genericPublishERKNS_24StaticTransferBufferImplENS_12TransferT
 5700              	.L672:
 5701 0074 0FB0     		add	sp, sp, #60
 5702              		@ sp needed
 5703 0076 BDE8F085 		pop	{r4, r5, r6, r7, r8, r10, pc}
 5704              	.L679:
 5705 007a 00BF     		.align	2
 5706              	.L678:
 5707 007c 08000000 		.word	_ZTVN6uavcan20StaticTransferBufferILt7EEE+8
 5708              		.size	_ZN6uavcan16GenericPublisherINS_8protocol15GlobalTimeSync_ILi0EEES3_E14genericPublishERKS3_N
 5709              		.section	.text._ZN6uavcan20GlobalTimeSyncMaster7publishEv,"axG",%progbits,_ZN6uavcan20GlobalTimeSy
 5710              		.align	1
 5711              		.weak	_ZN6uavcan20GlobalTimeSyncMaster7publishEv
 5712              		.thumb
 5713              		.thumb_func
 5714              		.type	_ZN6uavcan20GlobalTimeSyncMaster7publishEv, %function
 5715              	_ZN6uavcan20GlobalTimeSyncMaster7publishEv:
 5716              		@ args = 0, pretend = 0, frame = 64
 5717              		@ frame_needed = 0, uses_anonymous_args = 0
 5718 0000 2DE9F04F 		push	{r4, r5, r6, r7, r8, r9, r10, fp, lr}
 5719 0004 90F8F430 		ldrb	r3, [r0, #244]	@ zero_extendqisi2
 5720 0008 93B0     		sub	sp, sp, #76
 5721 000a 0546     		mov	r5, r0
 5722 000c C3B1     		cbz	r3, .L681
 5723              	.L685:
 5724 000e 08AE     		add	r6, sp, #32
 5725 0010 3046     		mov	r0, r6
 5726 0012 E968     		ldr	r1, [r5, #12]
 5727 0014 0DF14008 		add	r8, sp, #64
 5728 0018 05F1E804 		add	r4, r5, #232
 5729 001c FFF7FEFF 		bl	_ZNK6uavcan5INode16getMonotonicTimeEv
 5730 0020 4046     		mov	r0, r8
 5731 0022 3146     		mov	r1, r6
 5732 0024 2246     		mov	r2, r4
 5733 0026 FFF7FEFF 		bl	_ZNK6uavcan8TimeBaseINS_13MonotonicTimeENS_17MonotonicDurationEEmiERKS1_
 5734 002a DDE91023 		ldrd	r2, [sp, #64]
 5735 002e 49F63F40 		movw	r0, #39999
 5736 0032 0021     		movs	r1, #0
 5737 0034 9042     		cmp	r0, r2
 5738 0036 71EB0303 		sbcs	r3, r1, r3
 5739 003a 08DB     		blt	.L697
 5740 003c 0024     		movs	r4, #0
 5741 003e 98E0     		b	.L684
 5742              	.L681:
 5743 0040 4E4B     		ldr	r3, .L698
 5744 0042 1978     		ldrb	r1, [r3]	@ zero_extendqisi2
 5745 0044 FFF7FEFF 		bl	_ZN6uavcan20GlobalTimeSyncMaster4initENS_16TransferPriorityE
 5746 0048 0028     		cmp	r0, #0
 5747 004a E0DA     		bge	.L685
 5748 004c 90E0     		b	.L692
 5749              	.L697:
 5750 004e 96E80300 		ldmia	r6, {r0, r1}
 5751 0052 84E80300 		stmia	r4, {r0, r1}
 5752 0056 4A4A     		ldr	r2, .L698+4
 5753 0058 0023     		movs	r3, #0
 5754 005a DFF83091 		ldr	r9, .L698+16
 5755 005e CDE90A23 		strd	r2, [sp, #40]
ARM GAS  /tmp/ccFEREDd.s 			page 102


 5756 0062 D5F8F020 		ldr	r2, [r5, #240]
 5757 0066 99F80030 		ldrb	r3, [r9]	@ zero_extendqisi2
 5758 006a 0EAF     		add	r7, sp, #56
 5759 006c 1092     		str	r2, [sp, #64]
 5760 006e 3846     		mov	r0, r7
 5761 0070 0222     		movs	r2, #2
 5762 0072 E968     		ldr	r1, [r5, #12]
 5763 0074 0CAC     		add	r4, sp, #48
 5764 0076 8DF84530 		strb	r3, [sp, #69]
 5765 007a 8DF84420 		strb	r2, [sp, #68]
 5766 007e FFF7FEFF 		bl	_ZNK6uavcan5INode16getMonotonicTimeEv
 5767 0082 3946     		mov	r1, r7
 5768 0084 0AAA     		add	r2, sp, #40
 5769 0086 2046     		mov	r0, r4
 5770 0088 FFF7FEFF 		bl	_ZNK6uavcan8TimeBaseINS_13MonotonicTimeENS_17MonotonicDurationEEplERKS2_
 5771 008c E868     		ldr	r0, [r5, #12]
 5772 008e FFF7FEFF 		bl	_ZN6uavcan5INode13getDispatcherEv
 5773 0092 0346     		mov	r3, r0
 5774 0094 94E80300 		ldmia	r4, {r0, r1}
 5775 0098 3A46     		mov	r2, r7
 5776 009a 87E80300 		stmia	r7, {r0, r1}
 5777 009e 03F1A400 		add	r0, r3, #164
 5778 00a2 4146     		mov	r1, r8
 5779 00a4 FFF7FEFF 		bl	_ZN6uavcan24OutgoingTransferRegistry14accessOrCreateERKNS_27OutgoingTransferRegistryKeyENS_13Mo
 5780 00a8 CDF80C90 		str	r9, [sp, #12]
 5781 00ac 48B1     		cbz	r0, .L693
 5782 00ae 90F800B0 		ldrb	fp, [r0]	@ zero_extendqisi2
 5783 00b2 0024     		movs	r4, #0
 5784 00b4 0BF10103 		add	r3, fp, #1
 5785 00b8 03F01F03 		and	r3, r3, #31
 5786 00bc 0370     		strb	r3, [r0]
 5787 00be A246     		mov	r10, r4
 5788 00c0 42E0     		b	.L688
 5789              	.L693:
 5790 00c2 6FF00204 		mvn	r4, #2
 5791 00c6 54E0     		b	.L684
 5792              	.L689:
 5793 00c8 0DF1280C 		add	ip, sp, #40
 5794 00cc 09F12803 		add	r3, r9, #40
 5795 00d0 96E80300 		ldmia	r6, {r0, r1}
 5796 00d4 1A46     		mov	r2, r3
 5797 00d6 8CE80300 		stmia	ip, {r0, r1}
 5798 00da 6146     		mov	r1, ip
 5799 00dc 0CA8     		add	r0, sp, #48
 5800 00de CDF814C0 		str	ip, [sp, #20]
 5801 00e2 0493     		str	r3, [sp, #16]
 5802 00e4 FFF7FEFF 		bl	_ZNK6uavcan8TimeBaseINS_13MonotonicTimeENS_17MonotonicDurationEEmiERKS1_
 5803 00e8 049B     		ldr	r3, [sp, #16]
 5804 00ea DDF814C0 		ldr	ip, [sp, #20]
 5805 00ee 8DF81FB0 		strb	fp, [sp, #31]
 5806 00f2 9CE80300 		ldmia	ip, {r0, r1}
 5807 00f6 83E80300 		stmia	r3, {r0, r1}
 5808 00fa 2248     		ldr	r0, .L698+8
 5809 00fc DDE90C23 		ldrd	r2, [sp, #48]
 5810 0100 0021     		movs	r1, #0
 5811 0102 9042     		cmp	r0, r2
 5812 0104 71EB0303 		sbcs	r3, r1, r3
ARM GAS  /tmp/ccFEREDd.s 			page 103


 5813 0108 4FF00001 		mov	r1, #0
 5814 010c B9BF     		ittee	lt
 5815 010e 0B46     		movlt	r3, r1
 5816 0110 0846     		movlt	r0, r1
 5817 0112 D9F83430 		ldrge	r3, [r9, #52]
 5818 0116 D9F83000 		ldrge	r0, [r9, #48]
 5819 011a 0F93     		str	r3, [sp, #60]
 5820 011c 039B     		ldr	r3, [sp, #12]
 5821 011e 0DF11F02 		add	r2, sp, #31
 5822 0122 0E90     		str	r0, [sp, #56]
 5823 0124 1B78     		ldrb	r3, [r3]	@ zero_extendqisi2
 5824 0126 C9F83010 		str	r1, [r9, #48]
 5825 012a C9F83410 		str	r1, [r9, #52]
 5826 012e 4846     		mov	r0, r9
 5827 0130 1091     		str	r1, [sp, #64]
 5828 0132 1191     		str	r1, [sp, #68]
 5829 0134 8DE80401 		stmia	sp, {r2, r8}
 5830 0138 3946     		mov	r1, r7
 5831 013a 0222     		movs	r2, #2
 5832 013c FFF7FEFF 		bl	_ZN6uavcan16GenericPublisherINS_8protocol15GlobalTimeSync_ILi0EEES3_E14genericPublishERKS3_NS_1
 5833 0140 0028     		cmp	r0, #0
 5834 0142 0AF1010A 		add	r10, r10, #1
 5835 0146 13DB     		blt	.L692
 5836              	.L688:
 5837 0148 E868     		ldr	r0, [r5, #12]
 5838 014a FFF7FEFF 		bl	_ZN6uavcan5INode13getDispatcherEv
 5839 014e 90F89820 		ldrb	r2, [r0, #152]	@ zero_extendqisi2
 5840 0152 5FFA8AF3 		uxtb	r3, r10
 5841 0156 9A42     		cmp	r2, r3
 5842 0158 0BD9     		bls	.L684
 5843 015a 4822     		movs	r2, #72
 5844 015c 02FB0353 		mla	r3, r2, r3, r5
 5845 0160 D3F85090 		ldr	r9, [r3, #80]
 5846 0164 B9F1000F 		cmp	r9, #0
 5847 0168 AED1     		bne	.L689
 5848 016a 0748     		ldr	r0, .L698+12
 5849 016c FFF7FEFF 		bl	_ZN6uavcan16handleFatalErrorEPKc
 5850              	.L692:
 5851 0170 0446     		mov	r4, r0
 5852              	.L684:
 5853 0172 2046     		mov	r0, r4
 5854 0174 13B0     		add	sp, sp, #76
 5855              		@ sp needed
 5856 0176 BDE8F08F 		pop	{r4, r5, r6, r7, r8, r9, r10, fp, pc}
 5857              	.L699:
 5858 017a 00BF     		.align	2
 5859              	.L698:
 5860 017c 00000000 		.word	_ZN6uavcan16TransferPriority19OneLowerThanHighestE
 5861 0180 E0C81000 		.word	1100000
 5862 0184 DFC81000 		.word	1099999
 5863 0188 1A000000 		.word	.LC2
 5864 018c 00000000 		.word	_ZN6uavcan6NodeID9BroadcastE
 5865              		.size	_ZN6uavcan20GlobalTimeSyncMaster7publishEv, .-_ZN6uavcan20GlobalTimeSyncMaster7publishEv
 5866              		.section	.text._ZN4node12_GLOBAL__N_115publishTimeSyncERKN6uavcan10TimerEventE,"ax",%progbits
 5867              		.align	1
 5868              		.thumb
 5869              		.thumb_func
ARM GAS  /tmp/ccFEREDd.s 			page 104


 5870              		.type	_ZN4node12_GLOBAL__N_115publishTimeSyncERKN6uavcan10TimerEventE, %function
 5871              	_ZN4node12_GLOBAL__N_115publishTimeSyncERKN6uavcan10TimerEventE:
 5872              		@ args = 0, pretend = 0, frame = 0
 5873              		@ frame_needed = 0, uses_anonymous_args = 0
 5874 0000 38B5     		push	{r3, r4, r5, lr}
 5875 0002 FFF7FEFF 		bl	_ZN4node12_GLOBAL__N_123isLocalUtcSourceEnabledEv
 5876 0006 0E4C     		ldr	r4, .L708
 5877 0008 0546     		mov	r5, r0
 5878 000a 28B1     		cbz	r0, .L701
 5879 000c FFF7FEFF 		bl	_ZN4node12_GLOBAL__N_116getTimeSyncSlaveEv
 5880 0010 2378     		ldrb	r3, [r4]	@ zero_extendqisi2
 5881 0012 80F86430 		strb	r3, [r0, #100]
 5882 0016 03E0     		b	.L702
 5883              	.L701:
 5884 0018 FFF7FEFF 		bl	_ZN4node12_GLOBAL__N_116getTimeSyncSlaveEv
 5885 001c 80F86450 		strb	r5, [r0, #100]
 5886              	.L702:
 5887 0020 0023     		movs	r3, #0
 5888 0022 2370     		strb	r3, [r4]
 5889 0024 FFF7FEFF 		bl	_ZN12uavcan_stm325clock11isUtcLockedEv
 5890 0028 40B1     		cbz	r0, .L700
 5891 002a 064B     		ldr	r3, .L708+4
 5892 002c 1B68     		ldr	r3, [r3]
 5893 002e DB07     		lsls	r3, r3, #31
 5894 0030 01D4     		bmi	.L704
 5895 0032 FFF7FEFF 		bl	_ZN4node12_GLOBAL__N_117getTimeSyncMasterEv.part.122
 5896              	.L704:
 5897 0036 0448     		ldr	r0, .L708+8
 5898 0038 FFF7FEFF 		bl	_ZN6uavcan20GlobalTimeSyncMaster7publishEv
 5899              	.L700:
 5900 003c 38BD     		pop	{r3, r4, r5, pc}
 5901              	.L709:
 5902 003e 00BF     		.align	2
 5903              	.L708:
 5904 0040 00000000 		.word	.LANCHOR11
 5905 0044 00000000 		.word	.LANCHOR15
 5906 0048 00000000 		.word	.LANCHOR14
 5907              		.size	_ZN4node12_GLOBAL__N_115publishTimeSyncERKN6uavcan10TimerEventE, .-_ZN4node12_GLOBAL__N_115p
 5908              		.section	.text._ZN6uavcan8protocol5param6Empty_ILi0EE23extendDataTypeSignatureERNS_17DataTypeSigna
 5909              		.align	1
 5910              		.weak	_ZN6uavcan8protocol5param6Empty_ILi0EE23extendDataTypeSignatureERNS_17DataTypeSignatureE
 5911              		.thumb
 5912              		.thumb_func
 5913              		.type	_ZN6uavcan8protocol5param6Empty_ILi0EE23extendDataTypeSignatureERNS_17DataTypeSignatureE, %f
 5914              	_ZN6uavcan8protocol5param6Empty_ILi0EE23extendDataTypeSignatureERNS_17DataTypeSignatureE:
 5915              		@ args = 0, pretend = 0, frame = 0
 5916              		@ frame_needed = 0, uses_anonymous_args = 0
 5917 0000 08B5     		push	{r3, lr}
 5918 0002 03A3     		adr	r3, .L711
 5919 0004 D3E90023 		ldrd	r2, [r3]
 5920 0008 FFF7FEFF 		bl	_ZN6uavcan17DataTypeSignature6extendES0_
 5921 000c 08BD     		pop	{r3, pc}
 5922              	.L712:
 5923 000e 00BF     		.align	3
 5924              	.L711:
 5925 0010 DF6173F3 		.word	-210542113
 5926 0014 8E0E4D6C 		.word	1816989326
ARM GAS  /tmp/ccFEREDd.s 			page 105


 5927              		.size	_ZN6uavcan8protocol5param6Empty_ILi0EE23extendDataTypeSignatureERNS_17DataTypeSignatureE, .-
 5928              		.section	.text._ZN6uavcan8protocol5param6Value_ILi0EE23extendDataTypeSignatureERNS_17DataTypeSigna
 5929              		.align	1
 5930              		.weak	_ZN6uavcan8protocol5param6Value_ILi0EE23extendDataTypeSignatureERNS_17DataTypeSignatureE
 5931              		.thumb
 5932              		.thumb_func
 5933              		.type	_ZN6uavcan8protocol5param6Value_ILi0EE23extendDataTypeSignatureERNS_17DataTypeSignatureE, %f
 5934              	_ZN6uavcan8protocol5param6Value_ILi0EE23extendDataTypeSignatureERNS_17DataTypeSignatureE:
 5935              		@ args = 0, pretend = 0, frame = 8
 5936              		@ frame_needed = 0, uses_anonymous_args = 0
 5937 0000 13B5     		push	{r0, r1, r4, lr}
 5938 0002 09A3     		adr	r3, .L714
 5939 0004 D3E90023 		ldrd	r2, [r3]
 5940 0008 0446     		mov	r4, r0
 5941 000a 02A8     		add	r0, sp, #8
 5942 000c 60E90223 		strd	r2, [r0, #-8]!
 5943 0010 FFF7FEFF 		bl	_ZN6uavcan8protocol5param6Empty_ILi0EE23extendDataTypeSignatureERNS_17DataTypeSignatureE
 5944 0014 DDE90023 		ldrd	r2, [sp]
 5945 0018 2046     		mov	r0, r4
 5946 001a FFF7FEFF 		bl	_ZN6uavcan17DataTypeSignature6extendES0_
 5947 001e 02B0     		add	sp, sp, #8
 5948              		@ sp needed
 5949 0020 10BD     		pop	{r4, pc}
 5950              	.L715:
 5951 0022 00BFAFF3 		.align	3
 5951      0080
 5952              	.L714:
 5953 0028 A1002B8F 		.word	-1893007199
 5954 002c 446FD9C3 		.word	-1009160380
 5955              		.size	_ZN6uavcan8protocol5param6Value_ILi0EE23extendDataTypeSignatureERNS_17DataTypeSignatureE, .-
 5956              		.section	.text._ZN6uavcan8protocol5param13NumericValue_ILi0EE23extendDataTypeSignatureERNS_17DataT
 5957              		.align	1
 5958              		.weak	_ZN6uavcan8protocol5param13NumericValue_ILi0EE23extendDataTypeSignatureERNS_17DataTypeSignat
 5959              		.thumb
 5960              		.thumb_func
 5961              		.type	_ZN6uavcan8protocol5param13NumericValue_ILi0EE23extendDataTypeSignatureERNS_17DataTypeSignat
 5962              	_ZN6uavcan8protocol5param13NumericValue_ILi0EE23extendDataTypeSignatureERNS_17DataTypeSignatureE:
 5963              		@ args = 0, pretend = 0, frame = 8
 5964              		@ frame_needed = 0, uses_anonymous_args = 0
 5965 0000 13B5     		push	{r0, r1, r4, lr}
 5966 0002 09A3     		adr	r3, .L717
 5967 0004 D3E90023 		ldrd	r2, [r3]
 5968 0008 0446     		mov	r4, r0
 5969 000a 02A8     		add	r0, sp, #8
 5970 000c 60E90223 		strd	r2, [r0, #-8]!
 5971 0010 FFF7FEFF 		bl	_ZN6uavcan8protocol5param6Empty_ILi0EE23extendDataTypeSignatureERNS_17DataTypeSignatureE
 5972 0014 DDE90023 		ldrd	r2, [sp]
 5973 0018 2046     		mov	r0, r4
 5974 001a FFF7FEFF 		bl	_ZN6uavcan17DataTypeSignature6extendES0_
 5975 001e 02B0     		add	sp, sp, #8
 5976              		@ sp needed
 5977 0020 10BD     		pop	{r4, pc}
 5978              	.L718:
 5979 0022 00BFAFF3 		.align	3
 5979      0080
 5980              	.L717:
 5981 0028 1C70AD96 		.word	-1767018468
ARM GAS  /tmp/ccFEREDd.s 			page 106


 5982 002c A5EE2212 		.word	304279205
 5983              		.size	_ZN6uavcan8protocol5param13NumericValue_ILi0EE23extendDataTypeSignatureERNS_17DataTypeSignat
 5984              		.section	.text._ZN6uavcan22GlobalDataTypeRegistry16registerDataTypeINS_8protocol5param7GetSet_EEEN
 5985              		.align	1
 5986              		.weak	_ZN6uavcan22GlobalDataTypeRegistry16registerDataTypeINS_8protocol5param7GetSet_EEENS0_18Regi
 5987              		.thumb
 5988              		.thumb_func
 5989              		.type	_ZN6uavcan22GlobalDataTypeRegistry16registerDataTypeINS_8protocol5param7GetSet_EEENS0_18Regi
 5990              	_ZN6uavcan22GlobalDataTypeRegistry16registerDataTypeINS_8protocol5param7GetSet_EEENS0_18Registratio
 5991              		@ args = 0, pretend = 0, frame = 40
 5992              		@ frame_needed = 0, uses_anonymous_args = 0
 5993 0000 F0B5     		push	{r4, r5, r6, r7, lr}
 5994 0002 037A     		ldrb	r3, [r0, #8]	@ zero_extendqisi2
 5995 0004 8BB0     		sub	sp, sp, #44
 5996 0006 0646     		mov	r6, r0
 5997 0008 0F46     		mov	r7, r1
 5998 000a 002B     		cmp	r3, #0
 5999 000c 47D1     		bne	.L722
 6000 000e 284C     		ldr	r4, .L725+8
 6001 0010 2368     		ldr	r3, [r4]
 6002 0012 DB07     		lsls	r3, r3, #31
 6003 0014 09D4     		bmi	.L721
 6004 0016 2748     		ldr	r0, .L725+12
 6005 0018 FFF7FEFF 		bl	_ZN6uavcan22GlobalDataTypeRegistry5EntryC1Ev
 6006 001c 0123     		movs	r3, #1
 6007 001e 2548     		ldr	r0, .L725+12
 6008 0020 2549     		ldr	r1, .L725+16
 6009 0022 264A     		ldr	r2, .L725+20
 6010 0024 2360     		str	r3, [r4]
 6011 0026 FFF7FEFF 		bl	__aeabi_atexit
 6012              	.L721:
 6013 002a 3046     		mov	r0, r6
 6014 002c 2149     		ldr	r1, .L725+12
 6015 002e FFF7FEFF 		bl	_ZN6uavcan22GlobalDataTypeRegistry6removeEPNS0_5EntryE
 6016 0032 0446     		mov	r4, r0
 6017 0034 0028     		cmp	r0, #0
 6018 0036 33D1     		bne	.L720
 6019 0038 1BA3     		adr	r3, .L725
 6020 003a D3E90023 		ldrd	r2, [r3]
 6021 003e 0AAD     		add	r5, sp, #40
 6022 0040 65E90A23 		strd	r2, [r5, #-40]!
 6023 0044 2846     		mov	r0, r5
 6024 0046 FFF7FEFF 		bl	_ZN6uavcan8protocol5param6Value_ILi0EE23extendDataTypeSignatureERNS_17DataTypeSignatureE
 6025 004a 2846     		mov	r0, r5
 6026 004c FFF7FEFF 		bl	_ZN6uavcan8protocol5param6Value_ILi0EE23extendDataTypeSignatureERNS_17DataTypeSignatureE
 6027 0050 2846     		mov	r0, r5
 6028 0052 FFF7FEFF 		bl	_ZN6uavcan8protocol5param6Value_ILi0EE23extendDataTypeSignatureERNS_17DataTypeSignatureE
 6029 0056 2846     		mov	r0, r5
 6030 0058 FFF7FEFF 		bl	_ZN6uavcan8protocol5param13NumericValue_ILi0EE23extendDataTypeSignatureERNS_17DataTypeSignature
 6031 005c 2846     		mov	r0, r5
 6032 005e FFF7FEFF 		bl	_ZN6uavcan8protocol5param13NumericValue_ILi0EE23extendDataTypeSignatureERNS_17DataTypeSignature
 6033 0062 DDE90023 		ldrd	r2, [sp]
 6034 0066 CDE90423 		strd	r2, [sp, #16]
 6035 006a 154B     		ldr	r3, .L725+24
 6036 006c 8DF81C40 		strb	r4, [sp, #28]
 6037 0070 0294     		str	r4, [sp, #8]
 6038 0072 104C     		ldr	r4, .L725+12
ARM GAS  /tmp/ccFEREDd.s 			page 107


 6039 0074 0693     		str	r3, [sp, #24]
 6040 0076 0897     		str	r7, [sp, #32]
 6041 0078 02AD     		add	r5, sp, #8
 6042 007a 0FCD     		ldmia	r5!, {r0, r1, r2, r3}
 6043 007c 0FC4     		stmia	r4!, {r0, r1, r2, r3}
 6044 007e 95E80F00 		ldmia	r5, {r0, r1, r2, r3}
 6045 0082 84E80F00 		stmia	r4, {r0, r1, r2, r3}
 6046 0086 3046     		mov	r0, r6
 6047 0088 A4F11001 		sub	r1, r4, #16
 6048 008c FFF7FEFF 		bl	_ZN6uavcan22GlobalDataTypeRegistry6removeEPNS0_5EntryE
 6049 0090 30B9     		cbnz	r0, .L720
 6050 0092 3046     		mov	r0, r6
 6051 0094 A4F11001 		sub	r1, r4, #16
 6052 0098 FFF7FEFF 		bl	_ZN6uavcan22GlobalDataTypeRegistry10registImplEPNS0_5EntryE
 6053 009c 00E0     		b	.L720
 6054              	.L722:
 6055 009e 0320     		movs	r0, #3
 6056              	.L720:
 6057 00a0 0BB0     		add	sp, sp, #44
 6058              		@ sp needed
 6059 00a2 F0BD     		pop	{r4, r5, r6, r7, pc}
 6060              	.L726:
 6061 00a4 AFF30080 		.align	3
 6062              	.L725:
 6063 00a8 ED2132F1 		.word	-248372755
 6064 00ac 5241D1B7 		.word	-1211023022
 6065 00b0 00000000 		.word	_ZGVZN6uavcan22GlobalDataTypeRegistry16registerDataTypeINS_8protocol5param7GetSet_EEENS0_18R
 6066 00b4 00000000 		.word	_ZZN6uavcan22GlobalDataTypeRegistry16registerDataTypeINS_8protocol5param7GetSet_EEENS0_18Reg
 6067 00b8 00000000 		.word	_ZN6uavcan22GlobalDataTypeRegistry5EntryD1Ev
 6068 00bc 00000000 		.word	__dso_handle
 6069 00c0 E4010000 		.word	.LC20
 6070              		.size	_ZN6uavcan22GlobalDataTypeRegistry16registerDataTypeINS_8protocol5param7GetSet_EEENS0_18Regi
 6071              		.section	.text._ZN6uavcan16GenericPublisherINS_8protocol5param7GetSet_ENS3_9Response_ILi0EEEE9chec
 6072              		.align	1
 6073              		.weak	_ZN6uavcan16GenericPublisherINS_8protocol5param7GetSet_ENS3_9Response_ILi0EEEE9checkInitEv
 6074              		.thumb
 6075              		.thumb_func
 6076              		.type	_ZN6uavcan16GenericPublisherINS_8protocol5param7GetSet_ENS3_9Response_ILi0EEEE9checkInitEv, 
 6077              	_ZN6uavcan16GenericPublisherINS_8protocol5param7GetSet_ENS3_9Response_ILi0EEEE9checkInitEv:
 6078              		@ args = 0, pretend = 0, frame = 0
 6079              		@ frame_needed = 0, uses_anonymous_args = 0
 6080 0000 10B5     		push	{r4, lr}
 6081 0002 0446     		mov	r4, r0
 6082 0004 FFF7FEFF 		bl	_ZNK6uavcan20GenericPublisherBase8isInitedEv
 6083 0008 0146     		mov	r1, r0
 6084 000a 30B9     		cbnz	r0, .L728
 6085 000c 2046     		mov	r0, r4
 6086 000e BDE81040 		pop	{r4, lr}
 6087 0012 034A     		ldr	r2, .L729
 6088 0014 0123     		movs	r3, #1
 6089 0016 FFF7FEBF 		b	_ZN6uavcan20GenericPublisherBase6doInitENS_12DataTypeKindEPKcNS_10CanTxQueue3QosE
 6090              	.L728:
 6091 001a 0020     		movs	r0, #0
 6092 001c 10BD     		pop	{r4, pc}
 6093              	.L730:
 6094 001e 00BF     		.align	2
 6095              	.L729:
ARM GAS  /tmp/ccFEREDd.s 			page 108


 6096 0020 E4010000 		.word	.LC20
 6097              		.size	_ZN6uavcan16GenericPublisherINS_8protocol5param7GetSet_ENS3_9Response_ILi0EEEE9checkInitEv, 
 6098              		.section	.text._ZN6uavcan16GenericPublisherINS_8protocol5param14ExecuteOpcode_ENS3_9Response_ILi0E
 6099              		.align	1
 6100              		.weak	_ZN6uavcan16GenericPublisherINS_8protocol5param14ExecuteOpcode_ENS3_9Response_ILi0EEEE9check
 6101              		.thumb
 6102              		.thumb_func
 6103              		.type	_ZN6uavcan16GenericPublisherINS_8protocol5param14ExecuteOpcode_ENS3_9Response_ILi0EEEE9check
 6104              	_ZN6uavcan16GenericPublisherINS_8protocol5param14ExecuteOpcode_ENS3_9Response_ILi0EEEE9checkInitEv:
 6105              		@ args = 0, pretend = 0, frame = 0
 6106              		@ frame_needed = 0, uses_anonymous_args = 0
 6107 0000 10B5     		push	{r4, lr}
 6108 0002 0446     		mov	r4, r0
 6109 0004 FFF7FEFF 		bl	_ZNK6uavcan20GenericPublisherBase8isInitedEv
 6110 0008 0146     		mov	r1, r0
 6111 000a 30B9     		cbnz	r0, .L732
 6112 000c 2046     		mov	r0, r4
 6113 000e BDE81040 		pop	{r4, lr}
 6114 0012 034A     		ldr	r2, .L733
 6115 0014 0123     		movs	r3, #1
 6116 0016 FFF7FEBF 		b	_ZN6uavcan20GenericPublisherBase6doInitENS_12DataTypeKindEPKcNS_10CanTxQueue3QosE
 6117              	.L732:
 6118 001a 0020     		movs	r0, #0
 6119 001c 10BD     		pop	{r4, pc}
 6120              	.L734:
 6121 001e 00BF     		.align	2
 6122              	.L733:
 6123 0020 01020000 		.word	.LC21
 6124              		.size	_ZN6uavcan16GenericPublisherINS_8protocol5param14ExecuteOpcode_ENS3_9Response_ILi0EEEE9check
 6125              		.section	.text._ZN6uavcan16GenericPublisherINS_8protocol4file20BeginFirmwareUpdate_ENS3_9Response_
 6126              		.align	1
 6127              		.weak	_ZN6uavcan16GenericPublisherINS_8protocol4file20BeginFirmwareUpdate_ENS3_9Response_ILi0EEEE9
 6128              		.thumb
 6129              		.thumb_func
 6130              		.type	_ZN6uavcan16GenericPublisherINS_8protocol4file20BeginFirmwareUpdate_ENS3_9Response_ILi0EEEE9
 6131              	_ZN6uavcan16GenericPublisherINS_8protocol4file20BeginFirmwareUpdate_ENS3_9Response_ILi0EEEE9checkIn
 6132              		@ args = 0, pretend = 0, frame = 0
 6133              		@ frame_needed = 0, uses_anonymous_args = 0
 6134 0000 10B5     		push	{r4, lr}
 6135 0002 0446     		mov	r4, r0
 6136 0004 FFF7FEFF 		bl	_ZNK6uavcan20GenericPublisherBase8isInitedEv
 6137 0008 0146     		mov	r1, r0
 6138 000a 30B9     		cbnz	r0, .L736
 6139 000c 2046     		mov	r0, r4
 6140 000e BDE81040 		pop	{r4, lr}
 6141 0012 034A     		ldr	r2, .L737
 6142 0014 0123     		movs	r3, #1
 6143 0016 FFF7FEBF 		b	_ZN6uavcan20GenericPublisherBase6doInitENS_12DataTypeKindEPKcNS_10CanTxQueue3QosE
 6144              	.L736:
 6145 001a 0020     		movs	r0, #0
 6146 001c 10BD     		pop	{r4, pc}
 6147              	.L738:
 6148 001e 00BF     		.align	2
 6149              	.L737:
 6150 0020 9F010000 		.word	.LC18
 6151              		.size	_ZN6uavcan16GenericPublisherINS_8protocol4file20BeginFirmwareUpdate_ENS3_9Response_ILi0EEEE9
 6152              		.section	.text._ZN6uavcan3MapINS_27OutgoingTransferRegistryKeyENS_24OutgoingTransferRegistry5Value
ARM GAS  /tmp/ccFEREDd.s 			page 109


 6153              		.align	1
 6154              		.weak	_ZN6uavcan3MapINS_27OutgoingTransferRegistryKeyENS_24OutgoingTransferRegistry5ValueEE7compac
 6155              		.thumb
 6156              		.thumb_func
 6157              		.type	_ZN6uavcan3MapINS_27OutgoingTransferRegistryKeyENS_24OutgoingTransferRegistry5ValueEE7compac
 6158              	_ZN6uavcan3MapINS_27OutgoingTransferRegistryKeyENS_24OutgoingTransferRegistry5ValueEE7compactEv:
 6159              		@ args = 0, pretend = 0, frame = 0
 6160              		@ frame_needed = 0, uses_anonymous_args = 0
 6161 0000 38B5     		push	{r3, r4, r5, lr}
 6162 0002 0446     		mov	r4, r0
 6163 0004 0168     		ldr	r1, [r0]
 6164              	.L740:
 6165 0006 D1B1     		cbz	r1, .L766
 6166 0008 8B69     		ldr	r3, [r1, #24]
 6167 000a 0D68     		ldr	r5, [r1]
 6168 000c 0133     		adds	r3, r3, #1
 6169 000e 14D1     		bne	.L742
 6170 0010 0B7F     		ldrb	r3, [r1, #28]	@ zero_extendqisi2
 6171 0012 FF2B     		cmp	r3, #255
 6172 0014 11D1     		bne	.L742
 6173 0016 4B7F     		ldrb	r3, [r1, #29]	@ zero_extendqisi2
 6174 0018 FF2B     		cmp	r3, #255
 6175 001a 0ED1     		bne	.L742
 6176 001c 0B6B     		ldr	r3, [r1, #48]
 6177 001e 0133     		adds	r3, r3, #1
 6178 0020 0BD1     		bne	.L742
 6179 0022 91F83430 		ldrb	r3, [r1, #52]	@ zero_extendqisi2
 6180 0026 FF2B     		cmp	r3, #255
 6181 0028 07D1     		bne	.L742
 6182 002a 91F83530 		ldrb	r3, [r1, #53]	@ zero_extendqisi2
 6183 002e FF2B     		cmp	r3, #255
 6184 0030 06D0     		beq	.L744
 6185 0032 02E0     		b	.L742
 6186              	.L749:
 6187 0034 0368     		ldr	r3, [r0]
 6188 0036 DB68     		ldr	r3, [r3, #12]
 6189 0038 9847     		blx	r3
 6190              	.L742:
 6191 003a 2946     		mov	r1, r5
 6192 003c E3E7     		b	.L740
 6193              	.L766:
 6194 003e 38BD     		pop	{r3, r4, r5, pc}
 6195              	.L744:
 6196 0040 2368     		ldr	r3, [r4]
 6197 0042 4BB1     		cbz	r3, .L746
 6198 0044 8B42     		cmp	r3, r1
 6199 0046 02D1     		bne	.L747
 6200 0048 2560     		str	r5, [r4]
 6201 004a 05E0     		b	.L746
 6202              	.L757:
 6203 004c 1346     		mov	r3, r2
 6204              	.L747:
 6205 004e 1A68     		ldr	r2, [r3]
 6206 0050 12B1     		cbz	r2, .L746
 6207 0052 8A42     		cmp	r2, r1
 6208 0054 FAD1     		bne	.L757
 6209 0056 1D60     		str	r5, [r3]
ARM GAS  /tmp/ccFEREDd.s 			page 110


 6210              	.L746:
 6211 0058 6068     		ldr	r0, [r4, #4]
 6212 005a 01F10802 		add	r2, r1, #8
 6213 005e 01F13803 		add	r3, r1, #56
 6214              	.L750:
 6215 0062 9342     		cmp	r3, r2
 6216 0064 E6D0     		beq	.L749
 6217 0066 183B     		subs	r3, r3, #24
 6218 0068 FBE7     		b	.L750
 6219              		.size	_ZN6uavcan3MapINS_27OutgoingTransferRegistryKeyENS_24OutgoingTransferRegistry5ValueEE7compac
 6220              		.section	.text._ZN6uavcan4NodeILj7168EED2Ev,"axG",%progbits,_ZN6uavcan4NodeILj7168EED5Ev,comdat
 6221              		.align	1
 6222              		.weak	_ZN6uavcan4NodeILj7168EED2Ev
 6223              		.thumb
 6224              		.thumb_func
 6225              		.type	_ZN6uavcan4NodeILj7168EED2Ev, %function
 6226              	_ZN6uavcan4NodeILj7168EED2Ev:
 6227              		@ args = 0, pretend = 0, frame = 8
 6228              		@ frame_needed = 0, uses_anonymous_args = 0
 6229 0000 F7B5     		push	{r0, r1, r2, r4, r5, r6, r7, lr}
 6230 0002 0546     		mov	r5, r0
 6231 0004 2D4B     		ldr	r3, .L788
 6232 0006 0360     		str	r3, [r0]
 6233 0008 00F50450 		add	r0, r0, #8448
 6234 000c 1830     		adds	r0, r0, #24
 6235 000e FFF7FEFF 		bl	_ZN6uavcan13ServiceServerINS_8protocol18GetTransportStats_ENS_12MethodBinderIPKNS_22TransportSt
 6236 0012 05F50250 		add	r0, r5, #8320
 6237 0016 1830     		adds	r0, r0, #24
 6238 0018 FFF7FEFF 		bl	_ZN6uavcan13ServiceServerINS_8protocol12RestartNode_ENS_12MethodBinderIPKNS_20RestartRequestSer
 6239 001c 05F5FB50 		add	r0, r5, #8032
 6240 0020 1030     		adds	r0, r0, #16
 6241 0022 FFF7FEFF 		bl	_ZN6uavcan13ServiceServerINS_8protocol16GetDataTypeInfo_ENS_12MethodBinderIPNS_20DataTypeInfoPr
 6242 0026 05F5E950 		add	r0, r5, #7456
 6243 002a FFF7FEFF 		bl	_ZN6uavcan18NodeStatusProviderD1Ev
 6244 002e 41F6C843 		movw	r3, #7368
 6245 0032 EB58     		ldr	r3, [r5, r3]
 6246 0034 0021     		movs	r1, #0
 6247              	.L768:
 6248 0036 0BB3     		cbz	r3, .L787
 6249 0038 1868     		ldr	r0, [r3]
 6250 003a 03F13004 		add	r4, r3, #48
 6251              	.L771:
 6252 003e 9A69     		ldr	r2, [r3, #24]
 6253 0040 0132     		adds	r2, r2, #1
 6254 0042 09D1     		bne	.L778
 6255 0044 1A7F     		ldrb	r2, [r3, #28]	@ zero_extendqisi2
 6256 0046 FF2A     		cmp	r2, #255
 6257 0048 06D1     		bne	.L778
 6258 004a 5A7F     		ldrb	r2, [r3, #29]	@ zero_extendqisi2
 6259 004c A2F1FF06 		sub	r6, r2, #255
 6260 0050 7242     		rsbs	r2, r6, #0
 6261 0052 7241     		adcs	r2, r2, r6
 6262 0054 6AB9     		cbnz	r2, .L770
 6263 0056 00E0     		b	.L786
 6264              	.L778:
 6265 0058 0022     		movs	r2, #0
 6266              	.L786:
ARM GAS  /tmp/ccFEREDd.s 			page 111


 6267 005a 0026     		movs	r6, #0
 6268 005c 0027     		movs	r7, #0
 6269 005e 1A74     		strb	r2, [r3, #16]
 6270 0060 C3E90267 		strd	r6, [r3, #8]
 6271 0064 4FF0FF32 		mov	r2, #-1
 6272 0068 9A61     		str	r2, [r3, #24]
 6273 006a 1A77     		strb	r2, [r3, #28]
 6274 006c FF22     		movs	r2, #255
 6275 006e 0131     		adds	r1, r1, #1
 6276 0070 5A77     		strb	r2, [r3, #29]
 6277              	.L770:
 6278 0072 1833     		adds	r3, r3, #24
 6279 0074 A342     		cmp	r3, r4
 6280 0076 E2D1     		bne	.L771
 6281 0078 0346     		mov	r3, r0
 6282 007a DCE7     		b	.L768
 6283              	.L787:
 6284 007c 21B1     		cbz	r1, .L773
 6285 007e 05F5E650 		add	r0, r5, #7360
 6286 0082 0830     		adds	r0, r0, #8
 6287 0084 FFF7FEFF 		bl	_ZN6uavcan3MapINS_27OutgoingTransferRegistryKeyENS_24OutgoingTransferRegistry5ValueEE7compactEv
 6288              	.L773:
 6289 0088 05F5E154 		add	r4, r5, #7200
 6290 008c 04F11006 		add	r6, r4, #16
 6291 0090 6434     		adds	r4, r4, #100
 6292              	.L776:
 6293 0092 B442     		cmp	r4, r6
 6294 0094 0FD0     		beq	.L774
 6295 0096 1C3C     		subs	r4, r4, #28
 6296 0098 A069     		ldr	r0, [r4, #24]
 6297 009a 08B1     		cbz	r0, .L775
 6298 009c FFF7FEFF 		bl	_ZN6uavcan10CanTxQueueD1Ev
 6299              	.L775:
 6300 00a0 2146     		mov	r1, r4
 6301 00a2 0023     		movs	r3, #0
 6302 00a4 02AA     		add	r2, sp, #8
 6303 00a6 41F8183F 		str	r3, [r1, #24]!
 6304 00aa 02F8013D 		strb	r3, [r2, #-1]!
 6305 00ae 2046     		mov	r0, r4
 6306 00b0 FFF7FEFF 		bl	_ZN6uavcan4fillIPhhEEvT_S2_RKT0_
 6307 00b4 EDE7     		b	.L776
 6308              	.L774:
 6309 00b6 2846     		mov	r0, r5
 6310 00b8 03B0     		add	sp, sp, #12
 6311              		@ sp needed
 6312 00ba F0BD     		pop	{r4, r5, r6, r7, pc}
 6313              	.L789:
 6314              		.align	2
 6315              	.L788:
 6316 00bc 08000000 		.word	_ZTVN6uavcan4NodeILj7168EEE+8
 6317              		.size	_ZN6uavcan4NodeILj7168EED2Ev, .-_ZN6uavcan4NodeILj7168EED2Ev
 6318              		.weak	_ZN6uavcan4NodeILj7168EED1Ev
 6319              		.thumb_set _ZN6uavcan4NodeILj7168EED1Ev,_ZN6uavcan4NodeILj7168EED2Ev
 6320              		.section	.text._ZN6uavcan4NodeILj7168EED0Ev,"axG",%progbits,_ZN6uavcan4NodeILj7168EED5Ev,comdat
 6321              		.align	1
 6322              		.weak	_ZN6uavcan4NodeILj7168EED0Ev
 6323              		.thumb
ARM GAS  /tmp/ccFEREDd.s 			page 112


 6324              		.thumb_func
 6325              		.type	_ZN6uavcan4NodeILj7168EED0Ev, %function
 6326              	_ZN6uavcan4NodeILj7168EED0Ev:
 6327              		@ args = 0, pretend = 0, frame = 0
 6328              		@ frame_needed = 0, uses_anonymous_args = 0
 6329 0000 10B5     		push	{r4, lr}
 6330 0002 0446     		mov	r4, r0
 6331 0004 FFF7FEFF 		bl	_ZN6uavcan4NodeILj7168EED1Ev
 6332 0008 2046     		mov	r0, r4
 6333 000a FFF7FEFF 		bl	_ZdlPv
 6334 000e 2046     		mov	r0, r4
 6335 0010 10BD     		pop	{r4, pc}
 6336              		.size	_ZN6uavcan4NodeILj7168EED0Ev, .-_ZN6uavcan4NodeILj7168EED0Ev
 6337              		.section	.text._ZNK6uavcan12MethodBinderIPNS_20DataTypeInfoProviderEMS1_FvRKNS_8protocol16GetDataT
 6338              		.align	1
 6339              		.weak	_ZNK6uavcan12MethodBinderIPNS_20DataTypeInfoProviderEMS1_FvRKNS_8protocol16GetDataTypeInfo_8
 6340              		.thumb
 6341              		.thumb_func
 6342              		.type	_ZNK6uavcan12MethodBinderIPNS_20DataTypeInfoProviderEMS1_FvRKNS_8protocol16GetDataTypeInfo_8
 6343              	_ZNK6uavcan12MethodBinderIPNS_20DataTypeInfoProviderEMS1_FvRKNS_8protocol16GetDataTypeInfo_8Request
 6344              		@ args = 0, pretend = 0, frame = 0
 6345              		@ frame_needed = 0, uses_anonymous_args = 0
 6346              		@ link register save eliminated.
 6347 0000 0368     		ldr	r3, [r0]
 6348 0002 2BB1     		cbz	r3, .L793
 6349 0004 4368     		ldr	r3, [r0, #4]
 6350 0006 2BB9     		cbnz	r3, .L794
 6351 0008 8068     		ldr	r0, [r0, #8]
 6352 000a 00F00100 		and	r0, r0, #1
 6353 000e 7047     		bx	lr
 6354              	.L793:
 6355 0010 1846     		mov	r0, r3
 6356 0012 7047     		bx	lr
 6357              	.L794:
 6358 0014 0120     		movs	r0, #1
 6359 0016 7047     		bx	lr
 6360              		.size	_ZNK6uavcan12MethodBinderIPNS_20DataTypeInfoProviderEMS1_FvRKNS_8protocol16GetDataTypeInfo_8
 6361              		.section	.text._ZN6uavcan20DataTypeInfoProvider5startEv,"axG",%progbits,_ZN6uavcan20DataTypeInfoPr
 6362              		.align	1
 6363              		.weak	_ZN6uavcan20DataTypeInfoProvider5startEv
 6364              		.thumb
 6365              		.thumb_func
 6366              		.type	_ZN6uavcan20DataTypeInfoProvider5startEv, %function
 6367              	_ZN6uavcan20DataTypeInfoProvider5startEv:
 6368              		@ args = 0, pretend = 0, frame = 24
 6369              		@ frame_needed = 0, uses_anonymous_args = 0
 6370 0000 2DE9F041 		push	{r4, r5, r6, r7, r8, lr}
 6371 0004 0446     		mov	r4, r0
 6372 0006 88B0     		sub	sp, sp, #32
 6373 0008 2F4B     		ldr	r3, .L805
 6374 000a 061D     		adds	r6, r0, #4
 6375 000c 0590     		str	r0, [sp, #20]
 6376 000e 0027     		movs	r7, #0
 6377 0010 3046     		mov	r0, r6
 6378 0012 A16B     		ldr	r1, [r4, #56]
 6379 0014 05AD     		add	r5, sp, #20
 6380 0016 0693     		str	r3, [sp, #24]
ARM GAS  /tmp/ccFEREDd.s 			page 113


 6381 0018 0797     		str	r7, [sp, #28]
 6382 001a FFF7FEFF 		bl	_ZN6uavcan21GenericSubscriberBase4stopEPNS_16TransferListenerE
 6383 001e 2846     		mov	r0, r5
 6384 0020 FFF7FEFF 		bl	_ZNK6uavcan12MethodBinderIPNS_20DataTypeInfoProviderEMS1_FvRKNS_8protocol16GetDataTypeInfo_8Req
 6385 0024 0028     		cmp	r0, #0
 6386 0026 39D0     		beq	.L801
 6387 0028 95E80700 		ldmia	r5, {r0, r1, r2}
 6388 002c 04F16803 		add	r3, r4, #104
 6389 0030 83E80700 		stmia	r3, {r0, r1, r2}
 6390 0034 04F14000 		add	r0, r4, #64
 6391 0038 FFF7FEFF 		bl	_ZN6uavcan16GenericPublisherINS_8protocol16GetDataTypeInfo_ENS2_9Response_ILi0EEEE9checkInitEv
 6392 003c 051E     		subs	r5, r0, #0
 6393 003e 32DB     		blt	.L803
 6394 0040 224B     		ldr	r3, .L805+4
 6395 0042 A56B     		ldr	r5, [r4, #56]
 6396 0044 0393     		str	r3, [sp, #12]
 6397 0046 0497     		str	r7, [sp, #16]
 6398 0048 95BB     		cbnz	r5, .L797
 6399 004a FFF7FEFF 		bl	_ZN6uavcan22GlobalDataTypeRegistry8instanceEv
 6400 004e FFF7FEFF 		bl	_ZN6uavcan22GlobalDataTypeRegistry6freezeEv
 6401 0052 FFF7FEFF 		bl	_ZN6uavcan22GlobalDataTypeRegistry8instanceEv
 6402 0056 2946     		mov	r1, r5
 6403 0058 1D4A     		ldr	r2, .L805+8
 6404 005a FFF7FEFF 		bl	_ZNK6uavcan22GlobalDataTypeRegistry4findENS_12DataTypeKindEPKc
 6405 005e 0746     		mov	r7, r0
 6406 0060 F8B1     		cbz	r0, .L802
 6407 0062 6068     		ldr	r0, [r4, #4]
 6408 0064 0368     		ldr	r3, [r0]
 6409 0066 9B68     		ldr	r3, [r3, #8]
 6410 0068 9847     		blx	r3
 6411 006a A36B     		ldr	r3, [r4, #56]
 6412 006c 8046     		mov	r8, r0
 6413 006e 13B1     		cbz	r3, .L798
 6414 0070 1848     		ldr	r0, .L805+12
 6415 0072 FFF7FEFF 		bl	_ZN6uavcan16handleFatalErrorEPKc
 6416              	.L798:
 6417 0076 6068     		ldr	r0, [r4, #4]
 6418 0078 FFF7FEFF 		bl	_ZN6uavcan5INode13getDispatcherEv
 6419 007c 04F10C05 		add	r5, r4, #12
 6420 0080 00F1B001 		add	r1, r0, #176
 6421 0084 5423     		movs	r3, #84
 6422 0086 CDF80080 		str	r8, [sp]
 6423 008a 2846     		mov	r0, r5
 6424 008c 3A46     		mov	r2, r7
 6425 008e FFF7FEFF 		bl	_ZN6uavcan16TransferListenerC2ERNS_19TransferPerfCounterERKNS_18DataTypeDescriptorEtRNS_14IPool
 6426 0092 114B     		ldr	r3, .L805+16
 6427 0094 6463     		str	r4, [r4, #52]
 6428 0096 E360     		str	r3, [r4, #12]
 6429 0098 A563     		str	r5, [r4, #56]
 6430 009a 09E0     		b	.L797
 6431              	.L801:
 6432 009c 6FF00105 		mvn	r5, #1
 6433 00a0 01E0     		b	.L803
 6434              	.L802:
 6435 00a2 6FF00405 		mvn	r5, #4
 6436              	.L803:
 6437              	.L800:
ARM GAS  /tmp/ccFEREDd.s 			page 114


 6438 00a6 3046     		mov	r0, r6
 6439 00a8 A16B     		ldr	r1, [r4, #56]
 6440 00aa FFF7FEFF 		bl	_ZN6uavcan21GenericSubscriberBase4stopEPNS_16TransferListenerE
 6441 00ae 07E0     		b	.L804
 6442              	.L797:
 6443 00b0 03AB     		add	r3, sp, #12
 6444 00b2 3046     		mov	r0, r6
 6445 00b4 0CCB     		ldmia	r3, {r2, r3}
 6446 00b6 A16B     		ldr	r1, [r4, #56]
 6447 00b8 FFF7FEFF 		bl	_ZN6uavcan21GenericSubscriberBase12genericStartEPNS_16TransferListenerEMNS_10DispatcherEFbS2_E
 6448 00bc 051E     		subs	r5, r0, #0
 6449 00be F2DB     		blt	.L803
 6450              	.L804:
 6451 00c0 2846     		mov	r0, r5
 6452 00c2 08B0     		add	sp, sp, #32
 6453              		@ sp needed
 6454 00c4 BDE8F081 		pop	{r4, r5, r6, r7, r8, pc}
 6455              	.L806:
 6456              		.align	2
 6457              	.L805:
 6458 00c8 00000000 		.word	_ZN6uavcan20DataTypeInfoProvider28handleGetDataTypeInfoRequestERKNS_8protocol16GetDataTypeIn
 6459 00cc 00000000 		.word	_ZN6uavcan10Dispatcher30registerServiceRequestListenerEPNS_16TransferListenerE
 6460 00d0 C9000000 		.word	.LC8
 6461 00d4 1A000000 		.word	.LC2
 6462 00d8 08000000 		.word	_ZTVN6uavcan17GenericSubscriberINS_8protocol16GetDataTypeInfo_ENS2_8Request_ILi0EEENS_16Tran
 6463              		.size	_ZN6uavcan20DataTypeInfoProvider5startEv, .-_ZN6uavcan20DataTypeInfoProvider5startEv
 6464              		.section	.text._ZNK6uavcan12MethodBinderIPKNS_20RestartRequestServerEMS1_KFvRKNS_21ReceivedDataStr
 6465              		.align	1
 6466              		.weak	_ZNK6uavcan12MethodBinderIPKNS_20RestartRequestServerEMS1_KFvRKNS_21ReceivedDataStructureINS
 6467              		.thumb
 6468              		.thumb_func
 6469              		.type	_ZNK6uavcan12MethodBinderIPKNS_20RestartRequestServerEMS1_KFvRKNS_21ReceivedDataStructureINS
 6470              	_ZNK6uavcan12MethodBinderIPKNS_20RestartRequestServerEMS1_KFvRKNS_21ReceivedDataStructureINS_8proto
 6471              		@ args = 0, pretend = 0, frame = 0
 6472              		@ frame_needed = 0, uses_anonymous_args = 0
 6473              		@ link register save eliminated.
 6474 0000 0368     		ldr	r3, [r0]
 6475 0002 2BB1     		cbz	r3, .L809
 6476 0004 4368     		ldr	r3, [r0, #4]
 6477 0006 2BB9     		cbnz	r3, .L810
 6478 0008 8068     		ldr	r0, [r0, #8]
 6479 000a 00F00100 		and	r0, r0, #1
 6480 000e 7047     		bx	lr
 6481              	.L809:
 6482 0010 1846     		mov	r0, r3
 6483 0012 7047     		bx	lr
 6484              	.L810:
 6485 0014 0120     		movs	r0, #1
 6486 0016 7047     		bx	lr
 6487              		.size	_ZNK6uavcan12MethodBinderIPKNS_20RestartRequestServerEMS1_KFvRKNS_21ReceivedDataStructureINS
 6488              		.section	.text._ZN6uavcan13ServiceServerINS_8protocol12RestartNode_ENS_12MethodBinderIPKNS_20Resta
 6489              		.align	1
 6490              		.weak	_ZN6uavcan13ServiceServerINS_8protocol12RestartNode_ENS_12MethodBinderIPKNS_20RestartRequest
 6491              		.thumb
 6492              		.thumb_func
 6493              		.type	_ZN6uavcan13ServiceServerINS_8protocol12RestartNode_ENS_12MethodBinderIPKNS_20RestartRequest
 6494              	_ZN6uavcan13ServiceServerINS_8protocol12RestartNode_ENS_12MethodBinderIPKNS_20RestartRequestServerE
ARM GAS  /tmp/ccFEREDd.s 			page 115


 6495              		@ args = 0, pretend = 0, frame = 48
 6496              		@ frame_needed = 0, uses_anonymous_args = 0
 6497 0000 2DE9F041 		push	{r4, r5, r6, r7, r8, lr}
 6498 0004 0023     		movs	r3, #0
 6499 0006 8EB0     		sub	sp, sp, #56
 6500 0008 0446     		mov	r4, r0
 6501 000a 8DF81230 		strb	r3, [sp, #18]
 6502 000e 6830     		adds	r0, r0, #104
 6503 0010 0123     		movs	r3, #1
 6504 0012 0D46     		mov	r5, r1
 6505 0014 8DF81330 		strb	r3, [sp, #19]
 6506 0018 FFF7FEFF 		bl	_ZNK6uavcan12MethodBinderIPKNS_20RestartRequestServerEMS1_KFvRKNS_21ReceivedDataStructureINS_8p
 6507 001c A0B1     		cbz	r0, .L812
 6508 001e 226F     		ldr	r2, [r4, #112]
 6509 0020 A06E     		ldr	r0, [r4, #104]
 6510 0022 12F0010F 		tst	r2, #1
 6511 0026 4FEA6202 		asr	r2, r2, #1
 6512 002a 18BF     		it	ne
 6513 002c 8158     		ldrne	r1, [r0, r2]
 6514 002e E36E     		ldr	r3, [r4, #108]
 6515 0030 1044     		add	r0, r0, r2
 6516 0032 18BF     		it	ne
 6517 0034 CB58     		ldrne	r3, [r1, r3]
 6518 0036 0DF11202 		add	r2, sp, #18
 6519 003a 2946     		mov	r1, r5
 6520 003c 9847     		blx	r3
 6521 003e 9DF81330 		ldrb	r3, [sp, #19]	@ zero_extendqisi2
 6522 0042 002B     		cmp	r3, #0
 6523 0044 51D0     		beq	.L811
 6524 0046 02E0     		b	.L828
 6525              	.L812:
 6526 0048 2948     		ldr	r0, .L829
 6527 004a FFF7FEFF 		bl	_ZN6uavcan16handleFatalErrorEPKc
 6528              	.L828:
 6529 004e AB68     		ldr	r3, [r5, #8]
 6530 0050 0BB1     		cbz	r3, .L823
 6531 0052 1B7E     		ldrb	r3, [r3, #24]	@ zero_extendqisi2
 6532 0054 00E0     		b	.L817
 6533              	.L823:
 6534 0056 FF23     		movs	r3, #255
 6535              	.L817:
 6536 0058 84F84C30 		strb	r3, [r4, #76]
 6537 005c AB68     		ldr	r3, [r5, #8]
 6538 005e 04F14007 		add	r7, r4, #64
 6539 0062 13B1     		cbz	r3, .L824
 6540 0064 DE7E     		ldrb	r6, [r3, #27]	@ zero_extendqisi2
 6541 0066 9B7E     		ldrb	r3, [r3, #26]	@ zero_extendqisi2
 6542 0068 00E0     		b	.L818
 6543              	.L824:
 6544 006a FF26     		movs	r6, #255
 6545              	.L818:
 6546 006c 3846     		mov	r0, r7
 6547 006e 8DF81030 		strb	r3, [sp, #16]
 6548 0072 FFF7FEFF 		bl	_ZN6uavcan16GenericPublisherINS_8protocol12RestartNode_ENS2_9Response_ILi0EEEE9checkInitEv
 6549 0076 0028     		cmp	r0, #0
 6550 0078 2CDB     		blt	.L819
 6551 007a 0DAB     		add	r3, sp, #52
ARM GAS  /tmp/ccFEREDd.s 			page 116


 6552 007c 9DF81210 		ldrb	r1, [sp, #18]	@ zero_extendqisi2
 6553 0080 0B93     		str	r3, [sp, #44]
 6554 0082 1C4B     		ldr	r3, .L829+4
 6555 0084 0025     		movs	r5, #0
 6556 0086 0122     		movs	r2, #1
 6557 0088 0A93     		str	r3, [sp, #40]
 6558 008a 8DF81110 		strb	r1, [sp, #17]
 6559 008e 06AB     		add	r3, sp, #24
 6560 0090 0DF12808 		add	r8, sp, #40
 6561 0094 05A8     		add	r0, sp, #20
 6562 0096 0DF11101 		add	r1, sp, #17
 6563 009a ADF83020 		strh	r2, [sp, #48]	@ movhi
 6564 009e ADF83250 		strh	r5, [sp, #50]	@ movhi
 6565 00a2 CDF81880 		str	r8, [sp, #24]
 6566 00a6 0795     		str	r5, [sp, #28]
 6567 00a8 8DF82050 		strb	r5, [sp, #32]
 6568 00ac 0593     		str	r3, [sp, #20]
 6569 00ae 0393     		str	r3, [sp, #12]
 6570 00b0 FFF7FEFF 		bl	_ZN6uavcan11ScalarCodec15encodeBytesImplEPhj
 6571 00b4 A842     		cmp	r0, r5
 6572 00b6 0FDD     		ble	.L827
 6573 00b8 039B     		ldr	r3, [sp, #12]
 6574 00ba 0020     		movs	r0, #0
 6575 00bc 0021     		movs	r1, #0
 6576 00be 04AA     		add	r2, sp, #16
 6577 00c0 CDE90601 		strd	r0, [sp, #24]
 6578 00c4 0092     		str	r2, [sp]
 6579 00c6 0193     		str	r3, [sp, #4]
 6580 00c8 3846     		mov	r0, r7
 6581 00ca 4146     		mov	r1, r8
 6582 00cc 2A46     		mov	r2, r5
 6583 00ce 3346     		mov	r3, r6
 6584 00d0 FFF7FEFF 		bl	_ZN6uavcan20GenericPublisherBase14genericPublishERKNS_24StaticTransferBufferImplENS_12TransferT
 6585              	.L819:
 6586 00d4 0028     		cmp	r0, #0
 6587 00d6 08DA     		bge	.L811
 6588              	.L827:
 6589 00d8 206E     		ldr	r0, [r4, #96]
 6590 00da FFF7FEFF 		bl	_ZN6uavcan5INode13getDispatcherEv
 6591 00de C030     		adds	r0, r0, #192
 6592 00e0 FFF7FEFF 		bl	_ZN6uavcan19TransferPerfCounter8addErrorEv.isra.6
 6593 00e4 636F     		ldr	r3, [r4, #116]
 6594 00e6 0133     		adds	r3, r3, #1
 6595 00e8 6367     		str	r3, [r4, #116]
 6596              	.L811:
 6597 00ea 0EB0     		add	sp, sp, #56
 6598              		@ sp needed
 6599 00ec BDE8F081 		pop	{r4, r5, r6, r7, r8, pc}
 6600              	.L830:
 6601              		.align	2
 6602              	.L829:
 6603 00f0 25020000 		.word	.LC22
 6604 00f4 08000000 		.word	_ZTVN6uavcan20StaticTransferBufferILt1EEE+8
 6605              		.size	_ZN6uavcan13ServiceServerINS_8protocol12RestartNode_ENS_12MethodBinderIPKNS_20RestartRequest
 6606              		.section	.text._ZNK6uavcan12MethodBinderIPKNS_22TransportStatsProviderEMS1_KFvRKNS_8protocol18GetT
 6607              		.align	1
 6608              		.weak	_ZNK6uavcan12MethodBinderIPKNS_22TransportStatsProviderEMS1_KFvRKNS_8protocol18GetTransportS
ARM GAS  /tmp/ccFEREDd.s 			page 117


 6609              		.thumb
 6610              		.thumb_func
 6611              		.type	_ZNK6uavcan12MethodBinderIPKNS_22TransportStatsProviderEMS1_KFvRKNS_8protocol18GetTransportS
 6612              	_ZNK6uavcan12MethodBinderIPKNS_22TransportStatsProviderEMS1_KFvRKNS_8protocol18GetTransportStats_8R
 6613              		@ args = 0, pretend = 0, frame = 0
 6614              		@ frame_needed = 0, uses_anonymous_args = 0
 6615              		@ link register save eliminated.
 6616 0000 0368     		ldr	r3, [r0]
 6617 0002 2BB1     		cbz	r3, .L833
 6618 0004 4368     		ldr	r3, [r0, #4]
 6619 0006 2BB9     		cbnz	r3, .L834
 6620 0008 8068     		ldr	r0, [r0, #8]
 6621 000a 00F00100 		and	r0, r0, #1
 6622 000e 7047     		bx	lr
 6623              	.L833:
 6624 0010 1846     		mov	r0, r3
 6625 0012 7047     		bx	lr
 6626              	.L834:
 6627 0014 0120     		movs	r0, #1
 6628 0016 7047     		bx	lr
 6629              		.size	_ZNK6uavcan12MethodBinderIPKNS_22TransportStatsProviderEMS1_KFvRKNS_8protocol18GetTransportS
 6630              		.section	.text._ZN6uavcan4NodeILj7168EE5startENS_16TransferPriorityE,"axG",%progbits,_ZN6uavcan4No
 6631              		.align	1
 6632              		.weak	_ZN6uavcan4NodeILj7168EE5startENS_16TransferPriorityE
 6633              		.thumb
 6634              		.thumb_func
 6635              		.type	_ZN6uavcan4NodeILj7168EE5startENS_16TransferPriorityE, %function
 6636              	_ZN6uavcan4NodeILj7168EE5startENS_16TransferPriorityE:
 6637              		@ args = 0, pretend = 0, frame = 40
 6638              		@ frame_needed = 0, uses_anonymous_args = 0
 6639 0000 42F29813 		movw	r3, #8600
 6640 0004 2DE9F04F 		push	{r4, r5, r6, r7, r8, r9, r10, fp, lr}
 6641 0008 C75C     		ldrb	r7, [r0, r3]	@ zero_extendqisi2
 6642 000a 8DB0     		sub	sp, sp, #52
 6643 000c 0446     		mov	r4, r0
 6644 000e 0D46     		mov	r5, r1
 6645 0010 07BB     		cbnz	r7, .L843
 6646 0012 FFF7FEFF 		bl	_ZN6uavcan22GlobalDataTypeRegistry8instanceEv
 6647 0016 FFF7FEFF 		bl	_ZN6uavcan22GlobalDataTypeRegistry6freezeEv
 6648 001a 04F5E950 		add	r0, r4, #7456
 6649 001e 2946     		mov	r1, r5
 6650 0020 FFF7FEFF 		bl	_ZN6uavcan18NodeStatusProvider15startAndPublishENS_16TransferPriorityE
 6651 0024 0028     		cmp	r0, #0
 6652 0026 C0F2AA80 		blt	.L848
 6653 002a 04F5FB50 		add	r0, r4, #8032
 6654 002e 1030     		adds	r0, r0, #16
 6655 0030 FFF7FEFF 		bl	_ZN6uavcan20DataTypeInfoProvider5startEv
 6656 0034 0028     		cmp	r0, #0
 6657 0036 C0F2A280 		blt	.L848
 6658 003a 524B     		ldr	r3, .L854
 6659 003c 04F5FF50 		add	r0, r4, #8160
 6660 0040 1A78     		ldrb	r2, [r3]	@ zero_extendqisi2
 6661 0042 41F6F473 		movw	r3, #8180
 6662 0046 0830     		adds	r0, r0, #8
 6663 0048 E254     		strb	r2, [r4, r3]
 6664 004a FFF7FEFF 		bl	_ZN6uavcan16GenericPublisherINS_8protocol5debug11LogMessage_ILi0EEES4_E9checkInitEv
 6665 004e 0028     		cmp	r0, #0
ARM GAS  /tmp/ccFEREDd.s 			page 118


 6666 0050 02DA     		bge	.L849
 6667 0052 94E0     		b	.L848
 6668              	.L843:
 6669 0054 0020     		movs	r0, #0
 6670 0056 92E0     		b	.L848
 6671              	.L849:
 6672 0058 42F2D00A 		movw	r10, #8400
 6673 005c 04F50256 		add	r6, r4, #8320
 6674 0060 1836     		adds	r6, r6, #24
 6675 0062 494B     		ldr	r3, .L854+4
 6676 0064 06F10409 		add	r9, r6, #4
 6677 0068 4846     		mov	r0, r9
 6678 006a 54F80A10 		ldr	r1, [r4, r10]
 6679 006e 09AD     		add	r5, sp, #36
 6680 0070 0996     		str	r6, [sp, #36]
 6681 0072 0A93     		str	r3, [sp, #40]
 6682 0074 0B97     		str	r7, [sp, #44]
 6683 0076 FFF7FEFF 		bl	_ZN6uavcan21GenericSubscriberBase4stopEPNS_16TransferListenerE
 6684 007a 2846     		mov	r0, r5
 6685 007c FFF7FEFF 		bl	_ZNK6uavcan12MethodBinderIPKNS_20RestartRequestServerEMS1_KFvRKNS_21ReceivedDataStructureINS_8p
 6686 0080 0028     		cmp	r0, #0
 6687 0082 5ED0     		beq	.L852
 6688 0084 95E80700 		ldmia	r5, {r0, r1, r2}
 6689 0088 04F50453 		add	r3, r4, #8448
 6690 008c 83E80700 		stmia	r3, {r0, r1, r2}
 6691 0090 06F14000 		add	r0, r6, #64
 6692 0094 FFF7FEFF 		bl	_ZN6uavcan16GenericPublisherINS_8protocol12RestartNode_ENS2_9Response_ILi0EEEE9checkInitEv
 6693 0098 0028     		cmp	r0, #0
 6694 009a 70DB     		blt	.L848
 6695 009c 3B4B     		ldr	r3, .L854+8
 6696 009e 0697     		str	r7, [sp, #24]
 6697 00a0 54F80A70 		ldr	r7, [r4, r10]
 6698 00a4 0593     		str	r3, [sp, #20]
 6699 00a6 9846     		mov	r8, r3
 6700 00a8 7FBB     		cbnz	r7, .L839
 6701 00aa FFF7FEFF 		bl	_ZN6uavcan22GlobalDataTypeRegistry8instanceEv
 6702 00ae FFF7FEFF 		bl	_ZN6uavcan22GlobalDataTypeRegistry6freezeEv
 6703 00b2 FFF7FEFF 		bl	_ZN6uavcan22GlobalDataTypeRegistry8instanceEv
 6704 00b6 3946     		mov	r1, r7
 6705 00b8 354A     		ldr	r2, .L854+12
 6706 00ba FFF7FEFF 		bl	_ZNK6uavcan22GlobalDataTypeRegistry4findENS_12DataTypeKindEPKc
 6707 00be 8346     		mov	fp, r0
 6708 00c0 00B3     		cbz	r0, .L846
 6709 00c2 7068     		ldr	r0, [r6, #4]
 6710 00c4 0368     		ldr	r3, [r0]
 6711 00c6 9B68     		ldr	r3, [r3, #8]
 6712 00c8 9847     		blx	r3
 6713 00ca 54F80A20 		ldr	r2, [r4, r10]
 6714 00ce 12B1     		cbz	r2, .L840
 6715 00d0 3048     		ldr	r0, .L854+16
 6716 00d2 FFF7FEFF 		bl	_ZN6uavcan16handleFatalErrorEPKc
 6717              	.L840:
 6718 00d6 0390     		str	r0, [sp, #12]
 6719 00d8 7068     		ldr	r0, [r6, #4]
 6720 00da FFF7FEFF 		bl	_ZN6uavcan5INode13getDispatcherEv
 6721 00de 04F50257 		add	r7, r4, #8320
 6722 00e2 039B     		ldr	r3, [sp, #12]
ARM GAS  /tmp/ccFEREDd.s 			page 119


 6723 00e4 2437     		adds	r7, r7, #36
 6724 00e6 00F1B001 		add	r1, r0, #176
 6725 00ea 0093     		str	r3, [sp]
 6726 00ec 5A46     		mov	r2, fp
 6727 00ee 0523     		movs	r3, #5
 6728 00f0 3846     		mov	r0, r7
 6729 00f2 FFF7FEFF 		bl	_ZN6uavcan16TransferListenerC2ERNS_19TransferPerfCounterERKNS_18DataTypeDescriptorEtRNS_14IPool
 6730 00f6 42F2A403 		movw	r3, #8356
 6731 00fa 274A     		ldr	r2, .L854+20
 6732 00fc E250     		str	r2, [r4, r3]
 6733 00fe BE62     		str	r6, [r7, #40]
 6734 0100 FF62     		str	r7, [r7, #44]
 6735 0102 02E0     		b	.L839
 6736              	.L846:
 6737 0104 6FF00400 		mvn	r0, #4
 6738 0108 39E0     		b	.L848
 6739              	.L839:
 6740 010a 42F2D003 		movw	r3, #8400
 6741 010e E158     		ldr	r1, [r4, r3]
 6742 0110 05AB     		add	r3, sp, #20
 6743 0112 4846     		mov	r0, r9
 6744 0114 0CCB     		ldmia	r3, {r2, r3}
 6745 0116 FFF7FEFF 		bl	_ZN6uavcan21GenericSubscriberBase12genericStartEPNS_16TransferListenerEMNS_10DispatcherEFbS2_E
 6746 011a 0028     		cmp	r0, #0
 6747 011c 2FDB     		blt	.L848
 6748 011e 1F4B     		ldr	r3, .L854+24
 6749 0120 04F50456 		add	r6, r4, #8448
 6750 0124 0A93     		str	r3, [sp, #40]
 6751 0126 42F25013 		movw	r3, #8528
 6752 012a 1836     		adds	r6, r6, #24
 6753 012c 301D     		adds	r0, r6, #4
 6754 012e 0027     		movs	r7, #0
 6755 0130 E158     		ldr	r1, [r4, r3]
 6756 0132 0996     		str	r6, [sp, #36]
 6757 0134 0B97     		str	r7, [sp, #44]
 6758 0136 FFF7FEFF 		bl	_ZN6uavcan21GenericSubscriberBase4stopEPNS_16TransferListenerE
 6759 013a 2846     		mov	r0, r5
 6760 013c FFF7FEFF 		bl	_ZNK6uavcan12MethodBinderIPKNS_22TransportStatsProviderEMS1_KFvRKNS_8protocol18GetTransportStat
 6761 0140 10B9     		cbnz	r0, .L853
 6762              	.L852:
 6763 0142 6FF00100 		mvn	r0, #1
 6764 0146 1AE0     		b	.L848
 6765              	.L853:
 6766 0148 04F50653 		add	r3, r4, #8576
 6767 014c 95E80700 		ldmia	r5, {r0, r1, r2}
 6768 0150 83E80700 		stmia	r3, {r0, r1, r2}
 6769 0154 06F14000 		add	r0, r6, #64
 6770 0158 FFF7FEFF 		bl	_ZN6uavcan16GenericPublisherINS_8protocol18GetTransportStats_ENS2_9Response_ILi0EEEE9checkInitE
 6771 015c 0028     		cmp	r0, #0
 6772 015e 0EDB     		blt	.L848
 6773 0160 07AB     		add	r3, sp, #28
 6774 0162 CDF81C80 		str	r8, [sp, #28]
 6775 0166 0897     		str	r7, [sp, #32]
 6776 0168 93E80600 		ldmia	r3, {r1, r2}
 6777 016c 3046     		mov	r0, r6
 6778 016e FFF7FEFF 		bl	_ZN6uavcan17GenericSubscriberINS_8protocol18GetTransportStats_ENS2_8Request_ILi0EEENS_16Transfe
 6779 0172 0028     		cmp	r0, #0
ARM GAS  /tmp/ccFEREDd.s 			page 120


 6780 0174 A2BF     		ittt	ge
 6781 0176 42F29813 		movwge	r3, #8600
 6782 017a 0122     		movge	r2, #1
 6783 017c E254     		strbge	r2, [r4, r3]
 6784              	.L848:
 6785 017e 0DB0     		add	sp, sp, #52
 6786              		@ sp needed
 6787 0180 BDE8F08F 		pop	{r4, r5, r6, r7, r8, r9, r10, fp, pc}
 6788              	.L855:
 6789              		.align	2
 6790              	.L854:
 6791 0184 00000000 		.word	_ZN6uavcan16TransferPriority6LowestE
 6792 0188 00000000 		.word	_ZNK6uavcan20RestartRequestServer17handleRestartNodeERKNS_21ReceivedDataStructureINS_8protoc
 6793 018c 00000000 		.word	_ZN6uavcan10Dispatcher30registerServiceRequestListenerEPNS_16TransferListenerE
 6794 0190 C8010000 		.word	.LC19
 6795 0194 1A000000 		.word	.LC2
 6796 0198 08000000 		.word	_ZTVN6uavcan17GenericSubscriberINS_8protocol12RestartNode_ENS2_8Request_ILi0EEENS_16Transfer
 6797 019c 00000000 		.word	_ZNK6uavcan22TransportStatsProvider23handleGetTransportStatsERKNS_8protocol18GetTransportSta
 6798              		.size	_ZN6uavcan4NodeILj7168EE5startENS_16TransferPriorityE, .-_ZN6uavcan4NodeILj7168EE5startENS_1
 6799              		.section	.text._ZNK6uavcan12MethodBinderIPNS_19GlobalTimeSyncSlaveEMS1_FvRKNS_21ReceivedDataStruct
 6800              		.align	1
 6801              		.weak	_ZNK6uavcan12MethodBinderIPNS_19GlobalTimeSyncSlaveEMS1_FvRKNS_21ReceivedDataStructureINS_8p
 6802              		.thumb
 6803              		.thumb_func
 6804              		.type	_ZNK6uavcan12MethodBinderIPNS_19GlobalTimeSyncSlaveEMS1_FvRKNS_21ReceivedDataStructureINS_8p
 6805              	_ZNK6uavcan12MethodBinderIPNS_19GlobalTimeSyncSlaveEMS1_FvRKNS_21ReceivedDataStructureINS_8protocol
 6806              		@ args = 0, pretend = 0, frame = 0
 6807              		@ frame_needed = 0, uses_anonymous_args = 0
 6808              		@ link register save eliminated.
 6809 0000 0368     		ldr	r3, [r0]
 6810 0002 2BB1     		cbz	r3, .L858
 6811 0004 4368     		ldr	r3, [r0, #4]
 6812 0006 2BB9     		cbnz	r3, .L859
 6813 0008 8068     		ldr	r0, [r0, #8]
 6814 000a 00F00100 		and	r0, r0, #1
 6815 000e 7047     		bx	lr
 6816              	.L858:
 6817 0010 1846     		mov	r0, r3
 6818 0012 7047     		bx	lr
 6819              	.L859:
 6820 0014 0120     		movs	r0, #1
 6821 0016 7047     		bx	lr
 6822              		.size	_ZNK6uavcan12MethodBinderIPNS_19GlobalTimeSyncSlaveEMS1_FvRKNS_21ReceivedDataStructureINS_8p
 6823              		.section	.text._ZN6uavcan19GlobalTimeSyncSlave5startEv,"axG",%progbits,_ZN6uavcan19GlobalTimeSyncS
 6824              		.align	1
 6825              		.weak	_ZN6uavcan19GlobalTimeSyncSlave5startEv
 6826              		.thumb
 6827              		.thumb_func
 6828              		.type	_ZN6uavcan19GlobalTimeSyncSlave5startEv, %function
 6829              	_ZN6uavcan19GlobalTimeSyncSlave5startEv:
 6830              		@ args = 0, pretend = 0, frame = 24
 6831              		@ frame_needed = 0, uses_anonymous_args = 0
 6832 0000 2DE9F041 		push	{r4, r5, r6, r7, r8, lr}
 6833 0004 0446     		mov	r4, r0
 6834 0006 88B0     		sub	sp, sp, #32
 6835 0008 294B     		ldr	r3, .L867
 6836 000a 061D     		adds	r6, r0, #4
ARM GAS  /tmp/ccFEREDd.s 			page 121


 6837 000c 0590     		str	r0, [sp, #20]
 6838 000e 0027     		movs	r7, #0
 6839 0010 3046     		mov	r0, r6
 6840 0012 A16B     		ldr	r1, [r4, #56]
 6841 0014 05AD     		add	r5, sp, #20
 6842 0016 0693     		str	r3, [sp, #24]
 6843 0018 0797     		str	r7, [sp, #28]
 6844 001a FFF7FEFF 		bl	_ZN6uavcan21GenericSubscriberBase4stopEPNS_16TransferListenerE
 6845 001e 2846     		mov	r0, r5
 6846 0020 FFF7FEFF 		bl	_ZNK6uavcan12MethodBinderIPNS_19GlobalTimeSyncSlaveEMS1_FvRKNS_21ReceivedDataStructureINS_8prot
 6847 0024 0028     		cmp	r0, #0
 6848 0026 33D0     		beq	.L864
 6849 0028 95E80700 		ldmia	r5, {r0, r1, r2}
 6850 002c 04F13C03 		add	r3, r4, #60
 6851 0030 83E80700 		stmia	r3, {r0, r1, r2}
 6852 0034 1F4B     		ldr	r3, .L867+4
 6853 0036 0497     		str	r7, [sp, #16]
 6854 0038 0393     		str	r3, [sp, #12]
 6855 003a A36B     		ldr	r3, [r4, #56]
 6856 003c 73BB     		cbnz	r3, .L862
 6857 003e FFF7FEFF 		bl	_ZN6uavcan22GlobalDataTypeRegistry8instanceEv
 6858 0042 FFF7FEFF 		bl	_ZN6uavcan22GlobalDataTypeRegistry6freezeEv
 6859 0046 FFF7FEFF 		bl	_ZN6uavcan22GlobalDataTypeRegistry8instanceEv
 6860 004a 0121     		movs	r1, #1
 6861 004c 1A4A     		ldr	r2, .L867+8
 6862 004e FFF7FEFF 		bl	_ZNK6uavcan22GlobalDataTypeRegistry4findENS_12DataTypeKindEPKc
 6863 0052 0746     		mov	r7, r0
 6864 0054 F8B1     		cbz	r0, .L865
 6865 0056 6068     		ldr	r0, [r4, #4]
 6866 0058 0368     		ldr	r3, [r0]
 6867 005a 9B68     		ldr	r3, [r3, #8]
 6868 005c 9847     		blx	r3
 6869 005e A36B     		ldr	r3, [r4, #56]
 6870 0060 8046     		mov	r8, r0
 6871 0062 13B1     		cbz	r3, .L863
 6872 0064 1548     		ldr	r0, .L867+12
 6873 0066 FFF7FEFF 		bl	_ZN6uavcan16handleFatalErrorEPKc
 6874              	.L863:
 6875 006a 6068     		ldr	r0, [r4, #4]
 6876 006c FFF7FEFF 		bl	_ZN6uavcan5INode13getDispatcherEv
 6877 0070 04F10C05 		add	r5, r4, #12
 6878 0074 00F1B001 		add	r1, r0, #176
 6879 0078 0723     		movs	r3, #7
 6880 007a CDF80080 		str	r8, [sp]
 6881 007e 2846     		mov	r0, r5
 6882 0080 3A46     		mov	r2, r7
 6883 0082 FFF7FEFF 		bl	_ZN6uavcan16TransferListenerC2ERNS_19TransferPerfCounterERKNS_18DataTypeDescriptorEtRNS_14IPool
 6884 0086 0E4B     		ldr	r3, .L867+16
 6885 0088 6463     		str	r4, [r4, #52]
 6886 008a E360     		str	r3, [r4, #12]
 6887 008c A563     		str	r5, [r4, #56]
 6888 008e 05E0     		b	.L862
 6889              	.L864:
 6890 0090 6FF00100 		mvn	r0, #1
 6891 0094 08E0     		b	.L866
 6892              	.L865:
 6893 0096 6FF00400 		mvn	r0, #4
ARM GAS  /tmp/ccFEREDd.s 			page 122


 6894 009a 05E0     		b	.L866
 6895              	.L862:
 6896 009c 03AB     		add	r3, sp, #12
 6897 009e 3046     		mov	r0, r6
 6898 00a0 0CCB     		ldmia	r3, {r2, r3}
 6899 00a2 A16B     		ldr	r1, [r4, #56]
 6900 00a4 FFF7FEFF 		bl	_ZN6uavcan21GenericSubscriberBase12genericStartEPNS_16TransferListenerEMNS_10DispatcherEFbS2_E
 6901              	.L866:
 6902 00a8 08B0     		add	sp, sp, #32
 6903              		@ sp needed
 6904 00aa BDE8F081 		pop	{r4, r5, r6, r7, r8, pc}
 6905              	.L868:
 6906 00ae 00BF     		.align	2
 6907              	.L867:
 6908 00b0 00000000 		.word	_ZN6uavcan19GlobalTimeSyncSlave20handleGlobalTimeSyncERKNS_21ReceivedDataStructureINS_8proto
 6909 00b4 00000000 		.word	_ZN6uavcan10Dispatcher23registerMessageListenerEPNS_16TransferListenerE
 6910 00b8 80010000 		.word	.LC17
 6911 00bc 1A000000 		.word	.LC2
 6912 00c0 08000000 		.word	_ZTVN6uavcan17GenericSubscriberINS_8protocol15GlobalTimeSync_ILi0EEES3_NS_16TransferListener
 6913              		.size	_ZN6uavcan19GlobalTimeSyncSlave5startEv, .-_ZN6uavcan19GlobalTimeSyncSlave5startEv
 6914              		.section	.text._ZN6uavcan10SubscriberINS_8protocol15GlobalTimeSync_ILi0EEENS_12MethodBinderIPNS_19
 6915              		.align	1
 6916              		.weak	_ZN6uavcan10SubscriberINS_8protocol15GlobalTimeSync_ILi0EEENS_12MethodBinderIPNS_19GlobalTim
 6917              		.thumb
 6918              		.thumb_func
 6919              		.type	_ZN6uavcan10SubscriberINS_8protocol15GlobalTimeSync_ILi0EEENS_12MethodBinderIPNS_19GlobalTim
 6920              	_ZN6uavcan10SubscriberINS_8protocol15GlobalTimeSync_ILi0EEENS_12MethodBinderIPNS_19GlobalTimeSyncSl
 6921              		@ args = 0, pretend = 0, frame = 0
 6922              		@ frame_needed = 0, uses_anonymous_args = 0
 6923 0000 70B5     		push	{r4, r5, r6, lr}
 6924 0002 0446     		mov	r4, r0
 6925 0004 3C30     		adds	r0, r0, #60
 6926 0006 0D46     		mov	r5, r1
 6927 0008 FFF7FEFF 		bl	_ZNK6uavcan12MethodBinderIPNS_19GlobalTimeSyncSlaveEMS1_FvRKNS_21ReceivedDataStructureINS_8prot
 6928 000c 78B1     		cbz	r0, .L870
 6929 000e 626C     		ldr	r2, [r4, #68]
 6930 0010 E06B     		ldr	r0, [r4, #60]
 6931 0012 12F0010F 		tst	r2, #1
 6932 0016 4FEA6202 		asr	r2, r2, #1
 6933 001a 18BF     		it	ne
 6934 001c 8158     		ldrne	r1, [r0, r2]
 6935 001e 236C     		ldr	r3, [r4, #64]
 6936 0020 1044     		add	r0, r0, r2
 6937 0022 18BF     		it	ne
 6938 0024 CB58     		ldrne	r3, [r1, r3]
 6939 0026 2946     		mov	r1, r5
 6940 0028 BDE87040 		pop	{r4, r5, r6, lr}
 6941 002c 1847     		bx	r3	@ indirect register sibling call
 6942              	.L870:
 6943 002e 0148     		ldr	r0, .L873
 6944 0030 FFF7FEFF 		bl	_ZN6uavcan16handleFatalErrorEPKc
 6945              	.L874:
 6946              		.align	2
 6947              	.L873:
 6948 0034 33020000 		.word	.LC23
 6949              		.size	_ZN6uavcan10SubscriberINS_8protocol15GlobalTimeSync_ILi0EEENS_12MethodBinderIPNS_19GlobalTim
 6950              		.section	.text._ZNK6uavcan12MethodBinderIPNS_11ParamServerEMS1_FvRKNS_8protocol5param7GetSet_8Requ
ARM GAS  /tmp/ccFEREDd.s 			page 123


 6951              		.align	1
 6952              		.weak	_ZNK6uavcan12MethodBinderIPNS_11ParamServerEMS1_FvRKNS_8protocol5param7GetSet_8Request_ILi0E
 6953              		.thumb
 6954              		.thumb_func
 6955              		.type	_ZNK6uavcan12MethodBinderIPNS_11ParamServerEMS1_FvRKNS_8protocol5param7GetSet_8Request_ILi0E
 6956              	_ZNK6uavcan12MethodBinderIPNS_11ParamServerEMS1_FvRKNS_8protocol5param7GetSet_8Request_ILi0EEERNS5_
 6957              		@ args = 0, pretend = 0, frame = 0
 6958              		@ frame_needed = 0, uses_anonymous_args = 0
 6959              		@ link register save eliminated.
 6960 0000 0368     		ldr	r3, [r0]
 6961 0002 2BB1     		cbz	r3, .L877
 6962 0004 4368     		ldr	r3, [r0, #4]
 6963 0006 2BB9     		cbnz	r3, .L878
 6964 0008 8068     		ldr	r0, [r0, #8]
 6965 000a 00F00100 		and	r0, r0, #1
 6966 000e 7047     		bx	lr
 6967              	.L877:
 6968 0010 1846     		mov	r0, r3
 6969 0012 7047     		bx	lr
 6970              	.L878:
 6971 0014 0120     		movs	r0, #1
 6972 0016 7047     		bx	lr
 6973              		.size	_ZNK6uavcan12MethodBinderIPNS_11ParamServerEMS1_FvRKNS_8protocol5param7GetSet_8Request_ILi0E
 6974              		.section	.text._ZNK6uavcan12MethodBinderIPNS_11ParamServerEMS1_FvRKNS_8protocol5param14ExecuteOpco
 6975              		.align	1
 6976              		.weak	_ZNK6uavcan12MethodBinderIPNS_11ParamServerEMS1_FvRKNS_8protocol5param14ExecuteOpcode_8Reque
 6977              		.thumb
 6978              		.thumb_func
 6979              		.type	_ZNK6uavcan12MethodBinderIPNS_11ParamServerEMS1_FvRKNS_8protocol5param14ExecuteOpcode_8Reque
 6980              	_ZNK6uavcan12MethodBinderIPNS_11ParamServerEMS1_FvRKNS_8protocol5param14ExecuteOpcode_8Request_ILi0
 6981              		@ args = 0, pretend = 0, frame = 0
 6982              		@ frame_needed = 0, uses_anonymous_args = 0
 6983              		@ link register save eliminated.
 6984 0000 0368     		ldr	r3, [r0]
 6985 0002 2BB1     		cbz	r3, .L881
 6986 0004 4368     		ldr	r3, [r0, #4]
 6987 0006 2BB9     		cbnz	r3, .L882
 6988 0008 8068     		ldr	r0, [r0, #8]
 6989 000a 00F00100 		and	r0, r0, #1
 6990 000e 7047     		bx	lr
 6991              	.L881:
 6992 0010 1846     		mov	r0, r3
 6993 0012 7047     		bx	lr
 6994              	.L882:
 6995 0014 0120     		movs	r0, #1
 6996 0016 7047     		bx	lr
 6997              		.size	_ZNK6uavcan12MethodBinderIPNS_11ParamServerEMS1_FvRKNS_8protocol5param14ExecuteOpcode_8Reque
 6998              		.section	.text._ZN6uavcan11ParamServer5startEPNS_13IParamManagerE,"axG",%progbits,_ZN6uavcan11Para
 6999              		.align	1
 7000              		.weak	_ZN6uavcan11ParamServer5startEPNS_13IParamManagerE
 7001              		.thumb
 7002              		.thumb_func
 7003              		.type	_ZN6uavcan11ParamServer5startEPNS_13IParamManagerE, %function
 7004              	_ZN6uavcan11ParamServer5startEPNS_13IParamManagerE:
 7005              		@ args = 0, pretend = 0, frame = 40
 7006              		@ frame_needed = 0, uses_anonymous_args = 0
 7007 0000 2DE9F047 		push	{r4, r5, r6, r7, r8, r9, r10, lr}
ARM GAS  /tmp/ccFEREDd.s 			page 124


 7008 0004 0446     		mov	r4, r0
 7009 0006 8CB0     		sub	sp, sp, #48
 7010 0008 0029     		cmp	r1, #0
 7011 000a 52D0     		beq	.L891
 7012 000c C0F8F010 		str	r1, [r0, #240]
 7013 0010 624B     		ldr	r3, .L899
 7014 0012 071D     		adds	r7, r0, #4
 7015 0014 0690     		str	r0, [sp, #24]
 7016 0016 4FF00008 		mov	r8, #0
 7017 001a 3846     		mov	r0, r7
 7018 001c A16B     		ldr	r1, [r4, #56]
 7019 001e 06AD     		add	r5, sp, #24
 7020 0020 0793     		str	r3, [sp, #28]
 7021 0022 CDF82080 		str	r8, [sp, #32]
 7022 0026 FFF7FEFF 		bl	_ZN6uavcan21GenericSubscriberBase4stopEPNS_16TransferListenerE
 7023 002a 2846     		mov	r0, r5
 7024 002c FFF7FEFF 		bl	_ZNK6uavcan12MethodBinderIPNS_11ParamServerEMS1_FvRKNS_8protocol5param7GetSet_8Request_ILi0EEER
 7025 0030 0028     		cmp	r0, #0
 7026 0032 3ED0     		beq	.L891
 7027 0034 95E80700 		ldmia	r5, {r0, r1, r2}
 7028 0038 04F16803 		add	r3, r4, #104
 7029 003c 83E80700 		stmia	r3, {r0, r1, r2}
 7030 0040 04F14000 		add	r0, r4, #64
 7031 0044 FFF7FEFF 		bl	_ZN6uavcan16GenericPublisherINS_8protocol5param7GetSet_ENS3_9Response_ILi0EEEE9checkInitEv
 7032 0048 051E     		subs	r5, r0, #0
 7033 004a C0F2A380 		blt	.L897
 7034 004e 544E     		ldr	r6, .L899+4
 7035 0050 A56B     		ldr	r5, [r4, #56]
 7036 0052 0296     		str	r6, [sp, #8]
 7037 0054 CDF80C80 		str	r8, [sp, #12]
 7038 0058 75BB     		cbnz	r5, .L886
 7039 005a FFF7FEFF 		bl	_ZN6uavcan22GlobalDataTypeRegistry8instanceEv
 7040 005e FFF7FEFF 		bl	_ZN6uavcan22GlobalDataTypeRegistry6freezeEv
 7041 0062 FFF7FEFF 		bl	_ZN6uavcan22GlobalDataTypeRegistry8instanceEv
 7042 0066 2946     		mov	r1, r5
 7043 0068 4E4A     		ldr	r2, .L899+8
 7044 006a FFF7FEFF 		bl	_ZNK6uavcan22GlobalDataTypeRegistry4findENS_12DataTypeKindEPKc
 7045 006e 8046     		mov	r8, r0
 7046 0070 E0B1     		cbz	r0, .L893
 7047 0072 6068     		ldr	r0, [r4, #4]
 7048 0074 0368     		ldr	r3, [r0]
 7049 0076 9B68     		ldr	r3, [r3, #8]
 7050 0078 9847     		blx	r3
 7051 007a A36B     		ldr	r3, [r4, #56]
 7052 007c 8146     		mov	r9, r0
 7053 007e 13B1     		cbz	r3, .L887
 7054              	.L890:
 7055 0080 4948     		ldr	r0, .L899+12
 7056 0082 FFF7FEFF 		bl	_ZN6uavcan16handleFatalErrorEPKc
 7057              	.L887:
 7058 0086 6068     		ldr	r0, [r4, #4]
 7059 0088 FFF7FEFF 		bl	_ZN6uavcan5INode13getDispatcherEv
 7060 008c 04F10C05 		add	r5, r4, #12
 7061 0090 00F1B001 		add	r1, r0, #176
 7062 0094 E023     		movs	r3, #224
 7063 0096 CDF80090 		str	r9, [sp]
 7064 009a 2846     		mov	r0, r5
ARM GAS  /tmp/ccFEREDd.s 			page 125


 7065 009c 4246     		mov	r2, r8
 7066 009e FFF7FEFF 		bl	_ZN6uavcan16TransferListenerC2ERNS_19TransferPerfCounterERKNS_18DataTypeDescriptorEtRNS_14IPool
 7067 00a2 424B     		ldr	r3, .L899+16
 7068 00a4 6463     		str	r4, [r4, #52]
 7069 00a6 E360     		str	r3, [r4, #12]
 7070 00a8 A563     		str	r5, [r4, #56]
 7071 00aa 05E0     		b	.L886
 7072              	.L893:
 7073 00ac 6FF00405 		mvn	r5, #4
 7074 00b0 70E0     		b	.L897
 7075              	.L891:
 7076 00b2 6FF00105 		mvn	r5, #1
 7077 00b6 6DE0     		b	.L897
 7078              	.L886:
 7079 00b8 02AB     		add	r3, sp, #8
 7080 00ba 3846     		mov	r0, r7
 7081 00bc 0CCB     		ldmia	r3, {r2, r3}
 7082 00be A16B     		ldr	r1, [r4, #56]
 7083 00c0 FFF7FEFF 		bl	_ZN6uavcan21GenericSubscriberBase12genericStartEPNS_16TransferListenerEMNS_10DispatcherEFbS2_E
 7084 00c4 051E     		subs	r5, r0, #0
 7085 00c6 65DB     		blt	.L897
 7086 00c8 394B     		ldr	r3, .L899+20
 7087 00ca 04F17C08 		add	r8, r4, #124
 7088 00ce 4046     		mov	r0, r8
 7089 00d0 4FF00009 		mov	r9, #0
 7090 00d4 D4F8B010 		ldr	r1, [r4, #176]
 7091 00d8 09AD     		add	r5, sp, #36
 7092 00da 0994     		str	r4, [sp, #36]
 7093 00dc 0A93     		str	r3, [sp, #40]
 7094 00de CDF82C90 		str	r9, [sp, #44]
 7095 00e2 FFF7FEFF 		bl	_ZN6uavcan21GenericSubscriberBase4stopEPNS_16TransferListenerE
 7096 00e6 2846     		mov	r0, r5
 7097 00e8 04F1780A 		add	r10, r4, #120
 7098 00ec FFF7FEFF 		bl	_ZNK6uavcan12MethodBinderIPNS_11ParamServerEMS1_FvRKNS_8protocol5param14ExecuteOpcode_8Request_
 7099 00f0 0028     		cmp	r0, #0
 7100 00f2 3CD0     		beq	.L894
 7101 00f4 95E80700 		ldmia	r5, {r0, r1, r2}
 7102 00f8 04F1E003 		add	r3, r4, #224
 7103 00fc 83E80700 		stmia	r3, {r0, r1, r2}
 7104 0100 04F1B800 		add	r0, r4, #184
 7105 0104 FFF7FEFF 		bl	_ZN6uavcan16GenericPublisherINS_8protocol5param14ExecuteOpcode_ENS3_9Response_ILi0EEEE9checkIni
 7106 0108 051E     		subs	r5, r0, #0
 7107 010a 35DB     		blt	.L896
 7108 010c D4F8B050 		ldr	r5, [r4, #176]
 7109 0110 0496     		str	r6, [sp, #16]
 7110 0112 CDF81490 		str	r9, [sp, #20]
 7111 0116 A5BB     		cbnz	r5, .L889
 7112 0118 FFF7FEFF 		bl	_ZN6uavcan22GlobalDataTypeRegistry8instanceEv
 7113 011c FFF7FEFF 		bl	_ZN6uavcan22GlobalDataTypeRegistry6freezeEv
 7114 0120 FFF7FEFF 		bl	_ZN6uavcan22GlobalDataTypeRegistry8instanceEv
 7115 0124 2946     		mov	r1, r5
 7116 0126 234A     		ldr	r2, .L899+24
 7117 0128 FFF7FEFF 		bl	_ZNK6uavcan22GlobalDataTypeRegistry4findENS_12DataTypeKindEPKc
 7118 012c 0646     		mov	r6, r0
 7119 012e 08B3     		cbz	r0, .L895
 7120 0130 E06F     		ldr	r0, [r4, #124]
 7121 0132 0368     		ldr	r3, [r0]
ARM GAS  /tmp/ccFEREDd.s 			page 126


 7122 0134 9B68     		ldr	r3, [r3, #8]
 7123 0136 9847     		blx	r3
 7124 0138 D4F8B030 		ldr	r3, [r4, #176]
 7125 013c 8146     		mov	r9, r0
 7126 013e 002B     		cmp	r3, #0
 7127 0140 9ED1     		bne	.L890
 7128 0142 E06F     		ldr	r0, [r4, #124]
 7129 0144 FFF7FEFF 		bl	_ZN6uavcan5INode13getDispatcherEv
 7130 0148 04F18405 		add	r5, r4, #132
 7131 014c 00F1B001 		add	r1, r0, #176
 7132 0150 0723     		movs	r3, #7
 7133 0152 CDF80090 		str	r9, [sp]
 7134 0156 2846     		mov	r0, r5
 7135 0158 3246     		mov	r2, r6
 7136 015a FFF7FEFF 		bl	_ZN6uavcan16TransferListenerC2ERNS_19TransferPerfCounterERKNS_18DataTypeDescriptorEtRNS_14IPool
 7137 015e 164B     		ldr	r3, .L899+28
 7138 0160 C4F8ACA0 		str	r10, [r4, #172]
 7139 0164 C4F88430 		str	r3, [r4, #132]
 7140 0168 C4F8B050 		str	r5, [r4, #176]
 7141 016c 09E0     		b	.L889
 7142              	.L894:
 7143 016e 6FF00105 		mvn	r5, #1
 7144 0172 01E0     		b	.L896
 7145              	.L895:
 7146 0174 6FF00405 		mvn	r5, #4
 7147              	.L896:
 7148 0178 3846     		mov	r0, r7
 7149 017a A16B     		ldr	r1, [r4, #56]
 7150 017c FFF7FEFF 		bl	_ZN6uavcan21GenericSubscriberBase4stopEPNS_16TransferListenerE
 7151 0180 08E0     		b	.L897
 7152              	.L889:
 7153 0182 04AB     		add	r3, sp, #16
 7154 0184 4046     		mov	r0, r8
 7155 0186 0CCB     		ldmia	r3, {r2, r3}
 7156 0188 D4F8B010 		ldr	r1, [r4, #176]
 7157 018c FFF7FEFF 		bl	_ZN6uavcan21GenericSubscriberBase12genericStartEPNS_16TransferListenerEMNS_10DispatcherEFbS2_E
 7158 0190 051E     		subs	r5, r0, #0
 7159 0192 F1DB     		blt	.L896
 7160              	.L897:
 7161 0194 2846     		mov	r0, r5
 7162 0196 0CB0     		add	sp, sp, #48
 7163              		@ sp needed
 7164 0198 BDE8F087 		pop	{r4, r5, r6, r7, r8, r9, r10, pc}
 7165              	.L900:
 7166              		.align	2
 7167              	.L899:
 7168 019c 00000000 		.word	_ZN6uavcan11ParamServer12handleGetSetERKNS_8protocol5param7GetSet_8Request_ILi0EEERNS3_9Resp
 7169 01a0 00000000 		.word	_ZN6uavcan10Dispatcher30registerServiceRequestListenerEPNS_16TransferListenerE
 7170 01a4 E4010000 		.word	.LC20
 7171 01a8 1A000000 		.word	.LC2
 7172 01ac 08000000 		.word	_ZTVN6uavcan17GenericSubscriberINS_8protocol5param7GetSet_ENS3_8Request_ILi0EEENS_16Transfer
 7173 01b0 00000000 		.word	_ZN6uavcan11ParamServer19handleExecuteOpcodeERKNS_8protocol5param14ExecuteOpcode_8Request_IL
 7174 01b4 01020000 		.word	.LC21
 7175 01b8 08000000 		.word	_ZTVN6uavcan17GenericSubscriberINS_8protocol5param14ExecuteOpcode_ENS3_8Request_ILi0EEENS_16
 7176              		.size	_ZN6uavcan11ParamServer5startEPNS_13IParamManagerE, .-_ZN6uavcan11ParamServer5startEPNS_13IP
 7177              		.section	.text._ZN6uavcan11ScalarCodec6encodeILj3EhEEiT0_,"axG",%progbits,_ZN6uavcan11ScalarCodec6
 7178              		.align	1
ARM GAS  /tmp/ccFEREDd.s 			page 127


 7179              		.weak	_ZN6uavcan11ScalarCodec6encodeILj3EhEEiT0_
 7180              		.thumb
 7181              		.thumb_func
 7182              		.type	_ZN6uavcan11ScalarCodec6encodeILj3EhEEiT0_, %function
 7183              	_ZN6uavcan11ScalarCodec6encodeILj3EhEEiT0_:
 7184              		@ args = 0, pretend = 0, frame = 8
 7185              		@ frame_needed = 0, uses_anonymous_args = 0
 7186 0000 07B5     		push	{r0, r1, r2, lr}
 7187 0002 01F00703 		and	r3, r1, #7
 7188 0006 02A9     		add	r1, sp, #8
 7189 0008 01F8013D 		strb	r3, [r1, #-1]!
 7190 000c 0322     		movs	r2, #3
 7191 000e FFF7FEFF 		bl	_ZN6uavcan11ScalarCodec15encodeBytesImplEPhj
 7192 0012 03B0     		add	sp, sp, #12
 7193              		@ sp needed
 7194 0014 5DF804FB 		ldr	pc, [sp], #4
 7195              		.size	_ZN6uavcan11ScalarCodec6encodeILj3EhEEiT0_, .-_ZN6uavcan11ScalarCodec6encodeILj3EhEEiT0_
 7196              		.section	.text._ZN6uavcan11ScalarCodec6encodeILj5EhEEiT0_,"axG",%progbits,_ZN6uavcan11ScalarCodec6
 7197              		.align	1
 7198              		.weak	_ZN6uavcan11ScalarCodec6encodeILj5EhEEiT0_
 7199              		.thumb
 7200              		.thumb_func
 7201              		.type	_ZN6uavcan11ScalarCodec6encodeILj5EhEEiT0_, %function
 7202              	_ZN6uavcan11ScalarCodec6encodeILj5EhEEiT0_:
 7203              		@ args = 0, pretend = 0, frame = 8
 7204              		@ frame_needed = 0, uses_anonymous_args = 0
 7205 0000 07B5     		push	{r0, r1, r2, lr}
 7206 0002 01F01F03 		and	r3, r1, #31
 7207 0006 02A9     		add	r1, sp, #8
 7208 0008 01F8013D 		strb	r3, [r1, #-1]!
 7209 000c 0522     		movs	r2, #5
 7210 000e FFF7FEFF 		bl	_ZN6uavcan11ScalarCodec15encodeBytesImplEPhj
 7211 0012 03B0     		add	sp, sp, #12
 7212              		@ sp needed
 7213 0014 5DF804FB 		ldr	pc, [sp], #4
 7214              		.size	_ZN6uavcan11ScalarCodec6encodeILj5EhEEiT0_, .-_ZN6uavcan11ScalarCodec6encodeILj5EhEEiT0_
 7215              		.section	.text._ZN6uavcan16GenericPublisherINS_8protocol5debug11LogMessage_ILi0EEES4_E14genericPub
 7216              		.align	1
 7217              		.weak	_ZN6uavcan16GenericPublisherINS_8protocol5debug11LogMessage_ILi0EEES4_E14genericPublishERKS4
 7218              		.thumb
 7219              		.thumb_func
 7220              		.type	_ZN6uavcan16GenericPublisherINS_8protocol5debug11LogMessage_ILi0EEES4_E14genericPublishERKS4
 7221              	_ZN6uavcan16GenericPublisherINS_8protocol5debug11LogMessage_ILi0EEES4_E14genericPublishERKS4_NS_12T
 7222              		@ args = 8, pretend = 0, frame = 160
 7223              		@ frame_needed = 0, uses_anonymous_args = 0
 7224 0000 2DE9F04F 		push	{r4, r5, r6, r7, r8, r9, r10, fp, lr}
 7225 0004 ABB0     		sub	sp, sp, #172
 7226 0006 8046     		mov	r8, r0
 7227 0008 0C46     		mov	r4, r1
 7228 000a 9146     		mov	r9, r2
 7229 000c 9A46     		mov	r10, r3
 7230 000e FFF7FEFF 		bl	_ZN6uavcan16GenericPublisherINS_8protocol5debug11LogMessage_ILi0EEES4_E9checkInitEv
 7231 0012 0028     		cmp	r0, #0
 7232 0014 5BDB     		blt	.L923
 7233 0016 2178     		ldrb	r1, [r4]	@ zero_extendqisi2
 7234 0018 2AAD     		add	r5, sp, #168
 7235 001a 04AF     		add	r7, sp, #16
ARM GAS  /tmp/ccFEREDd.s 			page 128


 7236 001c 0729     		cmp	r1, #7
 7237 001e 0BAB     		add	r3, sp, #44
 7238 0020 2C4A     		ldr	r2, .L925
 7239 0022 45F89C7D 		str	r7, [r5, #-156]!
 7240 0026 4FF00006 		mov	r6, #0
 7241 002a 0993     		str	r3, [sp, #36]
 7242 002c 28BF     		it	cs
 7243 002e 0721     		movcs	r1, #7
 7244 0030 7B23     		movs	r3, #123
 7245 0032 0DF1200B 		add	fp, sp, #32
 7246 0036 2846     		mov	r0, r5
 7247 0038 ADF82830 		strh	r3, [sp, #40]	@ movhi
 7248 003c ADF82A60 		strh	r6, [sp, #42]	@ movhi
 7249 0040 0892     		str	r2, [sp, #32]
 7250 0042 CDF810B0 		str	fp, [sp, #16]
 7251 0046 0596     		str	r6, [sp, #20]
 7252 0048 8DF81860 		strb	r6, [sp, #24]
 7253 004c FFF7FEFF 		bl	_ZN6uavcan11ScalarCodec6encodeILj3EhEEiT0_
 7254 0050 B042     		cmp	r0, r6
 7255 0052 3ADD     		ble	.L912
 7256 0054 6178     		ldrb	r1, [r4, #1]	@ zero_extendqisi2
 7257 0056 2846     		mov	r0, r5
 7258 0058 1F29     		cmp	r1, #31
 7259 005a 28BF     		it	cs
 7260 005c 1F21     		movcs	r1, #31
 7261 005e FFF7FEFF 		bl	_ZN6uavcan11ScalarCodec6encodeILj5EhEEiT0_
 7262 0062 B042     		cmp	r0, r6
 7263 0064 31DD     		ble	.L912
 7264 0066 6278     		ldrb	r2, [r4, #1]	@ zero_extendqisi2
 7265 0068 6AB1     		cbz	r2, .L907
 7266              	.L908:
 7267 006a 6178     		ldrb	r1, [r4, #1]	@ zero_extendqisi2
 7268 006c F3B2     		uxtb	r3, r6
 7269 006e 9942     		cmp	r1, r3
 7270 0070 09D9     		bls	.L907
 7271 0072 2344     		add	r3, r3, r4
 7272 0074 9878     		ldrb	r0, [r3, #2]	@ zero_extendqisi2
 7273 0076 2946     		mov	r1, r5
 7274 0078 FFF7FEFF 		bl	_ZN6uavcan11IntegerSpecILj8ELNS_10SignednessE0ELNS_8CastModeE0EE6encodeEhRNS_11ScalarCodecENS_2
 7275 007c 0028     		cmp	r0, #0
 7276 007e 06F10106 		add	r6, r6, #1
 7277 0082 F2DC     		bgt	.L908
 7278 0084 21E0     		b	.L912
 7279              	.L907:
 7280 0086 94F82230 		ldrb	r3, [r4, #34]	@ zero_extendqisi2
 7281 008a 73B9     		cbnz	r3, .L924
 7282              	.L913:
 7283 008c 359B     		ldr	r3, [sp, #212]
 7284 008e 4A46     		mov	r2, r9
 7285 0090 93E80300 		ldmia	r3, {r0, r1}
 7286 0094 349B     		ldr	r3, [sp, #208]
 7287 0096 87E80300 		stmia	r7, {r0, r1}
 7288 009a 8DE88800 		stmia	sp, {r3, r7}
 7289 009e 4046     		mov	r0, r8
 7290 00a0 5946     		mov	r1, fp
 7291 00a2 5346     		mov	r3, r10
 7292 00a4 FFF7FEFF 		bl	_ZN6uavcan20GenericPublisherBase14genericPublishERKNS_24StaticTransferBufferImplENS_12TransferT
ARM GAS  /tmp/ccFEREDd.s 			page 129


 7293 00a8 11E0     		b	.L923
 7294              	.L924:
 7295 00aa 0026     		movs	r6, #0
 7296              	.L914:
 7297 00ac 94F82210 		ldrb	r1, [r4, #34]	@ zero_extendqisi2
 7298 00b0 F3B2     		uxtb	r3, r6
 7299 00b2 9942     		cmp	r1, r3
 7300 00b4 EAD9     		bls	.L913
 7301 00b6 2344     		add	r3, r3, r4
 7302 00b8 93F82300 		ldrb	r0, [r3, #35]	@ zero_extendqisi2
 7303 00bc 2946     		mov	r1, r5
 7304 00be FFF7FEFF 		bl	_ZN6uavcan11IntegerSpecILj8ELNS_10SignednessE0ELNS_8CastModeE0EE6encodeEhRNS_11ScalarCodecENS_2
 7305 00c2 0028     		cmp	r0, #0
 7306 00c4 06F10106 		add	r6, r6, #1
 7307 00c8 F0DC     		bgt	.L914
 7308              	.L912:
 7309 00ca 6FF00500 		mvn	r0, #5
 7310              	.L923:
 7311 00ce 2BB0     		add	sp, sp, #172
 7312              		@ sp needed
 7313 00d0 BDE8F08F 		pop	{r4, r5, r6, r7, r8, r9, r10, fp, pc}
 7314              	.L926:
 7315              		.align	2
 7316              	.L925:
 7317 00d4 08000000 		.word	_ZTVN6uavcan20StaticTransferBufferILt123EEE+8
 7318              		.size	_ZN6uavcan16GenericPublisherINS_8protocol5debug11LogMessage_ILi0EEES4_E14genericPublishERKS4
 7319              		.section	.text._ZN6uavcan4NodeILj7168EE23registerInternalFailureEPKc,"axG",%progbits,_ZN6uavcan4No
 7320              		.align	1
 7321              		.weak	_ZN6uavcan4NodeILj7168EE23registerInternalFailureEPKc
 7322              		.thumb
 7323              		.thumb_func
 7324              		.type	_ZN6uavcan4NodeILj7168EE23registerInternalFailureEPKc, %function
 7325              	_ZN6uavcan4NodeILj7168EE23registerInternalFailureEPKc:
 7326              		@ args = 0, pretend = 0, frame = 8
 7327              		@ frame_needed = 0, uses_anonymous_args = 0
 7328 0000 2DE9FF41 		push	{r0, r1, r2, r3, r4, r5, r6, r7, r8, lr}
 7329 0004 0446     		mov	r4, r0
 7330 0006 00F50653 		add	r3, r0, #8576
 7331 000a 8846     		mov	r8, r1
 7332 000c D3E90401 		ldrd	r0, [r3, #16]
 7333 0010 0130     		adds	r0, r0, #1
 7334 0012 41F10001 		adc	r1, r1, #0
 7335 0016 C3E90401 		strd	r0, [r3, #16]
 7336 001a 04F5FF56 		add	r6, r4, #8160
 7337 001e 0836     		adds	r6, r6, #8
 7338 0020 96F8A630 		ldrb	r3, [r6, #166]	@ zero_extendqisi2
 7339 0024 032B     		cmp	r3, #3
 7340 0026 09D9     		bls	.L928
 7341 0028 42F29003 		movw	r3, #8336
 7342 002c E058     		ldr	r0, [r4, r3]
 7343 002e 0028     		cmp	r0, #0
 7344 0030 7ED0     		beq	.L927
 7345 0032 0368     		ldr	r3, [r0]
 7346 0034 9B68     		ldr	r3, [r3, #8]
 7347 0036 9847     		blx	r3
 7348 0038 0328     		cmp	r0, #3
 7349 003a 79D8     		bhi	.L927
ARM GAS  /tmp/ccFEREDd.s 			page 130


 7350              	.L928:
 7351 003c 0323     		movs	r3, #3
 7352 003e 86F82830 		strb	r3, [r6, #40]
 7353 0042 42F21103 		movw	r3, #8209
 7354 0046 0022     		movs	r2, #0
 7355 0048 3B4D     		ldr	r5, .L956
 7356 004a E254     		strb	r2, [r4, r3]
 7357              	.L948:
 7358 004c 15F8017F 		ldrb	r7, [r5, #1]!	@ zero_extendqisi2
 7359 0050 97B1     		cbz	r7, .L953
 7360 0052 04F50050 		add	r0, r4, #8192
 7361 0056 1130     		adds	r0, r0, #17
 7362 0058 0278     		ldrb	r2, [r0]	@ zero_extendqisi2
 7363 005a 1E2A     		cmp	r2, #30
 7364 005c 9CBF     		itt	ls
 7365 005e 0132     		addls	r2, r2, #1
 7366 0060 0270     		strbls	r2, [r0]
 7367 0062 0378     		ldrb	r3, [r0]	@ zero_extendqisi2
 7368 0064 591E     		subs	r1, r3, #1
 7369 0066 CAB2     		uxtb	r2, r1
 7370 0068 9A42     		cmp	r2, r3
 7371 006a 02D3     		bcc	.L933
 7372 006c 002B     		cmp	r3, #0
 7373 006e 08BF     		it	eq
 7374 0070 0022     		moveq	r2, #0
 7375              	.L933:
 7376 0072 0244     		add	r2, r2, r0
 7377 0074 5770     		strb	r7, [r2, #1]
 7378 0076 E9E7     		b	.L948
 7379              	.L953:
 7380 0078 42F23203 		movw	r3, #8242
 7381 007c 04F50055 		add	r5, r4, #8192
 7382 0080 3235     		adds	r5, r5, #50
 7383 0082 E754     		strb	r7, [r4, r3]
 7384 0084 681C     		adds	r0, r5, #1
 7385 0086 5B21     		movs	r1, #91
 7386 0088 2C4A     		ldr	r2, .L956+4
 7387 008a 4346     		mov	r3, r8
 7388 008c FFF7FEFF 		bl	_ZN6uavcan8snprintfEPcjPKcz
 7389              	.L935:
 7390 0090 0346     		mov	r3, r0
 7391 0092 5A28     		cmp	r0, #90
 7392 0094 A8BF     		it	ge
 7393 0096 5A23     		movge	r3, #90
 7394 0098 9F42     		cmp	r7, r3
 7395 009a 06DA     		bge	.L954
 7396 009c 2B78     		ldrb	r3, [r5]	@ zero_extendqisi2
 7397 009e 0137     		adds	r7, r7, #1
 7398 00a0 592B     		cmp	r3, #89
 7399 00a2 9CBF     		itt	ls
 7400 00a4 0133     		addls	r3, r3, #1
 7401 00a6 2B70     		strbls	r3, [r5]
 7402 00a8 F2E7     		b	.L935
 7403              	.L954:
 7404 00aa 0028     		cmp	r0, #0
 7405 00ac 0CDB     		blt	.L938
 7406              	.L945:
ARM GAS  /tmp/ccFEREDd.s 			page 131


 7407 00ae 42F21003 		movw	r3, #8208
 7408 00b2 E75C     		ldrb	r7, [r4, r3]	@ zero_extendqisi2
 7409 00b4 42F29003 		movw	r3, #8336
 7410 00b8 E058     		ldr	r0, [r4, r3]
 7411 00ba 06F12805 		add	r5, r6, #40
 7412 00be C0B1     		cbz	r0, .L955
 7413 00c0 0368     		ldr	r3, [r0]
 7414 00c2 9B68     		ldr	r3, [r3, #8]
 7415 00c4 9847     		blx	r3
 7416 00c6 15E0     		b	.L939
 7417              	.L938:
 7418 00c8 1D48     		ldr	r0, .L956+8
 7419              	.L941:
 7420 00ca 10F8011F 		ldrb	r1, [r0, #1]!	@ zero_extendqisi2
 7421 00ce 0029     		cmp	r1, #0
 7422 00d0 EDD0     		beq	.L945
 7423 00d2 2B78     		ldrb	r3, [r5]	@ zero_extendqisi2
 7424 00d4 592B     		cmp	r3, #89
 7425 00d6 9CBF     		itt	ls
 7426 00d8 0133     		addls	r3, r3, #1
 7427 00da 2B70     		strbls	r3, [r5]
 7428 00dc 2A78     		ldrb	r2, [r5]	@ zero_extendqisi2
 7429 00de 531E     		subs	r3, r2, #1
 7430 00e0 DBB2     		uxtb	r3, r3
 7431 00e2 9342     		cmp	r3, r2
 7432 00e4 02D3     		bcc	.L943
 7433 00e6 002A     		cmp	r2, #0
 7434 00e8 08BF     		it	eq
 7435 00ea 0023     		moveq	r3, #0
 7436              	.L943:
 7437 00ec 2B44     		add	r3, r3, r5
 7438 00ee 5970     		strb	r1, [r3, #1]
 7439 00f0 EBE7     		b	.L941
 7440              	.L955:
 7441 00f2 0720     		movs	r0, #7
 7442              	.L939:
 7443 00f4 8742     		cmp	r7, r0
 7444 00f6 05D3     		bcc	.L946
 7445 00f8 D6F8A800 		ldr	r0, [r6, #168]
 7446 00fc 2946     		mov	r1, r5
 7447 00fe 0368     		ldr	r3, [r0]
 7448 0100 DB68     		ldr	r3, [r3, #12]
 7449 0102 9847     		blx	r3
 7450              	.L946:
 7451 0104 42F21003 		movw	r3, #8208
 7452 0108 E25C     		ldrb	r2, [r4, r3]	@ zero_extendqisi2
 7453 010a 96F8A630 		ldrb	r3, [r6, #166]	@ zero_extendqisi2
 7454 010e 9A42     		cmp	r2, r3
 7455 0110 0ED3     		bcc	.L927
 7456 0112 04AB     		add	r3, sp, #16
 7457 0114 0020     		movs	r0, #0
 7458 0116 0021     		movs	r1, #0
 7459 0118 63E90201 		strd	r0, [r3, #-8]!
 7460 011c 0022     		movs	r2, #0
 7461 011e 8DE80C00 		stmia	sp, {r2, r3}
 7462 0122 084B     		ldr	r3, .L956+12
 7463 0124 3046     		mov	r0, r6
ARM GAS  /tmp/ccFEREDd.s 			page 132


 7464 0126 2946     		mov	r1, r5
 7465 0128 0222     		movs	r2, #2
 7466 012a 1B78     		ldrb	r3, [r3]	@ zero_extendqisi2
 7467 012c FFF7FEFF 		bl	_ZN6uavcan16GenericPublisherINS_8protocol5debug11LogMessage_ILi0EEES4_E14genericPublishERKS4_NS
 7468              	.L927:
 7469 0130 04B0     		add	sp, sp, #16
 7470              		@ sp needed
 7471 0132 BDE8F081 		pop	{r4, r5, r6, r7, r8, pc}
 7472              	.L957:
 7473 0136 00BF     		.align	2
 7474              	.L956:
 7475 0138 FFFFFFFF 		.word	.LC25-1
 7476 013c 3C020000 		.word	.LC24
 7477 0140 FFFFFFFF 		.word	.LC24-1
 7478 0144 00000000 		.word	_ZN6uavcan6NodeID9BroadcastE
 7479              		.size	_ZN6uavcan4NodeILj7168EE23registerInternalFailureEPKc, .-_ZN6uavcan4NodeILj7168EE23registerI
 7480              		.section	.text._ZN6uavcan19DynamicNodeIDClientD2Ev,"axG",%progbits,_ZN6uavcan19DynamicNodeIDClient
 7481              		.align	1
 7482              		.weak	_ZN6uavcan19DynamicNodeIDClientD2Ev
 7483              		.thumb
 7484              		.thumb_func
 7485              		.type	_ZN6uavcan19DynamicNodeIDClientD2Ev, %function
 7486              	_ZN6uavcan19DynamicNodeIDClientD2Ev:
 7487              		@ args = 0, pretend = 0, frame = 0
 7488              		@ frame_needed = 0, uses_anonymous_args = 0
 7489 0000 10B5     		push	{r4, lr}
 7490 0002 0446     		mov	r4, r0
 7491 0004 054B     		ldr	r3, .L959
 7492 0006 40F8483B 		str	r3, [r0], #72
 7493 000a FFF7FEFF 		bl	_ZN6uavcan10SubscriberINS_8protocol15dynamic_node_id11Allocation_ILi0EEENS_12MethodBinderIPNS_1
 7494 000e 044B     		ldr	r3, .L959+4
 7495 0010 2046     		mov	r0, r4
 7496 0012 2360     		str	r3, [r4]
 7497 0014 FFF7FEFF 		bl	_ZN6uavcan15DeadlineHandler4stopEv
 7498 0018 2046     		mov	r0, r4
 7499 001a 10BD     		pop	{r4, pc}
 7500              	.L960:
 7501              		.align	2
 7502              	.L959:
 7503 001c 08000000 		.word	_ZTVN6uavcan19DynamicNodeIDClientE+8
 7504 0020 08000000 		.word	_ZTVN6uavcan15DeadlineHandlerE+8
 7505              		.size	_ZN6uavcan19DynamicNodeIDClientD2Ev, .-_ZN6uavcan19DynamicNodeIDClientD2Ev
 7506              		.weak	_ZN6uavcan19DynamicNodeIDClientD1Ev
 7507              		.thumb_set _ZN6uavcan19DynamicNodeIDClientD1Ev,_ZN6uavcan19DynamicNodeIDClientD2Ev
 7508              		.global	__aeabi_ui2f
 7509              		.global	__aeabi_f2d
 7510              		.section	.text._ZNK4node12_GLOBAL__N_15._3454initEv,"ax",%progbits
 7511              		.align	1
 7512              		.thumb
 7513              		.thumb_func
 7514              		.type	_ZNK4node12_GLOBAL__N_15._3454initEv, %function
 7515              	_ZNK4node12_GLOBAL__N_15._3454initEv:
 7516              		@ args = 0, pretend = 0, frame = 200
 7517              		@ frame_needed = 0, uses_anonymous_args = 0
 7518 0000 2DE9F04F 		push	{r4, r5, r6, r7, r8, r9, r10, fp, lr}
 7519 0004 B5B0     		sub	sp, sp, #212
 7520 0006 0546     		mov	r5, r0
ARM GAS  /tmp/ccFEREDd.s 			page 133


 7521 0008 06A8     		add	r0, sp, #24
 7522 000a FFF7FEFF 		bl	_ZN4node4LockC2Ev
 7523 000e FFF7FEFF 		bl	_ZN4node12_GLOBAL__N_113configureNodeEv
 7524 0012 0AA8     		add	r0, sp, #40
 7525 0014 FFF7FEFF 		bl	_ZN12uavcan_stm325clock16getUtcSyncParamsEv
 7526 0018 A34B     		ldr	r3, .L1002
 7527 001a A44A     		ldr	r2, .L1002+4
 7528 001c 0A93     		str	r3, [sp, #40]	@ float
 7529 001e A44B     		ldr	r3, .L1002+8
 7530 0020 0B93     		str	r3, [sp, #44]	@ float
 7531 0022 A44B     		ldr	r3, .L1002+12
 7532 0024 0C93     		str	r3, [sp, #48]	@ float
 7533 0026 A44B     		ldr	r3, .L1002+16
 7534 0028 0D93     		str	r3, [sp, #52]	@ float
 7535 002a 0023     		movs	r3, #0
 7536 002c CDE91223 		strd	r2, [sp, #72]
 7537 0030 12AA     		add	r2, sp, #72
 7538 0032 10AB     		add	r3, sp, #64
 7539 0034 92E80300 		ldmia	r2, {r0, r1}
 7540 0038 83E80300 		stmia	r3, {r0, r1}
 7541 003c 0AA8     		add	r0, sp, #40
 7542 003e FFF7FEFF 		bl	_ZN12uavcan_stm325clock16setUtcSyncParamsERKNS0_13UtcSyncParamsE
 7543 0042 FFF7FEFF 		bl	_ZN4node7getNodeEv
 7544 0046 9D4B     		ldr	r3, .L1002+20
 7545 0048 0446     		mov	r4, r0
 7546 004a 1868     		ldr	r0, [r3]
 7547 004c FFF7FEFF 		bl	_ZNK13zubax_chibios6config9_internal5ParamIjE3getEv.isra.54
 7548 0050 0146     		mov	r1, r0
 7549 0052 2046     		mov	r0, r4
 7550 0054 FFF7FEFF 		bl	_ZN6uavcan4NodeILj7168EE5startENS_16TransferPriorityE
 7551 0058 0028     		cmp	r0, #0
 7552 005a 03DA     		bge	.L962
 7553 005c A0F57A74 		sub	r4, r0, #1000
 7554 0060 06A8     		add	r0, sp, #24
 7555 0062 4EE2     		b	.L999
 7556              	.L962:
 7557 0064 FFF7FEFF 		bl	_ZN4node7getNodeEv
 7558 0068 42F21013 		movw	r3, #8464
 7559 006c 944A     		ldr	r2, .L1002+24
 7560 006e C250     		str	r2, [r0, r3]
 7561 0070 FFF7FEFF 		bl	_ZN4node7getNodeEv
 7562 0074 934B     		ldr	r3, .L1002+28
 7563 0076 0446     		mov	r4, r0
 7564 0078 1868     		ldr	r0, [r3]
 7565 007a FFF7FEFF 		bl	_ZNK13zubax_chibios6config9_internal5ParamIjE3getEv.isra.54
 7566 007e 0023     		movs	r3, #0
 7567 0080 0A90     		str	r0, [sp, #40]
 7568 0082 0AA9     		add	r1, sp, #40
 7569 0084 04F5E950 		add	r0, r4, #7456
 7570 0088 8F4C     		ldr	r4, .L1002+32
 7571 008a 0B93     		str	r3, [sp, #44]
 7572 008c FFF7FEFF 		bl	_ZN6uavcan18NodeStatusProvider26setStatusPublicationPeriodENS_17MonotonicDurationE
 7573 0090 06A8     		add	r0, sp, #24
 7574 0092 FFF7FEFF 		bl	_ZN12uavcan_stm3211MutexLockerD2Ev
 7575 0096 2068     		ldr	r0, [r4]
 7576 0098 FFF7FEFF 		bl	_ZNK13zubax_chibios6config9_internal5ParamIjE3getEv.isra.54
 7577 009c 70B1     		cbz	r0, .L964
ARM GAS  /tmp/ccFEREDd.s 			page 134


 7578              	.L967:
 7579 009e 0AA8     		add	r0, sp, #40
 7580 00a0 FFF7FEFF 		bl	_ZN4node4LockC2Ev
 7581 00a4 FFF7FEFF 		bl	_ZN4node7getNodeEv
 7582 00a8 0546     		mov	r5, r0
 7583 00aa 2068     		ldr	r0, [r4]
 7584 00ac FFF7FEFF 		bl	_ZNK13zubax_chibios6config9_internal5ParamIjE3getEv.isra.54
 7585 00b0 50B1     		cbz	r0, .L1000
 7586 00b2 854B     		ldr	r3, .L1002+32
 7587 00b4 1868     		ldr	r0, [r3]
 7588 00b6 FFF7FEFF 		bl	_ZNK13zubax_chibios6config9_internal5ParamIjE3getEv.isra.54
 7589 00ba 07E0     		b	.L998
 7590              	.L964:
 7591 00bc FFF7FEFF 		bl	_ZN20bootloader_interface18getInheritedNodeIDEv
 7592 00c0 40B2     		sxtb	r0, r0
 7593 00c2 0028     		cmp	r0, #0
 7594 00c4 12DD     		ble	.L996
 7595 00c6 EAE7     		b	.L967
 7596              	.L1000:
 7597 00c8 FFF7FEFF 		bl	_ZN20bootloader_interface18getInheritedNodeIDEv
 7598              	.L998:
 7599 00cc 0146     		mov	r1, r0
 7600 00ce 2846     		mov	r0, r5
 7601 00d0 FFF7FEFF 		bl	_ZN6uavcan5INode9setNodeIDENS_6NodeIDE
 7602 00d4 FFF7FEFF 		bl	_ZN4node7getNodeEv
 7603 00d8 FFF7FEFF 		bl	_ZNK6uavcan5INode9getNodeIDEv
 7604 00dc C1B2     		uxtb	r1, r0
 7605 00de 7B48     		ldr	r0, .L1002+36
 7606 00e0 FFF7FEFF 		bl	lowsyslog
 7607 00e4 0AA8     		add	r0, sp, #40
 7608 00e6 FFF7FEFF 		bl	_ZN12uavcan_stm3211MutexLockerD2Ev
 7609 00ea 46E0     		b	.L970
 7610              	.L996:
 7611 00ec FFF7FEFF 		bl	_ZN4node7getNodeEv
 7612 00f0 0146     		mov	r1, r0
 7613 00f2 0AA8     		add	r0, sp, #40
 7614 00f4 FFF7FEFF 		bl	_ZN6uavcan19DynamicNodeIDClientC1ERNS_5INodeE
 7615 00f8 06A8     		add	r0, sp, #24
 7616 00fa FFF7FEFF 		bl	_ZN4node4LockC2Ev
 7617 00fe FFF7FEFF 		bl	_ZN4node7getNodeEv
 7618 0102 734B     		ldr	r3, .L1002+40
 7619 0104 00F5F051 		add	r1, r0, #7680
 7620 0108 1A78     		ldrb	r2, [r3]	@ zero_extendqisi2
 7621 010a 724B     		ldr	r3, .L1002+44
 7622 010c 0A31     		adds	r1, r1, #10
 7623 010e 0AA8     		add	r0, sp, #40
 7624 0110 1B78     		ldrb	r3, [r3]	@ zero_extendqisi2
 7625 0112 FFF7FEFF 		bl	_ZN6uavcan19DynamicNodeIDClient5startERKNS_5ArrayINS_11IntegerSpecILj8ELNS_10SignednessE0ELNS_8
 7626 0116 0028     		cmp	r0, #0
 7627 0118 08DA     		bge	.L971
 7628 011a A0F5FA64 		sub	r4, r0, #2000
 7629 011e 06A8     		add	r0, sp, #24
 7630 0120 FFF7FEFF 		bl	_ZN12uavcan_stm3211MutexLockerD2Ev
 7631 0124 0AA8     		add	r0, sp, #40
 7632 0126 FFF7FEFF 		bl	_ZN6uavcan19DynamicNodeIDClientD1Ev
 7633 012a ECE1     		b	.L994
 7634              	.L971:
ARM GAS  /tmp/ccFEREDd.s 			page 135


 7635 012c 06A8     		add	r0, sp, #24
 7636 012e FFF7FEFF 		bl	_ZN12uavcan_stm3211MutexLockerD2Ev
 7637 0132 6948     		ldr	r0, .L1002+48
 7638 0134 FFF7FEFF 		bl	lowsyslog
 7639              	.L972:
 7640 0138 9DF8CA10 		ldrb	r1, [sp, #202]	@ zero_extendqisi2
 7641 013c 4BB2     		sxtb	r3, r1
 7642 013e 002B     		cmp	r3, #0
 7643 0140 0DDC     		bgt	.L1001
 7644 0142 4FF47A70 		mov	r0, #1000
 7645 0146 FFF7FEFF 		bl	usleep
 7646 014a 06A8     		add	r0, sp, #24
 7647 014c FFF7FEFF 		bl	_ZN4node4LockC2Ev
 7648 0150 2846     		mov	r0, r5
 7649 0152 FFF7FEFF 		bl	_ZNK4node12_GLOBAL__N_15._3458spinOnceEv
 7650 0156 06A8     		add	r0, sp, #24
 7651 0158 FFF7FEFF 		bl	_ZN12uavcan_stm3211MutexLockerD2Ev
 7652 015c ECE7     		b	.L972
 7653              	.L1001:
 7654 015e 9DF8CB20 		ldrb	r2, [sp, #203]	@ zero_extendqisi2
 7655 0162 5E48     		ldr	r0, .L1002+52
 7656 0164 FFF7FEFF 		bl	lowsyslog
 7657 0168 FFF7FEFF 		bl	_ZN4node7getNodeEv
 7658 016c 9DF8CA10 		ldrb	r1, [sp, #202]	@ zero_extendqisi2
 7659 0170 FFF7FEFF 		bl	_ZN6uavcan5INode9setNodeIDENS_6NodeIDE
 7660 0174 0AA8     		add	r0, sp, #40
 7661 0176 FFF7FEFF 		bl	_ZN6uavcan19DynamicNodeIDClientD1Ev
 7662              	.L970:
 7663 017a DFF89CB1 		ldr	fp, .L1002+112
 7664 017e 03A8     		add	r0, sp, #12
 7665 0180 FFF7FEFF 		bl	_ZN4node4LockC2Ev
 7666 0184 DBF80050 		ldr	r5, [fp]
 7667 0188 15F00105 		ands	r5, r5, #1
 7668 018c 5CD1     		bne	.L974
 7669 018e FFF7FEFF 		bl	_ZN4node7getNodeEv
 7670 0192 534C     		ldr	r4, .L1002+56
 7671 0194 34AE     		add	r6, sp, #208
 7672 0196 534B     		ldr	r3, .L1002+60
 7673 0198 06F8A85D 		strb	r5, [r6, #-168]!
 7674 019c 8246     		mov	r10, r0
 7675 019e 6060     		str	r0, [r4, #4]
 7676 01a0 2360     		str	r3, [r4]
 7677 01a2 04F10C00 		add	r0, r4, #12
 7678 01a6 04F13801 		add	r1, r4, #56
 7679 01aa 3246     		mov	r2, r6
 7680 01ac A560     		str	r5, [r4, #8]
 7681 01ae A563     		str	r5, [r4, #56]
 7682 01b0 FFF7FEFF 		bl	_ZN6uavcan4fillIPhhEEvT_S2_RKT0_
 7683 01b4 2046     		mov	r0, r4
 7684 01b6 4C4B     		ldr	r3, .L1002+64
 7685 01b8 4C4A     		ldr	r2, .L1002+68
 7686 01ba 34AF     		add	r7, sp, #208
 7687 01bc 40F8403B 		str	r3, [r0], #64
 7688 01c0 0023     		movs	r3, #0
 7689 01c2 67E92E23 		strd	r2, [r7, #-184]!
 7690 01c6 DFF85481 		ldr	r8, .L1002+116
 7691 01ca 4FF00009 		mov	r9, #0
ARM GAS  /tmp/ccFEREDd.s 			page 136


 7692 01ce 5146     		mov	r1, r10
 7693 01d0 3246     		mov	r2, r6
 7694 01d2 3B46     		mov	r3, r7
 7695 01d4 CDE90A89 		strd	r8, [sp, #40]
 7696 01d8 FFF7FEFF 		bl	_ZN6uavcan20GenericPublisherBaseC2ERNS_5INodeENS_17MonotonicDurationES3_
 7697 01dc 444B     		ldr	r3, .L1002+72
 7698 01de 04F18400 		add	r0, r4, #132
 7699 01e2 A367     		str	r3, [r4, #120]
 7700 01e4 04F1B001 		add	r1, r4, #176
 7701 01e8 3246     		mov	r2, r6
 7702 01ea A566     		str	r5, [r4, #104]
 7703 01ec E566     		str	r5, [r4, #108]
 7704 01ee 2567     		str	r5, [r4, #112]
 7705 01f0 6567     		str	r5, [r4, #116]
 7706 01f2 C4F87CA0 		str	r10, [r4, #124]
 7707 01f6 C4F88050 		str	r5, [r4, #128]
 7708 01fa C4F8B050 		str	r5, [r4, #176]
 7709 01fe 8DF82850 		strb	r5, [sp, #40]
 7710 0202 FFF7FEFF 		bl	_ZN6uavcan4fillIPhhEEvT_S2_RKT0_
 7711 0206 3B4B     		ldr	r3, .L1002+76
 7712 0208 384A     		ldr	r2, .L1002+68
 7713 020a A367     		str	r3, [r4, #120]
 7714 020c 0023     		movs	r3, #0
 7715 020e CDE90623 		strd	r2, [sp, #24]
 7716 0212 5146     		mov	r1, r10
 7717 0214 3246     		mov	r2, r6
 7718 0216 3B46     		mov	r3, r7
 7719 0218 04F1B800 		add	r0, r4, #184
 7720 021c CDE90A89 		strd	r8, [sp, #40]
 7721 0220 FFF7FEFF 		bl	_ZN6uavcan20GenericPublisherBaseC2ERNS_5INodeENS_17MonotonicDurationES3_
 7722 0224 0123     		movs	r3, #1
 7723 0226 C4F8E050 		str	r5, [r4, #224]
 7724 022a C4F8E450 		str	r5, [r4, #228]
 7725 022e C4F8E850 		str	r5, [r4, #232]
 7726 0232 C4F8EC50 		str	r5, [r4, #236]
 7727 0236 2046     		mov	r0, r4
 7728 0238 2F49     		ldr	r1, .L1002+80
 7729 023a 304A     		ldr	r2, .L1002+84
 7730 023c C4F8F050 		str	r5, [r4, #240]
 7731 0240 CBF80030 		str	r3, [fp]
 7732 0244 FFF7FEFF 		bl	__aeabi_atexit
 7733              	.L974:
 7734 0248 2548     		ldr	r0, .L1002+56
 7735 024a 2D49     		ldr	r1, .L1002+88
 7736 024c FFF7FEFF 		bl	_ZN6uavcan11ParamServer5startEPNS_13IParamManagerE
 7737 0250 041E     		subs	r4, r0, #0
 7738 0252 02DA     		bge	.L975
 7739 0254 A4F6B834 		subw	r4, r4, #3000
 7740 0258 52E1     		b	.L976
 7741              	.L975:
 7742 025a FFF7FEFF 		bl	_ZN4node12_GLOBAL__N_116getTimeSyncSlaveEv
 7743 025e FFF7FEFF 		bl	_ZN6uavcan19GlobalTimeSyncSlave5startEv
 7744 0262 0028     		cmp	r0, #0
 7745 0264 02DA     		bge	.L977
 7746 0266 A4F57A64 		sub	r4, r4, #4000
 7747 026a 49E1     		b	.L976
 7748              	.L977:
ARM GAS  /tmp/ccFEREDd.s 			page 137


 7749 026c 254C     		ldr	r4, .L1002+92
 7750 026e 2068     		ldr	r0, [r4]
 7751 0270 FFF7FEFF 		bl	_ZNK13zubax_chibios6config9_internal5ParamIjE3getEv.isra.54
 7752 0274 244B     		ldr	r3, .L1002+96
 7753 0276 0028     		cmp	r0, #0
 7754 0278 00F0B480 		beq	.L978
 7755 027c 0122     		movs	r2, #1
 7756 027e 1A70     		strb	r2, [r3]
 7757 0280 224B     		ldr	r3, .L1002+100
 7758 0282 1B68     		ldr	r3, [r3]
 7759 0284 DB07     		lsls	r3, r3, #31
 7760 0286 01D4     		bmi	.L979
 7761 0288 FFF7FEFF 		bl	_ZN4node12_GLOBAL__N_117getTimeSyncMasterEv.part.122
 7762              	.L979:
 7763 028c 204B     		ldr	r3, .L1002+104
 7764 028e 1868     		ldr	r0, [r3]
 7765 0290 FFF7FEFF 		bl	_ZNK13zubax_chibios6config9_internal5ParamIjE3getEv.isra.54
 7766 0294 0146     		mov	r1, r0
 7767 0296 1F48     		ldr	r0, .L1002+108
 7768 0298 FFF7FEFF 		bl	_ZN6uavcan20GlobalTimeSyncMaster4initENS_16TransferPriorityE
 7769 029c 0028     		cmp	r0, #0
 7770 029e 3FDA     		bge	.L980
 7771 02a0 A0F59C54 		sub	r4, r0, #4992
 7772 02a4 083C     		subs	r4, r4, #8
 7773 02a6 2BE1     		b	.L976
 7774              	.L1003:
 7775              		.align	2
 7776              	.L1002:
 7777 02a8 17B7D138 		.word	953267991
 7778 02ac E0930400 		.word	300000
 7779 02b0 6F12833A 		.word	981668463
 7780 02b4 17B75138 		.word	944879383
 7781 02b8 00008C42 		.word	1116471296
 7782 02bc 00000000 		.word	.LANCHOR16
 7783 02c0 00000000 		.word	.LANCHOR17
 7784 02c4 00000000 		.word	.LANCHOR18
 7785 02c8 00000000 		.word	.LANCHOR19
 7786 02cc 46020000 		.word	.LC26
 7787 02d0 00000000 		.word	_ZN6uavcan6NodeID9BroadcastE
 7788 02d4 00000000 		.word	_ZN6uavcan16TransferPriority19OneHigherThanLowestE
 7789 02d8 5F020000 		.word	.LC27
 7790 02dc 8A020000 		.word	.LC28
 7791 02e0 00000000 		.word	.LANCHOR21
 7792 02e4 08000000 		.word	_ZTVN6uavcan17GenericSubscriberINS_8protocol5param7GetSet_ENS3_8Request_ILi0EEENS_16Transfer
 7793 02e8 08000000 		.word	_ZTVN6uavcan13ServiceServerINS_8protocol5param7GetSet_ENS_12MethodBinderIPNS_11ParamServerEM
 7794 02ec 00879303 		.word	60000000
 7795 02f0 08000000 		.word	_ZTVN6uavcan17GenericSubscriberINS_8protocol5param14ExecuteOpcode_ENS3_8Request_ILi0EEENS_16
 7796 02f4 08000000 		.word	_ZTVN6uavcan13ServiceServerINS_8protocol5param14ExecuteOpcode_ENS_12MethodBinderIPNS_11Param
 7797 02f8 00000000 		.word	_ZN6uavcan11ParamServerD1Ev
 7798 02fc 00000000 		.word	__dso_handle
 7799 0300 00000000 		.word	.LANCHOR22
 7800 0304 00000000 		.word	.LANCHOR23
 7801 0308 00000000 		.word	.LANCHOR10
 7802 030c 00000000 		.word	.LANCHOR15
 7803 0310 00000000 		.word	.LANCHOR24
 7804 0314 00000000 		.word	.LANCHOR14
 7805 0318 00000000 		.word	.LANCHOR20
ARM GAS  /tmp/ccFEREDd.s 			page 138


 7806 031c 40420F00 		.word	1000000
 7807              	.L980:
 7808 0320 2068     		ldr	r0, [r4]
 7809 0322 FFF7FEFF 		bl	_ZNK13zubax_chibios6config9_internal5ParamIjE3getEv.isra.54
 7810 0326 7A4F     		ldr	r7, .L1004
 7811 0328 7A4E     		ldr	r6, .L1004+4
 7812 032a 8742     		cmp	r7, r0
 7813 032c 38BF     		it	cc
 7814 032e 0746     		movcc	r7, r0
 7815 0330 3846     		mov	r0, r7
 7816 0332 FFF7FEFF 		bl	__aeabi_ui2f
 7817 0336 7849     		ldr	r1, .L1004+8
 7818 0338 FFF7FEFF 		bl	__aeabi_fmul
 7819 033c FFF7FEFF 		bl	__aeabi_f2d
 7820 0340 0246     		mov	r2, r0
 7821 0342 0B46     		mov	r3, r1
 7822 0344 7548     		ldr	r0, .L1004+12
 7823 0346 FFF7FEFF 		bl	lowsyslog
 7824 034a 3368     		ldr	r3, [r6]
 7825 034c 744C     		ldr	r4, .L1004+16
 7826 034e 13F00105 		ands	r5, r3, #1
 7827 0352 0FD1     		bne	.L981
 7828 0354 FFF7FEFF 		bl	_ZN4node7getNodeEv
 7829 0358 0146     		mov	r1, r0
 7830 035a 2046     		mov	r0, r4
 7831 035c FFF7FEFF 		bl	_ZN6uavcan9TimerBaseC2ERNS_5INodeE
 7832 0360 704B     		ldr	r3, .L1004+20
 7833 0362 A562     		str	r5, [r4, #40]
 7834 0364 2360     		str	r3, [r4]
 7835 0366 2046     		mov	r0, r4
 7836 0368 0123     		movs	r3, #1
 7837 036a 6F49     		ldr	r1, .L1004+24
 7838 036c 6F4A     		ldr	r2, .L1004+28
 7839 036e 3360     		str	r3, [r6]
 7840 0370 FFF7FEFF 		bl	__aeabi_atexit
 7841              	.L981:
 7842 0374 6E4B     		ldr	r3, .L1004+32
 7843 0376 0022     		movs	r2, #0
 7844 0378 0693     		str	r3, [sp, #24]
 7845 037a 6E4B     		ldr	r3, .L1004+36
 7846 037c 0C92     		str	r2, [sp, #48]
 7847 037e 0993     		str	r3, [sp, #36]
 7848 0380 6D4B     		ldr	r3, .L1004+40
 7849 0382 0AAD     		add	r5, sp, #40
 7850 0384 0893     		str	r3, [sp, #32]
 7851 0386 43B1     		cbz	r3, .L982
 7852 0388 2846     		mov	r0, r5
 7853 038a 06A9     		add	r1, sp, #24
 7854 038c 0222     		movs	r2, #2
 7855 038e FFF7FEFF 		bl	_ZNSt14_Function_base13_Base_managerIPFvRKN6uavcan10TimerEventEEE10_M_managerERSt9_Any_dataRKS8
 7856 0392 099B     		ldr	r3, [sp, #36]
 7857 0394 0D93     		str	r3, [sp, #52]
 7858 0396 089B     		ldr	r3, [sp, #32]
 7859 0398 0C93     		str	r3, [sp, #48]
 7860              	.L982:
 7861 039a 04AB     		add	r3, sp, #16
 7862 039c 95E80300 		ldmia	r5, {r0, r1}
ARM GAS  /tmp/ccFEREDd.s 			page 139


 7863 03a0 664E     		ldr	r6, .L1004+44
 7864 03a2 83E80300 		stmia	r3, {r0, r1}
 7865 03a6 96E80300 		ldmia	r6, {r0, r1}
 7866 03aa 85E80300 		stmia	r5, {r0, r1}
 7867 03ae 93E80300 		ldmia	r3, {r0, r1}
 7868 03b2 86E80300 		stmia	r6, {r0, r1}
 7869 03b6 0C9B     		ldr	r3, [sp, #48]
 7870 03b8 A26A     		ldr	r2, [r4, #40]
 7871 03ba A362     		str	r3, [r4, #40]
 7872 03bc 0D9B     		ldr	r3, [sp, #52]
 7873 03be 0C92     		str	r2, [sp, #48]
 7874 03c0 E26A     		ldr	r2, [r4, #44]
 7875 03c2 2846     		mov	r0, r5
 7876 03c4 E362     		str	r3, [r4, #44]
 7877 03c6 0D92     		str	r2, [sp, #52]
 7878 03c8 FFF7FEFF 		bl	_ZNSt14_Function_baseD2Ev
 7879 03cc 06A8     		add	r0, sp, #24
 7880 03ce FFF7FEFF 		bl	_ZNSt14_Function_baseD2Ev
 7881 03d2 0023     		movs	r3, #0
 7882 03d4 A6F12000 		sub	r0, r6, #32
 7883 03d8 2946     		mov	r1, r5
 7884 03da 0A97     		str	r7, [sp, #40]
 7885 03dc 0B93     		str	r3, [sp, #44]
 7886 03de FFF7FEFF 		bl	_ZN6uavcan9TimerBase13startPeriodicENS_17MonotonicDurationE
 7887 03e2 03E0     		b	.L983
 7888              	.L978:
 7889 03e4 1870     		strb	r0, [r3]
 7890 03e6 5648     		ldr	r0, .L1004+48
 7891 03e8 FFF7FEFF 		bl	lowsyslog
 7892              	.L983:
 7893 03ec 554F     		ldr	r7, .L1004+52
 7894 03ee 564C     		ldr	r4, .L1004+56
 7895 03f0 3D68     		ldr	r5, [r7]
 7896 03f2 15F00105 		ands	r5, r5, #1
 7897 03f6 2DD1     		bne	.L984
 7898 03f8 FFF7FEFF 		bl	_ZN4node7getNodeEv
 7899 03fc 34AE     		add	r6, sp, #208
 7900 03fe 534B     		ldr	r3, .L1004+60
 7901 0400 06F8A85D 		strb	r5, [r6, #-168]!
 7902 0404 8246     		mov	r10, r0
 7903 0406 6060     		str	r0, [r4, #4]
 7904 0408 2360     		str	r3, [r4]
 7905 040a 04F10C00 		add	r0, r4, #12
 7906 040e 04F13801 		add	r1, r4, #56
 7907 0412 3246     		mov	r2, r6
 7908 0414 A560     		str	r5, [r4, #8]
 7909 0416 A563     		str	r5, [r4, #56]
 7910 0418 FFF7FEFF 		bl	_ZN6uavcan4fillIPhhEEvT_S2_RKT0_
 7911 041c 2046     		mov	r0, r4
 7912 041e 4C4B     		ldr	r3, .L1004+64
 7913 0420 4C4A     		ldr	r2, .L1004+68
 7914 0422 40F8403B 		str	r3, [r0], #64
 7915 0426 DFF85481 		ldr	r8, .L1004+108
 7916 042a 0023     		movs	r3, #0
 7917 042c CDE90A23 		strd	r2, [sp, #40]
 7918 0430 4FF00009 		mov	r9, #0
 7919 0434 34AB     		add	r3, sp, #208
ARM GAS  /tmp/ccFEREDd.s 			page 140


 7920 0436 63E92E89 		strd	r8, [r3, #-184]!
 7921 043a 5146     		mov	r1, r10
 7922 043c 3246     		mov	r2, r6
 7923 043e FFF7FEFF 		bl	_ZN6uavcan20GenericPublisherBaseC2ERNS_5INodeENS_17MonotonicDurationES3_
 7924 0442 0123     		movs	r3, #1
 7925 0444 2046     		mov	r0, r4
 7926 0446 4449     		ldr	r1, .L1004+72
 7927 0448 384A     		ldr	r2, .L1004+28
 7928 044a A566     		str	r5, [r4, #104]
 7929 044c E566     		str	r5, [r4, #108]
 7930 044e 3B60     		str	r3, [r7]
 7931 0450 FFF7FEFF 		bl	__aeabi_atexit
 7932              	.L984:
 7933 0454 3C4D     		ldr	r5, .L1004+56
 7934 0456 A16B     		ldr	r1, [r4, #56]
 7935 0458 281D     		adds	r0, r5, #4
 7936 045a FFF7FEFF 		bl	_ZN6uavcan21GenericSubscriberBase4stopEPNS_16TransferListenerE
 7937 045e 3F4B     		ldr	r3, .L1004+76
 7938 0460 05F14000 		add	r0, r5, #64
 7939 0464 A366     		str	r3, [r4, #104]
 7940 0466 FFF7FEFF 		bl	_ZN6uavcan16GenericPublisherINS_8protocol4file20BeginFirmwareUpdate_ENS3_9Response_ILi0EEEE9che
 7941 046a 0028     		cmp	r0, #0
 7942 046c 30DB     		blt	.L988
 7943 046e 3C4B     		ldr	r3, .L1004+80
 7944 0470 AE6B     		ldr	r6, [r5, #56]
 7945 0472 0A93     		str	r3, [sp, #40]
 7946 0474 0023     		movs	r3, #0
 7947 0476 0B93     		str	r3, [sp, #44]
 7948 0478 76BB     		cbnz	r6, .L986
 7949 047a FFF7FEFF 		bl	_ZN6uavcan22GlobalDataTypeRegistry8instanceEv
 7950 047e FFF7FEFF 		bl	_ZN6uavcan22GlobalDataTypeRegistry6freezeEv
 7951 0482 FFF7FEFF 		bl	_ZN6uavcan22GlobalDataTypeRegistry8instanceEv
 7952 0486 3146     		mov	r1, r6
 7953 0488 364A     		ldr	r2, .L1004+84
 7954 048a FFF7FEFF 		bl	_ZNK6uavcan22GlobalDataTypeRegistry4findENS_12DataTypeKindEPKc
 7955 048e 0746     		mov	r7, r0
 7956 0490 E0B1     		cbz	r0, .L990
 7957 0492 6868     		ldr	r0, [r5, #4]
 7958 0494 0368     		ldr	r3, [r0]
 7959 0496 9B68     		ldr	r3, [r3, #8]
 7960 0498 9847     		blx	r3
 7961 049a AB6B     		ldr	r3, [r5, #56]
 7962 049c 8046     		mov	r8, r0
 7963 049e 13B1     		cbz	r3, .L987
 7964 04a0 3148     		ldr	r0, .L1004+88
 7965 04a2 FFF7FEFF 		bl	_ZN6uavcan16handleFatalErrorEPKc
 7966              	.L987:
 7967 04a6 6868     		ldr	r0, [r5, #4]
 7968 04a8 FFF7FEFF 		bl	_ZN6uavcan5INode13getDispatcherEv
 7969 04ac 05F10C06 		add	r6, r5, #12
 7970 04b0 00F1B001 		add	r1, r0, #176
 7971 04b4 CA23     		movs	r3, #202
 7972 04b6 CDF80080 		str	r8, [sp]
 7973 04ba 3046     		mov	r0, r6
 7974 04bc 3A46     		mov	r2, r7
 7975 04be FFF7FEFF 		bl	_ZN6uavcan16TransferListenerC2ERNS_19TransferPerfCounterERKNS_18DataTypeDescriptorEtRNS_14IPool
 7976 04c2 2A4B     		ldr	r3, .L1004+92
ARM GAS  /tmp/ccFEREDd.s 			page 141


 7977 04c4 6D63     		str	r5, [r5, #52]
 7978 04c6 EB60     		str	r3, [r5, #12]
 7979 04c8 AE63     		str	r6, [r5, #56]
 7980 04ca 05E0     		b	.L986
 7981              	.L990:
 7982 04cc 6FF00400 		mvn	r0, #4
 7983              	.L988:
 7984 04d0 A0F5BB54 		sub	r4, r0, #5984
 7985 04d4 103C     		subs	r4, r4, #16
 7986 04d6 13E0     		b	.L976
 7987              	.L986:
 7988 04d8 0AAB     		add	r3, sp, #40
 7989 04da 2548     		ldr	r0, .L1004+96
 7990 04dc A16B     		ldr	r1, [r4, #56]
 7991 04de 0CCB     		ldmia	r3, {r2, r3}
 7992 04e0 FFF7FEFF 		bl	_ZN6uavcan21GenericSubscriberBase12genericStartEPNS_16TransferListenerEMNS_10DispatcherEFbS2_E
 7993 04e4 0028     		cmp	r0, #0
 7994 04e6 F3DB     		blt	.L988
 7995 04e8 224B     		ldr	r3, .L1004+100
 7996 04ea 0122     		movs	r2, #1
 7997 04ec 1A70     		strb	r2, [r3]
 7998 04ee FFF7FEFF 		bl	_ZN4node7getNodeEv
 7999 04f2 FFF7FEFF 		bl	_ZNK6uavcan5INode9getNodeIDEv
 8000 04f6 C1B2     		uxtb	r1, r0
 8001 04f8 1F48     		ldr	r0, .L1004+104
 8002 04fa FFF7FEFF 		bl	lowsyslog
 8003 04fe 0024     		movs	r4, #0
 8004              	.L976:
 8005 0500 03A8     		add	r0, sp, #12
 8006              	.L999:
 8007 0502 FFF7FEFF 		bl	_ZN12uavcan_stm3211MutexLockerD2Ev
 8008              	.L994:
 8009 0506 2046     		mov	r0, r4
 8010 0508 35B0     		add	sp, sp, #212
 8011              		@ sp needed
 8012 050a BDE8F08F 		pop	{r4, r5, r6, r7, r8, r9, r10, fp, pc}
 8013              	.L1005:
 8014 050e 00BF     		.align	2
 8015              	.L1004:
 8016 0510 20A10700 		.word	500000
 8017 0514 00000000 		.word	.LANCHOR25
 8018 0518 BD378635 		.word	897988541
 8019 051c AE020000 		.word	.LC29
 8020 0520 00000000 		.word	.LANCHOR26
 8021 0524 08000000 		.word	_ZTVN6uavcan19TimerEventForwarderISt8functionIFvRKNS_10TimerEventEEEEE+8
 8022 0528 00000000 		.word	_ZN6uavcan19TimerEventForwarderISt8functionIFvRKNS_10TimerEventEEEED1Ev
 8023 052c 00000000 		.word	__dso_handle
 8024 0530 00000000 		.word	_ZN4node12_GLOBAL__N_115publishTimeSyncERKN6uavcan10TimerEventE
 8025 0534 00000000 		.word	_ZNSt17_Function_handlerIFvRKN6uavcan10TimerEventEEPS4_E9_M_invokeERKSt9_Any_dataS3_
 8026 0538 00000000 		.word	_ZNSt14_Function_base13_Base_managerIPFvRKN6uavcan10TimerEventEEE10_M_managerERSt9_Any_dataR
 8027 053c 20000000 		.word	.LANCHOR26+32
 8028 0540 D0020000 		.word	.LC30
 8029 0544 00000000 		.word	.LANCHOR27
 8030 0548 00000000 		.word	.LANCHOR28
 8031 054c 08000000 		.word	_ZTVN6uavcan17GenericSubscriberINS_8protocol4file20BeginFirmwareUpdate_ENS3_8Request_ILi0EEE
 8032 0550 08000000 		.word	_ZTVN6uavcan13ServiceServerINS_8protocol4file20BeginFirmwareUpdate_EPFvRKNS_21ReceivedDataSt
 8033 0554 40420F00 		.word	1000000
ARM GAS  /tmp/ccFEREDd.s 			page 142


 8034 0558 00000000 		.word	_ZN6uavcan13ServiceServerINS_8protocol4file20BeginFirmwareUpdate_EPFvRKNS_21ReceivedDataStru
 8035 055c 00000000 		.word	_ZN4node12_GLOBAL__N_132handleBeginFirmwareUpdateRequestERKN6uavcan21ReceivedDataStructureIN
 8036 0560 00000000 		.word	_ZN6uavcan10Dispatcher30registerServiceRequestListenerEPNS_16TransferListenerE
 8037 0564 9F010000 		.word	.LC18
 8038 0568 1A000000 		.word	.LC2
 8039 056c 08000000 		.word	_ZTVN6uavcan17GenericSubscriberINS_8protocol4file20BeginFirmwareUpdate_ENS3_8Request_ILi0EEE
 8040 0570 04000000 		.word	.LANCHOR28+4
 8041 0574 00000000 		.word	.LANCHOR2
 8042 0578 E4020000 		.word	.LC31
 8043 057c 00879303 		.word	60000000
 8044              		.size	_ZNK4node12_GLOBAL__N_15._3454initEv, .-_ZNK4node12_GLOBAL__N_15._3454initEv
 8045              		.section	.text.startup._ZN4node12_GLOBAL__N_15._3454mainEv,"ax",%progbits
 8046              		.align	1
 8047              		.thumb
 8048              		.thumb_func
 8049              		.type	_ZN4node12_GLOBAL__N_15._3454mainEv, %function
 8050              	_ZN4node12_GLOBAL__N_15._3454mainEv:
 8051              		@ args = 0, pretend = 0, frame = 8
 8052              		@ frame_needed = 0, uses_anonymous_args = 0
 8053 0000 2DE9F341 		push	{r0, r1, r4, r5, r6, r7, r8, lr}
 8054 0004 0746     		mov	r7, r0
 8055 0006 5148     		ldr	r0, .L1050
 8056 0008 FFF7FEFF 		bl	_ZN10chibios_rt10BaseThread7setNameEPKc
 8057              	.L1024:
 8058 000c 0120     		movs	r0, #1
 8059 000e FFF7FEFF 		bl	sleep
 8060 0012 4F4B     		ldr	r3, .L1050+4
 8061 0014 1868     		ldr	r0, [r3]
 8062 0016 FFF7FEFF 		bl	_ZNK13zubax_chibios6config9_internal5ParamIjE3getEv.isra.54
 8063 001a 0446     		mov	r4, r0
 8064 001c 10B9     		cbnz	r0, .L1007
 8065 001e FFF7FEFF 		bl	_ZN20bootloader_interface25getInheritedCanBusBitRateEv
 8066 0022 0446     		mov	r4, r0
 8067              	.L1007:
 8068 0024 002C     		cmp	r4, #0
 8069 0026 0CBF     		ite	eq
 8070 0028 0126     		moveq	r6, #1
 8071 002a 0026     		movne	r6, #0
 8072 002c 22D1     		bne	.L1012
 8073 002e 2546     		mov	r5, r4
 8074              	.L1008:
 8075 0030 484B     		ldr	r3, .L1050+8
 8076 0032 0122     		movs	r2, #1
 8077 0034 53F82540 		ldr	r4, [r3, r5, lsl #2]
 8078 0038 4748     		ldr	r0, .L1050+12
 8079 003a 2146     		mov	r1, r4
 8080 003c FFF7FEFF 		bl	_ZN12uavcan_stm329CanDriver4initEmNS_8CanIface13OperatingModeE
 8081 0040 8046     		mov	r8, r0
 8082 0042 4648     		ldr	r0, .L1050+16
 8083 0044 FFF7FEFF 		bl	usleep
 8084 0048 B8F1000F 		cmp	r8, #0
 8085 004c 03DA     		bge	.L1010
 8086              	.L1013:
 8087 004e 0135     		adds	r5, r5, #1
 8088 0050 042D     		cmp	r5, #4
 8089 0052 EDD1     		bne	.L1008
 8090 0054 6DE0     		b	.L1047
ARM GAS  /tmp/ccFEREDd.s 			page 143


 8091              	.L1010:
 8092 0056 0021     		movs	r1, #0
 8093 0058 3F48     		ldr	r0, .L1050+12
 8094 005a FFF7FEFF 		bl	_ZN12uavcan_stm329CanDriver8getIfaceEh
 8095 005e FFF7FEFF 		bl	_ZNK12uavcan_stm328CanIface15isRxBufferEmptyEv
 8096 0062 38B1     		cbz	r0, .L1012
 8097 0064 0121     		movs	r1, #1
 8098 0066 3C48     		ldr	r0, .L1050+12
 8099 0068 FFF7FEFF 		bl	_ZN12uavcan_stm329CanDriver8getIfaceEh
 8100 006c FFF7FEFF 		bl	_ZNK12uavcan_stm328CanIface15isRxBufferEmptyEv
 8101 0070 0028     		cmp	r0, #0
 8102 0072 ECD1     		bne	.L1013
 8103              	.L1012:
 8104 0074 2146     		mov	r1, r4
 8105 0076 3848     		ldr	r0, .L1050+12
 8106 0078 0022     		movs	r2, #0
 8107 007a FFF7FEFF 		bl	_ZN12uavcan_stm329CanDriver4initEmNS_8CanIface13OperatingModeE
 8108 007e 0028     		cmp	r0, #0
 8109 0080 0146     		mov	r1, r0
 8110 0082 06DB     		blt	.L1014
 8111 0084 3648     		ldr	r0, .L1050+20
 8112 0086 2146     		mov	r1, r4
 8113 0088 FFF7FEFF 		bl	lowsyslog
 8114 008c 354B     		ldr	r3, .L1050+24
 8115 008e 1C60     		str	r4, [r3]
 8116 0090 09E0     		b	.L1015
 8117              	.L1014:
 8118 0092 16B1     		cbz	r6, .L1016
 8119 0094 344B     		ldr	r3, .L1050+28
 8120 0096 9842     		cmp	r0, r3
 8121 0098 B8D0     		beq	.L1024
 8122              	.L1016:
 8123 009a 3448     		ldr	r0, .L1050+32
 8124 009c 3246     		mov	r2, r6
 8125 009e 2346     		mov	r3, r4
 8126 00a0 FFF7FEFF 		bl	lowsyslog
 8127 00a4 B2E7     		b	.L1024
 8128              	.L1015:
 8129 00a6 3846     		mov	r0, r7
 8130 00a8 FFF7FEFF 		bl	_ZNK4node12_GLOBAL__N_15._3454initEv
 8131 00ac 011E     		subs	r1, r0, #0
 8132 00ae 06DA     		bge	.L1019
 8133 00b0 2F48     		ldr	r0, .L1050+36
 8134 00b2 FFF7FEFF 		bl	lowsyslog
 8135 00b6 0320     		movs	r0, #3
 8136 00b8 FFF7FEFF 		bl	sleep
 8137 00bc F3E7     		b	.L1015
 8138              	.L1019:
 8139 00be 6420     		movs	r0, #100
 8140 00c0 FFF7FEFF 		bl	watchdogCreate
 8141 00c4 051E     		subs	r5, r0, #0
 8142 00c6 1DDA     		bge	.L1021
 8143 00c8 2A4A     		ldr	r2, .L1050+40
 8144 00ca 2B4B     		ldr	r3, .L1050+44
 8145 00cc 1A60     		str	r2, [r3]
 8146 00ce FFF7FEFF 		bl	sysHaltHook_
 8147 00d2 FFF7FEFF 		bl	port_halt
ARM GAS  /tmp/ccFEREDd.s 			page 144


 8148 00d6 15E0     		b	.L1021
 8149              	.L1023:
 8150 00d8 4FF47A70 		mov	r0, #1000
 8151 00dc FFF7FEFF 		bl	usleep
 8152 00e0 2846     		mov	r0, r5
 8153 00e2 FFF7FEFF 		bl	watchdogReset
 8154 00e6 01A8     		add	r0, sp, #4
 8155 00e8 FFF7FEFF 		bl	_ZN4node4LockC2Ev
 8156 00ec FFF7FEFF 		bl	_ZN4node7getNodeEv
 8157 00f0 00F5EF50 		add	r0, r0, #7648
 8158 00f4 437B     		ldrb	r3, [r0, #13]	@ zero_extendqisi2
 8159 00f6 53B9     		cbnz	r3, .L1048
 8160              	.L1022:
 8161 00f8 3846     		mov	r0, r7
 8162 00fa FFF7FEFF 		bl	_ZNK4node12_GLOBAL__N_15._3458spinOnceEv
 8163 00fe 01A8     		add	r0, sp, #4
 8164 0100 FFF7FEFF 		bl	_ZN12uavcan_stm3211MutexLockerD2Ev
 8165              	.L1021:
 8166 0104 1D4B     		ldr	r3, .L1050+48
 8167 0106 1C78     		ldrb	r4, [r3]	@ zero_extendqisi2
 8168 0108 002C     		cmp	r4, #0
 8169 010a E5D0     		beq	.L1023
 8170 010c 16E0     		b	.L1049
 8171              	.L1048:
 8172 010e 1C4B     		ldr	r3, .L1050+52
 8173 0110 1A78     		ldrb	r2, [r3]	@ zero_extendqisi2
 8174 0112 002A     		cmp	r2, #0
 8175 0114 F0D0     		beq	.L1022
 8176 0116 5A78     		ldrb	r2, [r3, #1]	@ zero_extendqisi2
 8177 0118 002A     		cmp	r2, #0
 8178 011a EDD0     		beq	.L1022
 8179 011c 9B78     		ldrb	r3, [r3, #2]	@ zero_extendqisi2
 8180 011e 002B     		cmp	r3, #0
 8181 0120 EAD0     		beq	.L1022
 8182 0122 FFF7FEFF 		bl	_ZN4node7getNodeEv
 8183 0126 2146     		mov	r1, r4
 8184 0128 00F5E950 		add	r0, r0, #7456
 8185 012c FFF7FEFF 		bl	_ZN6uavcan18NodeStatusProvider7setModeEh
 8186 0130 E2E7     		b	.L1022
 8187              	.L1047:
 8188 0132 002E     		cmp	r6, #0
 8189 0134 7FF46AAF 		bne	.L1024
 8190 0138 0B49     		ldr	r1, .L1050+28
 8191 013a AEE7     		b	.L1016
 8192              	.L1049:
 8193 013c 1148     		ldr	r0, .L1050+56
 8194 013e FFF7FEFF 		bl	lowsyslog
 8195 0142 0020     		movs	r0, #0
 8196 0144 02B0     		add	sp, sp, #8
 8197              		@ sp needed
 8198 0146 BDE8F081 		pop	{r4, r5, r6, r7, r8, pc}
 8199              	.L1051:
 8200 014a 00BF     		.align	2
 8201              	.L1050:
 8202 014c 00030000 		.word	.LC32
 8203 0150 00000000 		.word	.LANCHOR29
 8204 0154 00000000 		.word	.LANCHOR30
ARM GAS  /tmp/ccFEREDd.s 			page 145


 8205 0158 00080000 		.word	.LANCHOR7+2048
 8206 015c 90051000 		.word	1050000
 8207 0160 07030000 		.word	.LC33
 8208 0164 00000000 		.word	.LANCHOR13
 8209 0168 11FCFFFF 		.word	-1007
 8210 016c 1D030000 		.word	.LC34
 8211 0170 5A030000 		.word	.LC35
 8212 0174 84030000 		.word	.LC36
 8213 0178 00000000 		.word	dbg_panic_msg
 8214 017c 00000000 		.word	.LANCHOR0
 8215 0180 00000000 		.word	.LANCHOR3
 8216 0184 BA030000 		.word	.LC37
 8217              		.size	_ZN4node12_GLOBAL__N_15._3454mainEv, .-_ZN4node12_GLOBAL__N_15._3454mainEv
 8218              		.section	.text._ZN6uavcan19DynamicNodeIDClientD0Ev,"axG",%progbits,_ZN6uavcan19DynamicNodeIDClient
 8219              		.align	1
 8220              		.weak	_ZN6uavcan19DynamicNodeIDClientD0Ev
 8221              		.thumb
 8222              		.thumb_func
 8223              		.type	_ZN6uavcan19DynamicNodeIDClientD0Ev, %function
 8224              	_ZN6uavcan19DynamicNodeIDClientD0Ev:
 8225              		@ args = 0, pretend = 0, frame = 0
 8226              		@ frame_needed = 0, uses_anonymous_args = 0
 8227 0000 10B5     		push	{r4, lr}
 8228 0002 0446     		mov	r4, r0
 8229 0004 FFF7FEFF 		bl	_ZN6uavcan19DynamicNodeIDClientD1Ev
 8230 0008 2046     		mov	r0, r4
 8231 000a FFF7FEFF 		bl	_ZdlPv
 8232 000e 2046     		mov	r0, r4
 8233 0010 10BD     		pop	{r4, pc}
 8234              		.size	_ZN6uavcan19DynamicNodeIDClientD0Ev, .-_ZN6uavcan19DynamicNodeIDClientD0Ev
 8235              		.section	.text._ZN6uavcan17GenericSubscriberINS_8protocol15GlobalTimeSync_ILi0EEES3_NS_16TransferL
 8236              		.align	1
 8237              		.weak	_ZN6uavcan17GenericSubscriberINS_8protocol15GlobalTimeSync_ILi0EEES3_NS_16TransferListenerEE
 8238              		.thumb
 8239              		.thumb_func
 8240              		.type	_ZN6uavcan17GenericSubscriberINS_8protocol15GlobalTimeSync_ILi0EEES3_NS_16TransferListenerEE
 8241              	_ZN6uavcan17GenericSubscriberINS_8protocol15GlobalTimeSync_ILi0EEES3_NS_16TransferListenerEE22handl
 8242              		@ args = 0, pretend = 0, frame = 48
 8243              		@ frame_needed = 0, uses_anonymous_args = 0
 8244 0000 70B5     		push	{r4, r5, r6, lr}
 8245 0002 8CB0     		sub	sp, sp, #48
 8246 0004 0A91     		str	r1, [sp, #40]
 8247 0006 0591     		str	r1, [sp, #20]
 8248 0008 0D46     		mov	r5, r1
 8249 000a 0021     		movs	r1, #0
 8250 000c 0022     		movs	r2, #0
 8251 000e 0023     		movs	r3, #0
 8252 0010 0691     		str	r1, [sp, #24]
 8253 0012 8DF81C10 		strb	r1, [sp, #28]
 8254 0016 05A9     		add	r1, sp, #20
 8255 0018 CDE90823 		strd	r2, [sp, #32]
 8256 001c 0191     		str	r1, [sp, #4]
 8257 001e CDE90223 		strd	r2, [sp, #8]
 8258 0022 0446     		mov	r4, r0
 8259 0024 02A9     		add	r1, sp, #8
 8260 0026 01A8     		add	r0, sp, #4
 8261 0028 3822     		movs	r2, #56
ARM GAS  /tmp/ccFEREDd.s 			page 146


 8262 002a FFF7FEFF 		bl	_ZN6uavcan11ScalarCodec15decodeBytesImplEPhj
 8263 002e 061E     		subs	r6, r0, #0
 8264 0030 03DD     		ble	.L1054
 8265 0032 DDE90223 		ldrd	r2, [sp, #8]
 8266 0036 CDE90823 		strd	r2, [sp, #32]
 8267              	.L1054:
 8268 003a 2B68     		ldr	r3, [r5]
 8269 003c 2846     		mov	r0, r5
 8270 003e 1B69     		ldr	r3, [r3, #16]
 8271 0040 9847     		blx	r3
 8272 0042 002E     		cmp	r6, #0
 8273 0044 09DC     		bgt	.L1055
 8274 0046 A368     		ldr	r3, [r4, #8]
 8275 0048 6068     		ldr	r0, [r4, #4]
 8276 004a 0133     		adds	r3, r3, #1
 8277 004c A360     		str	r3, [r4, #8]
 8278 004e FFF7FEFF 		bl	_ZN6uavcan5INode13getDispatcherEv
 8279 0052 C030     		adds	r0, r0, #192
 8280 0054 FFF7FEFF 		bl	_ZN6uavcan19TransferPerfCounter8addErrorEv.isra.6
 8281 0058 04E0     		b	.L1053
 8282              	.L1055:
 8283 005a 2368     		ldr	r3, [r4]
 8284 005c 2046     		mov	r0, r4
 8285 005e 9B68     		ldr	r3, [r3, #8]
 8286 0060 08A9     		add	r1, sp, #32
 8287 0062 9847     		blx	r3
 8288              	.L1053:
 8289 0064 0CB0     		add	sp, sp, #48
 8290              		@ sp needed
 8291 0066 70BD     		pop	{r4, r5, r6, pc}
 8292              		.size	_ZN6uavcan17GenericSubscriberINS_8protocol15GlobalTimeSync_ILi0EEES3_NS_16TransferListenerEE
 8293              		.section	.text._ZN6uavcan17GenericSubscriberINS_8protocol15GlobalTimeSync_ILi0EEES3_NS_16TransferL
 8294              		.align	1
 8295              		.weak	_ZN6uavcan17GenericSubscriberINS_8protocol15GlobalTimeSync_ILi0EEES3_NS_16TransferListenerEE
 8296              		.thumb
 8297              		.thumb_func
 8298              		.type	_ZN6uavcan17GenericSubscriberINS_8protocol15GlobalTimeSync_ILi0EEES3_NS_16TransferListenerEE
 8299              	_ZN6uavcan17GenericSubscriberINS_8protocol15GlobalTimeSync_ILi0EEES3_NS_16TransferListenerEE17Trans
 8300              		@ args = 0, pretend = 0, frame = 0
 8301              		@ frame_needed = 0, uses_anonymous_args = 0
 8302 0000 08B5     		push	{r3, lr}
 8303 0002 806A     		ldr	r0, [r0, #40]
 8304 0004 FFF7FEFF 		bl	_ZN6uavcan17GenericSubscriberINS_8protocol15GlobalTimeSync_ILi0EEES3_NS_16TransferListenerEE22h
 8305 0008 08BD     		pop	{r3, pc}
 8306              		.size	_ZN6uavcan17GenericSubscriberINS_8protocol15GlobalTimeSync_ILi0EEES3_NS_16TransferListenerEE
 8307              		.section	.text._ZN6uavcan17GenericSubscriberINS_8protocol12RestartNode_ENS2_8Request_ILi0EEENS_16T
 8308              		.align	1
 8309              		.weak	_ZN6uavcan17GenericSubscriberINS_8protocol12RestartNode_ENS2_8Request_ILi0EEENS_16TransferLi
 8310              		.thumb
 8311              		.thumb_func
 8312              		.type	_ZN6uavcan17GenericSubscriberINS_8protocol12RestartNode_ENS2_8Request_ILi0EEENS_16TransferLi
 8313              	_ZN6uavcan17GenericSubscriberINS_8protocol12RestartNode_ENS2_8Request_ILi0EEENS_16TransferListenerE
 8314              		@ args = 0, pretend = 0, frame = 48
 8315              		@ frame_needed = 0, uses_anonymous_args = 0
 8316 0000 70B5     		push	{r4, r5, r6, lr}
 8317 0002 8CB0     		sub	sp, sp, #48
 8318 0004 0A91     		str	r1, [sp, #40]
ARM GAS  /tmp/ccFEREDd.s 			page 147


 8319 0006 0591     		str	r1, [sp, #20]
 8320 0008 0D46     		mov	r5, r1
 8321 000a 0021     		movs	r1, #0
 8322 000c 0022     		movs	r2, #0
 8323 000e 0023     		movs	r3, #0
 8324 0010 0691     		str	r1, [sp, #24]
 8325 0012 8DF81C10 		strb	r1, [sp, #28]
 8326 0016 05A9     		add	r1, sp, #20
 8327 0018 CDE90823 		strd	r2, [sp, #32]
 8328 001c 0191     		str	r1, [sp, #4]
 8329 001e CDE90223 		strd	r2, [sp, #8]
 8330 0022 0446     		mov	r4, r0
 8331 0024 02A9     		add	r1, sp, #8
 8332 0026 01A8     		add	r0, sp, #4
 8333 0028 2822     		movs	r2, #40
 8334 002a FFF7FEFF 		bl	_ZN6uavcan11ScalarCodec15decodeBytesImplEPhj
 8335 002e 061E     		subs	r6, r0, #0
 8336 0030 03DD     		ble	.L1059
 8337 0032 DDE90223 		ldrd	r2, [sp, #8]
 8338 0036 CDE90823 		strd	r2, [sp, #32]
 8339              	.L1059:
 8340 003a 2B68     		ldr	r3, [r5]
 8341 003c 2846     		mov	r0, r5
 8342 003e 1B69     		ldr	r3, [r3, #16]
 8343 0040 9847     		blx	r3
 8344 0042 002E     		cmp	r6, #0
 8345 0044 09DC     		bgt	.L1060
 8346 0046 A368     		ldr	r3, [r4, #8]
 8347 0048 6068     		ldr	r0, [r4, #4]
 8348 004a 0133     		adds	r3, r3, #1
 8349 004c A360     		str	r3, [r4, #8]
 8350 004e FFF7FEFF 		bl	_ZN6uavcan5INode13getDispatcherEv
 8351 0052 C030     		adds	r0, r0, #192
 8352 0054 FFF7FEFF 		bl	_ZN6uavcan19TransferPerfCounter8addErrorEv.isra.6
 8353 0058 04E0     		b	.L1058
 8354              	.L1060:
 8355 005a 2368     		ldr	r3, [r4]
 8356 005c 2046     		mov	r0, r4
 8357 005e 9B68     		ldr	r3, [r3, #8]
 8358 0060 08A9     		add	r1, sp, #32
 8359 0062 9847     		blx	r3
 8360              	.L1058:
 8361 0064 0CB0     		add	sp, sp, #48
 8362              		@ sp needed
 8363 0066 70BD     		pop	{r4, r5, r6, pc}
 8364              		.size	_ZN6uavcan17GenericSubscriberINS_8protocol12RestartNode_ENS2_8Request_ILi0EEENS_16TransferLi
 8365              		.section	.text._ZN6uavcan17GenericSubscriberINS_8protocol12RestartNode_ENS2_8Request_ILi0EEENS_16T
 8366              		.align	1
 8367              		.weak	_ZN6uavcan17GenericSubscriberINS_8protocol12RestartNode_ENS2_8Request_ILi0EEENS_16TransferLi
 8368              		.thumb
 8369              		.thumb_func
 8370              		.type	_ZN6uavcan17GenericSubscriberINS_8protocol12RestartNode_ENS2_8Request_ILi0EEENS_16TransferLi
 8371              	_ZN6uavcan17GenericSubscriberINS_8protocol12RestartNode_ENS2_8Request_ILi0EEENS_16TransferListenerE
 8372              		@ args = 0, pretend = 0, frame = 0
 8373              		@ frame_needed = 0, uses_anonymous_args = 0
 8374 0000 08B5     		push	{r3, lr}
 8375 0002 806A     		ldr	r0, [r0, #40]
ARM GAS  /tmp/ccFEREDd.s 			page 148


 8376 0004 FFF7FEFF 		bl	_ZN6uavcan17GenericSubscriberINS_8protocol12RestartNode_ENS2_8Request_ILi0EEENS_16TransferListe
 8377 0008 08BD     		pop	{r3, pc}
 8378              		.size	_ZN6uavcan17GenericSubscriberINS_8protocol12RestartNode_ENS2_8Request_ILi0EEENS_16TransferLi
 8379              		.section	.text._ZN6uavcan16GenericPublisherINS_8protocol4file20BeginFirmwareUpdate_ENS3_9Response_
 8380              		.align	1
 8381              		.weak	_ZN6uavcan16GenericPublisherINS_8protocol4file20BeginFirmwareUpdate_ENS3_9Response_ILi0EEEE1
 8382              		.thumb
 8383              		.thumb_func
 8384              		.type	_ZN6uavcan16GenericPublisherINS_8protocol4file20BeginFirmwareUpdate_ENS3_9Response_ILi0EEEE1
 8385              	_ZN6uavcan16GenericPublisherINS_8protocol4file20BeginFirmwareUpdate_ENS3_9Response_ILi0EEEE14generi
 8386              		@ args = 8, pretend = 0, frame = 168
 8387              		@ frame_needed = 0, uses_anonymous_args = 0
 8388 0000 2DE9F04F 		push	{r4, r5, r6, r7, r8, r9, r10, fp, lr}
 8389 0004 ADB0     		sub	sp, sp, #180
 8390 0006 8046     		mov	r8, r0
 8391 0008 0D46     		mov	r5, r1
 8392 000a 1746     		mov	r7, r2
 8393 000c 1E46     		mov	r6, r3
 8394 000e FFF7FEFF 		bl	_ZN6uavcan16GenericPublisherINS_8protocol4file20BeginFirmwareUpdate_ENS3_9Response_ILi0EEEE9che
 8395 0012 0028     		cmp	r0, #0
 8396 0014 3EDB     		blt	.L1075
 8397 0016 0BAB     		add	r3, sp, #44
 8398 0018 0993     		str	r3, [sp, #36]
 8399 001a 0DF1B009 		add	r9, sp, #176
 8400 001e 8123     		movs	r3, #129
 8401 0020 0DF1100B 		add	fp, sp, #16
 8402 0024 ADF82830 		strh	r3, [sp, #40]	@ movhi
 8403 0028 49F8A4BD 		str	fp, [r9, #-164]!
 8404 002c 1B4B     		ldr	r3, .L1076
 8405 002e 4FF0000A 		mov	r10, #0
 8406 0032 08AC     		add	r4, sp, #32
 8407 0034 2878     		ldrb	r0, [r5]	@ zero_extendqisi2
 8408 0036 4946     		mov	r1, r9
 8409 0038 ADF82AA0 		strh	r10, [sp, #42]	@ movhi
 8410 003c 0893     		str	r3, [sp, #32]
 8411 003e 0494     		str	r4, [sp, #16]
 8412 0040 CDF814A0 		str	r10, [sp, #20]
 8413 0044 8DF818A0 		strb	r10, [sp, #24]
 8414 0048 FFF7FEFF 		bl	_ZN6uavcan11IntegerSpecILj8ELNS_10SignednessE0ELNS_8CastModeE0EE6encodeEhRNS_11ScalarCodecENS_2
 8415 004c 5045     		cmp	r0, r10
 8416 004e 1FDD     		ble	.L1065
 8417 0050 6B78     		ldrb	r3, [r5, #1]	@ zero_extendqisi2
 8418 0052 73B1     		cbz	r3, .L1066
 8419              	.L1067:
 8420 0054 6978     		ldrb	r1, [r5, #1]	@ zero_extendqisi2
 8421 0056 5FFA8AF3 		uxtb	r3, r10
 8422 005a 9942     		cmp	r1, r3
 8423 005c 09D9     		bls	.L1066
 8424 005e 2B44     		add	r3, r3, r5
 8425 0060 9878     		ldrb	r0, [r3, #2]	@ zero_extendqisi2
 8426 0062 4946     		mov	r1, r9
 8427 0064 FFF7FEFF 		bl	_ZN6uavcan11IntegerSpecILj8ELNS_10SignednessE0ELNS_8CastModeE0EE6encodeEhRNS_11ScalarCodecENS_2
 8428 0068 0028     		cmp	r0, #0
 8429 006a 0AF1010A 		add	r10, r10, #1
 8430 006e F1DC     		bgt	.L1067
 8431 0070 0EE0     		b	.L1065
 8432              	.L1066:
ARM GAS  /tmp/ccFEREDd.s 			page 149


 8433 0072 379B     		ldr	r3, [sp, #220]
 8434 0074 3A46     		mov	r2, r7
 8435 0076 93E80300 		ldmia	r3, {r0, r1}
 8436 007a 369B     		ldr	r3, [sp, #216]
 8437 007c 8BE80300 		stmia	fp, {r0, r1}
 8438 0080 8DE80808 		stmia	sp, {r3, fp}
 8439 0084 4046     		mov	r0, r8
 8440 0086 2146     		mov	r1, r4
 8441 0088 3346     		mov	r3, r6
 8442 008a FFF7FEFF 		bl	_ZN6uavcan20GenericPublisherBase14genericPublishERKNS_24StaticTransferBufferImplENS_12TransferT
 8443 008e 01E0     		b	.L1075
 8444              	.L1065:
 8445 0090 6FF00500 		mvn	r0, #5
 8446              	.L1075:
 8447 0094 2DB0     		add	sp, sp, #180
 8448              		@ sp needed
 8449 0096 BDE8F08F 		pop	{r4, r5, r6, r7, r8, r9, r10, fp, pc}
 8450              	.L1077:
 8451 009a 00BF     		.align	2
 8452              	.L1076:
 8453 009c 08000000 		.word	_ZTVN6uavcan20StaticTransferBufferILt129EEE+8
 8454              		.size	_ZN6uavcan16GenericPublisherINS_8protocol4file20BeginFirmwareUpdate_ENS3_9Response_ILi0EEEE1
 8455              		.section	.text._ZN6uavcan13ServiceServerINS_8protocol4file20BeginFirmwareUpdate_EPFvRKNS_21Receive
 8456              		.align	1
 8457              		.weak	_ZN6uavcan13ServiceServerINS_8protocol4file20BeginFirmwareUpdate_EPFvRKNS_21ReceivedDataStru
 8458              		.thumb
 8459              		.thumb_func
 8460              		.type	_ZN6uavcan13ServiceServerINS_8protocol4file20BeginFirmwareUpdate_EPFvRKNS_21ReceivedDataStru
 8461              	_ZN6uavcan13ServiceServerINS_8protocol4file20BeginFirmwareUpdate_EPFvRKNS_21ReceivedDataStructureIN
 8462              		@ args = 0, pretend = 0, frame = 152
 8463              		@ frame_needed = 0, uses_anonymous_args = 0
 8464 0000 F0B5     		push	{r4, r5, r6, r7, lr}
 8465 0002 0023     		movs	r3, #0
 8466 0004 A9B0     		sub	sp, sp, #164
 8467 0006 8DF81D30 		strb	r3, [sp, #29]
 8468 000a 8DF81E30 		strb	r3, [sp, #30]
 8469 000e 0123     		movs	r3, #1
 8470 0010 8DF89F30 		strb	r3, [sp, #159]
 8471 0014 836E     		ldr	r3, [r0, #104]
 8472 0016 0446     		mov	r4, r0
 8473 0018 0D46     		mov	r5, r1
 8474 001a 3BB1     		cbz	r3, .L1079
 8475 001c 0846     		mov	r0, r1
 8476 001e 0DF11D01 		add	r1, sp, #29
 8477 0022 9847     		blx	r3
 8478 0024 9DF89F30 		ldrb	r3, [sp, #159]	@ zero_extendqisi2
 8479 0028 4BB3     		cbz	r3, .L1078
 8480 002a 02E0     		b	.L1087
 8481              	.L1079:
 8482 002c 1548     		ldr	r0, .L1088
 8483 002e FFF7FEFF 		bl	_ZN6uavcan16handleFatalErrorEPKc
 8484              	.L1087:
 8485 0032 D5F8CC30 		ldr	r3, [r5, #204]
 8486 0036 0BB1     		cbz	r3, .L1085
 8487 0038 1B7E     		ldrb	r3, [r3, #24]	@ zero_extendqisi2
 8488 003a 00E0     		b	.L1082
 8489              	.L1085:
ARM GAS  /tmp/ccFEREDd.s 			page 150


 8490 003c FF23     		movs	r3, #255
 8491              	.L1082:
 8492 003e 84F84C30 		strb	r3, [r4, #76]
 8493 0042 D5F8CC20 		ldr	r2, [r5, #204]
 8494 0046 04F14000 		add	r0, r4, #64
 8495 004a 12B1     		cbz	r2, .L1086
 8496 004c D37E     		ldrb	r3, [r2, #27]	@ zero_extendqisi2
 8497 004e 927E     		ldrb	r2, [r2, #26]	@ zero_extendqisi2
 8498 0050 00E0     		b	.L1083
 8499              	.L1086:
 8500 0052 FF23     		movs	r3, #255
 8501              	.L1083:
 8502 0054 8DF80F20 		strb	r2, [sp, #15]
 8503 0058 0DF10F02 		add	r2, sp, #15
 8504 005c 0092     		str	r2, [sp]
 8505 005e 04AA     		add	r2, sp, #16
 8506 0060 0192     		str	r2, [sp, #4]
 8507 0062 0026     		movs	r6, #0
 8508 0064 0027     		movs	r7, #0
 8509 0066 0DF11D01 		add	r1, sp, #29
 8510 006a 0022     		movs	r2, #0
 8511 006c CDE90467 		strd	r6, [sp, #16]
 8512 0070 FFF7FEFF 		bl	_ZN6uavcan16GenericPublisherINS_8protocol4file20BeginFirmwareUpdate_ENS3_9Response_ILi0EEEE14ge
 8513 0074 0028     		cmp	r0, #0
 8514 0076 02DA     		bge	.L1078
 8515 0078 2046     		mov	r0, r4
 8516 007a FFF7FEFF 		bl	_ZN6uavcan13ServiceServerINS_8protocol4file20BeginFirmwareUpdate_EPFvRKNS_21ReceivedDataStructu
 8517              	.L1078:
 8518 007e 29B0     		add	sp, sp, #164
 8519              		@ sp needed
 8520 0080 F0BD     		pop	{r4, r5, r6, r7, pc}
 8521              	.L1089:
 8522 0082 00BF     		.align	2
 8523              	.L1088:
 8524 0084 25020000 		.word	.LC22
 8525              		.size	_ZN6uavcan13ServiceServerINS_8protocol4file20BeginFirmwareUpdate_EPFvRKNS_21ReceivedDataStru
 8526              		.section	.text._ZN6uavcan16GenericPublisherINS_8protocol5param14ExecuteOpcode_ENS3_9Response_ILi0E
 8527              		.align	1
 8528              		.weak	_ZN6uavcan16GenericPublisherINS_8protocol5param14ExecuteOpcode_ENS3_9Response_ILi0EEEE14gene
 8529              		.thumb
 8530              		.thumb_func
 8531              		.type	_ZN6uavcan16GenericPublisherINS_8protocol5param14ExecuteOpcode_ENS3_9Response_ILi0EEEE14gene
 8532              	_ZN6uavcan16GenericPublisherINS_8protocol5param14ExecuteOpcode_ENS3_9Response_ILi0EEEE14genericPubl
 8533              		@ args = 8, pretend = 0, frame = 48
 8534              		@ frame_needed = 0, uses_anonymous_args = 0
 8535 0000 2DE9F043 		push	{r4, r5, r6, r7, r8, r9, lr}
 8536 0004 8FB0     		sub	sp, sp, #60
 8537 0006 8146     		mov	r9, r0
 8538 0008 0E46     		mov	r6, r1
 8539 000a 9046     		mov	r8, r2
 8540 000c 1F46     		mov	r7, r3
 8541 000e FFF7FEFF 		bl	_ZN6uavcan16GenericPublisherINS_8protocol5param14ExecuteOpcode_ENS3_9Response_ILi0EEEE9checkIni
 8542 0012 0028     		cmp	r0, #0
 8543 0014 4FDB     		blt	.L1091
 8544 0016 47F6FF71 		movw	r1, #32767
 8545 001a 0CAB     		add	r3, sp, #48
 8546 001c 274A     		ldr	r2, .L1099
ARM GAS  /tmp/ccFEREDd.s 			page 151


 8547 001e 0A93     		str	r3, [sp, #40]
 8548 0020 0723     		movs	r3, #7
 8549 0022 ADF82C30 		strh	r3, [sp, #44]	@ movhi
 8550 0026 4FF0FF30 		mov	r0, #-1
 8551 002a 0023     		movs	r3, #0
 8552 002c ADF82E30 		strh	r3, [sp, #46]	@ movhi
 8553 0030 0992     		str	r2, [sp, #36]
 8554 0032 0793     		str	r3, [sp, #28]
 8555 0034 8DF82030 		strb	r3, [sp, #32]
 8556 0038 D6E90023 		ldrd	r2, [r6]
 8557 003c 9042     		cmp	r0, r2
 8558 003e 09AC     		add	r4, sp, #36
 8559 0040 06AD     		add	r5, sp, #24
 8560 0042 71EB030E 		sbcs	lr, r1, r3
 8561 0046 0694     		str	r4, [sp, #24]
 8562 0048 0395     		str	r5, [sp, #12]
 8563 004a 08DB     		blt	.L1098
 8564 004c 0120     		movs	r0, #1
 8565 004e 1C49     		ldr	r1, .L1099+4
 8566 0050 8242     		cmp	r2, r0
 8567 0052 73EB0101 		sbcs	r1, r3, r1
 8568 0056 04DA     		bge	.L1092
 8569 0058 0022     		movs	r2, #0
 8570 005a 194B     		ldr	r3, .L1099+4
 8571 005c 01E0     		b	.L1092
 8572              	.L1098:
 8573 005e 0246     		mov	r2, r0
 8574 0060 0B46     		mov	r3, r1
 8575              	.L1092:
 8576 0062 4FF6FF71 		movw	r1, #65535
 8577 0066 4FF0FF30 		mov	r0, #-1
 8578 006a 0240     		ands	r2, r2, r0
 8579 006c 0B40     		ands	r3, r3, r1
 8580 006e CDE90423 		strd	r2, [sp, #16]
 8581 0072 03A8     		add	r0, sp, #12
 8582 0074 04A9     		add	r1, sp, #16
 8583 0076 3022     		movs	r2, #48
 8584 0078 FFF7FEFF 		bl	_ZN6uavcan11ScalarCodec15encodeBytesImplEPhj
 8585 007c 0028     		cmp	r0, #0
 8586 007e 02DC     		bgt	.L1093
 8587              	.L1095:
 8588 0080 6FF00500 		mvn	r0, #5
 8589 0084 17E0     		b	.L1091
 8590              	.L1093:
 8591 0086 337A     		ldrb	r3, [r6, #8]	@ zero_extendqisi2
 8592 0088 03A8     		add	r0, sp, #12
 8593 008a 04A9     		add	r1, sp, #16
 8594 008c 0122     		movs	r2, #1
 8595 008e 8DF81030 		strb	r3, [sp, #16]
 8596 0092 FFF7FEFF 		bl	_ZN6uavcan11ScalarCodec15encodeBytesImplEPhj
 8597 0096 0028     		cmp	r0, #0
 8598 0098 F2DD     		ble	.L1095
 8599 009a 179B     		ldr	r3, [sp, #92]
 8600 009c 4246     		mov	r2, r8
 8601 009e 93E80300 		ldmia	r3, {r0, r1}
 8602 00a2 169B     		ldr	r3, [sp, #88]
 8603 00a4 85E80300 		stmia	r5, {r0, r1}
ARM GAS  /tmp/ccFEREDd.s 			page 152


 8604 00a8 8DE82800 		stmia	sp, {r3, r5}
 8605 00ac 4846     		mov	r0, r9
 8606 00ae 2146     		mov	r1, r4
 8607 00b0 3B46     		mov	r3, r7
 8608 00b2 FFF7FEFF 		bl	_ZN6uavcan20GenericPublisherBase14genericPublishERKNS_24StaticTransferBufferImplENS_12TransferT
 8609              	.L1091:
 8610 00b6 0FB0     		add	sp, sp, #60
 8611              		@ sp needed
 8612 00b8 BDE8F083 		pop	{r4, r5, r6, r7, r8, r9, pc}
 8613              	.L1100:
 8614              		.align	2
 8615              	.L1099:
 8616 00bc 08000000 		.word	_ZTVN6uavcan20StaticTransferBufferILt7EEE+8
 8617 00c0 0080FFFF 		.word	-32768
 8618              		.size	_ZN6uavcan16GenericPublisherINS_8protocol5param14ExecuteOpcode_ENS3_9Response_ILi0EEEE14gene
 8619              		.section	.text._ZN6uavcan13ServiceServerINS_8protocol5param14ExecuteOpcode_ENS_12MethodBinderIPNS_
 8620              		.align	1
 8621              		.weak	_ZN6uavcan13ServiceServerINS_8protocol5param14ExecuteOpcode_ENS_12MethodBinderIPNS_11ParamSe
 8622              		.thumb
 8623              		.thumb_func
 8624              		.type	_ZN6uavcan13ServiceServerINS_8protocol5param14ExecuteOpcode_ENS_12MethodBinderIPNS_11ParamSe
 8625              	_ZN6uavcan13ServiceServerINS_8protocol5param14ExecuteOpcode_ENS_12MethodBinderIPNS_11ParamServerEMS
 8626              		@ args = 0, pretend = 0, frame = 32
 8627              		@ frame_needed = 0, uses_anonymous_args = 0
 8628 0000 F0B5     		push	{r4, r5, r6, r7, lr}
 8629 0002 0023     		movs	r3, #0
 8630 0004 8BB0     		sub	sp, sp, #44
 8631 0006 0022     		movs	r2, #0
 8632 0008 CDE90623 		strd	r2, [sp, #24]
 8633 000c 0023     		movs	r3, #0
 8634 000e 0446     		mov	r4, r0
 8635 0010 8DF82030 		strb	r3, [sp, #32]
 8636 0014 6830     		adds	r0, r0, #104
 8637 0016 0123     		movs	r3, #1
 8638 0018 0D46     		mov	r5, r1
 8639 001a 8DF82130 		strb	r3, [sp, #33]
 8640 001e FFF7FEFF 		bl	_ZNK6uavcan12MethodBinderIPNS_11ParamServerEMS1_FvRKNS_8protocol5param14ExecuteOpcode_8Request_
 8641 0022 90B1     		cbz	r0, .L1102
 8642 0024 226F     		ldr	r2, [r4, #112]
 8643 0026 A06E     		ldr	r0, [r4, #104]
 8644 0028 12F0010F 		tst	r2, #1
 8645 002c 4FEA6202 		asr	r2, r2, #1
 8646 0030 18BF     		it	ne
 8647 0032 8158     		ldrne	r1, [r0, r2]
 8648 0034 E36E     		ldr	r3, [r4, #108]
 8649 0036 1044     		add	r0, r0, r2
 8650 0038 18BF     		it	ne
 8651 003a CB58     		ldrne	r3, [r1, r3]
 8652 003c 06AA     		add	r2, sp, #24
 8653 003e 2946     		mov	r1, r5
 8654 0040 9847     		blx	r3
 8655 0042 9DF82130 		ldrb	r3, [sp, #33]	@ zero_extendqisi2
 8656 0046 63B3     		cbz	r3, .L1101
 8657 0048 02E0     		b	.L1112
 8658              	.L1102:
 8659 004a 1748     		ldr	r0, .L1113
 8660 004c FFF7FEFF 		bl	_ZN6uavcan16handleFatalErrorEPKc
ARM GAS  /tmp/ccFEREDd.s 			page 153


 8661              	.L1112:
 8662 0050 2B69     		ldr	r3, [r5, #16]
 8663 0052 0BB1     		cbz	r3, .L1110
 8664 0054 1B7E     		ldrb	r3, [r3, #24]	@ zero_extendqisi2
 8665 0056 00E0     		b	.L1107
 8666              	.L1110:
 8667 0058 FF23     		movs	r3, #255
 8668              	.L1107:
 8669 005a 84F84C30 		strb	r3, [r4, #76]
 8670 005e 2A69     		ldr	r2, [r5, #16]
 8671 0060 04F14000 		add	r0, r4, #64
 8672 0064 12B1     		cbz	r2, .L1111
 8673 0066 D37E     		ldrb	r3, [r2, #27]	@ zero_extendqisi2
 8674 0068 927E     		ldrb	r2, [r2, #26]	@ zero_extendqisi2
 8675 006a 00E0     		b	.L1108
 8676              	.L1111:
 8677 006c FF23     		movs	r3, #255
 8678              	.L1108:
 8679 006e 8DF80F20 		strb	r2, [sp, #15]
 8680 0072 0DF10F02 		add	r2, sp, #15
 8681 0076 0092     		str	r2, [sp]
 8682 0078 04AA     		add	r2, sp, #16
 8683 007a 0192     		str	r2, [sp, #4]
 8684 007c 0026     		movs	r6, #0
 8685 007e 0027     		movs	r7, #0
 8686 0080 06A9     		add	r1, sp, #24
 8687 0082 0022     		movs	r2, #0
 8688 0084 CDE90467 		strd	r6, [sp, #16]
 8689 0088 FFF7FEFF 		bl	_ZN6uavcan16GenericPublisherINS_8protocol5param14ExecuteOpcode_ENS3_9Response_ILi0EEEE14generic
 8690 008c 0028     		cmp	r0, #0
 8691 008e 08DA     		bge	.L1101
 8692 0090 206E     		ldr	r0, [r4, #96]
 8693 0092 FFF7FEFF 		bl	_ZN6uavcan5INode13getDispatcherEv
 8694 0096 C030     		adds	r0, r0, #192
 8695 0098 FFF7FEFF 		bl	_ZN6uavcan19TransferPerfCounter8addErrorEv.isra.6
 8696 009c 636F     		ldr	r3, [r4, #116]
 8697 009e 0133     		adds	r3, r3, #1
 8698 00a0 6367     		str	r3, [r4, #116]
 8699              	.L1101:
 8700 00a2 0BB0     		add	sp, sp, #44
 8701              		@ sp needed
 8702 00a4 F0BD     		pop	{r4, r5, r6, r7, pc}
 8703              	.L1114:
 8704 00a6 00BF     		.align	2
 8705              	.L1113:
 8706 00a8 25020000 		.word	.LC22
 8707              		.size	_ZN6uavcan13ServiceServerINS_8protocol5param14ExecuteOpcode_ENS_12MethodBinderIPNS_11ParamSe
 8708              		.section	.text._ZN6uavcan16GenericPublisherINS_8protocol18GetTransportStats_ENS2_9Response_ILi0EEE
 8709              		.align	1
 8710              		.weak	_ZN6uavcan16GenericPublisherINS_8protocol18GetTransportStats_ENS2_9Response_ILi0EEEE14generi
 8711              		.thumb
 8712              		.thumb_func
 8713              		.type	_ZN6uavcan16GenericPublisherINS_8protocol18GetTransportStats_ENS2_9Response_ILi0EEEE14generi
 8714              	_ZN6uavcan16GenericPublisherINS_8protocol18GetTransportStats_ENS2_9Response_ILi0EEEE14genericPublis
 8715              		@ args = 8, pretend = 0, frame = 120
 8716              		@ frame_needed = 0, uses_anonymous_args = 0
 8717 0000 2DE9F04F 		push	{r4, r5, r6, r7, r8, r9, r10, fp, lr}
ARM GAS  /tmp/ccFEREDd.s 			page 154


 8718 0004 A1B0     		sub	sp, sp, #132
 8719 0006 8346     		mov	fp, r0
 8720 0008 0D46     		mov	r5, r1
 8721 000a 9246     		mov	r10, r2
 8722 000c 9946     		mov	r9, r3
 8723 000e FFF7FEFF 		bl	_ZN6uavcan16GenericPublisherINS_8protocol18GetTransportStats_ENS2_9Response_ILi0EEEE9checkInitE
 8724 0012 0028     		cmp	r0, #0
 8725 0014 61DB     		blt	.L1131
 8726 0016 D5E90001 		ldrd	r0, [r5]
 8727 001a 0DAB     		add	r3, sp, #52
 8728 001c 0B93     		str	r3, [sp, #44]
 8729 001e 4923     		movs	r3, #73
 8730 0020 ADF83030 		strh	r3, [sp, #48]	@ movhi
 8731 0024 2E4B     		ldr	r3, .L1132
 8732 0026 20AE     		add	r6, sp, #128
 8733 0028 0A93     		str	r3, [sp, #40]
 8734 002a 06AB     		add	r3, sp, #24
 8735 002c 46F86C3D 		str	r3, [r6, #-108]!
 8736 0030 0024     		movs	r4, #0
 8737 0032 0AAF     		add	r7, sp, #40
 8738 0034 3246     		mov	r2, r6
 8739 0036 ADF83240 		strh	r4, [sp, #50]	@ movhi
 8740 003a 0697     		str	r7, [sp, #24]
 8741 003c 0794     		str	r4, [sp, #28]
 8742 003e 8DF82040 		strb	r4, [sp, #32]
 8743 0042 FFF7FEFF 		bl	_ZN6uavcan11IntegerSpecILj48ELNS_10SignednessE0ELNS_8CastModeE0EE6encodeEyRNS_11ScalarCodecENS_
 8744 0046 A042     		cmp	r0, r4
 8745 0048 35DD     		ble	.L1121
 8746 004a D5E90201 		ldrd	r0, [r5, #8]
 8747 004e 3246     		mov	r2, r6
 8748 0050 FFF7FEFF 		bl	_ZN6uavcan11IntegerSpecILj48ELNS_10SignednessE0ELNS_8CastModeE0EE6encodeEyRNS_11ScalarCodecENS_
 8749 0054 A042     		cmp	r0, r4
 8750 0056 2EDD     		ble	.L1121
 8751 0058 D5E90401 		ldrd	r0, [r5, #16]
 8752 005c 3246     		mov	r2, r6
 8753 005e FFF7FEFF 		bl	_ZN6uavcan11IntegerSpecILj48ELNS_10SignednessE0ELNS_8CastModeE0EE6encodeEyRNS_11ScalarCodecENS_
 8754 0062 A042     		cmp	r0, r4
 8755 0064 27DD     		ble	.L1121
 8756 0066 2B7E     		ldrb	r3, [r5, #24]	@ zero_extendqisi2
 8757 0068 43B3     		cbz	r3, .L1118
 8758              	.L1119:
 8759 006a 2A7E     		ldrb	r2, [r5, #24]	@ zero_extendqisi2
 8760 006c 5FFA84F8 		uxtb	r8, r4
 8761 0070 4245     		cmp	r2, r8
 8762 0072 23D9     		bls	.L1118
 8763 0074 1826     		movs	r6, #24
 8764 0076 06FB085C 		mla	ip, r6, r8, r5
 8765 007a 05AA     		add	r2, sp, #20
 8766 007c DCE90801 		ldrd	r0, [ip, #32]
 8767 0080 CDF80CC0 		str	ip, [sp, #12]
 8768 0084 FFF7FEFF 		bl	_ZN6uavcan11IntegerSpecILj48ELNS_10SignednessE0ELNS_8CastModeE0EE6encodeEyRNS_11ScalarCodecENS_
 8769 0088 0028     		cmp	r0, #0
 8770 008a 14DD     		ble	.L1121
 8771 008c DDF80CC0 		ldr	ip, [sp, #12]
 8772 0090 05AA     		add	r2, sp, #20
 8773 0092 DCE90A01 		ldrd	r0, [ip, #40]
 8774 0096 FFF7FEFF 		bl	_ZN6uavcan11IntegerSpecILj48ELNS_10SignednessE0ELNS_8CastModeE0EE6encodeEyRNS_11ScalarCodecENS_
ARM GAS  /tmp/ccFEREDd.s 			page 155


 8775 009a 0028     		cmp	r0, #0
 8776 009c 0BDD     		ble	.L1121
 8777 009e 08FB0666 		mla	r6, r8, r6, r6
 8778 00a2 2E44     		add	r6, r6, r5
 8779 00a4 D6E90601 		ldrd	r0, [r6, #24]
 8780 00a8 05AA     		add	r2, sp, #20
 8781 00aa FFF7FEFF 		bl	_ZN6uavcan11IntegerSpecILj48ELNS_10SignednessE0ELNS_8CastModeE0EE6encodeEyRNS_11ScalarCodecENS_
 8782 00ae 0028     		cmp	r0, #0
 8783 00b0 04F10104 		add	r4, r4, #1
 8784 00b4 D9DC     		bgt	.L1119
 8785              	.L1121:
 8786 00b6 6FF00500 		mvn	r0, #5
 8787 00ba 0EE0     		b	.L1131
 8788              	.L1118:
 8789 00bc 2B9A     		ldr	r2, [sp, #172]
 8790 00be 06AB     		add	r3, sp, #24
 8791 00c0 92E80300 		ldmia	r2, {r0, r1}
 8792 00c4 2A9A     		ldr	r2, [sp, #168]
 8793 00c6 83E80300 		stmia	r3, {r0, r1}
 8794 00ca 8DE80C00 		stmia	sp, {r2, r3}
 8795 00ce 5846     		mov	r0, fp
 8796 00d0 3946     		mov	r1, r7
 8797 00d2 5246     		mov	r2, r10
 8798 00d4 4B46     		mov	r3, r9
 8799 00d6 FFF7FEFF 		bl	_ZN6uavcan20GenericPublisherBase14genericPublishERKNS_24StaticTransferBufferImplENS_12TransferT
 8800              	.L1131:
 8801 00da 21B0     		add	sp, sp, #132
 8802              		@ sp needed
 8803 00dc BDE8F08F 		pop	{r4, r5, r6, r7, r8, r9, r10, fp, pc}
 8804              	.L1133:
 8805              		.align	2
 8806              	.L1132:
 8807 00e0 08000000 		.word	_ZTVN6uavcan20StaticTransferBufferILt73EEE+8
 8808              		.size	_ZN6uavcan16GenericPublisherINS_8protocol18GetTransportStats_ENS2_9Response_ILi0EEEE14generi
 8809              		.section	.text._ZN6uavcan13ServiceServerINS_8protocol18GetTransportStats_ENS_12MethodBinderIPKNS_2
 8810              		.align	1
 8811              		.weak	_ZN6uavcan13ServiceServerINS_8protocol18GetTransportStats_ENS_12MethodBinderIPKNS_22Transpor
 8812              		.thumb
 8813              		.thumb_func
 8814              		.type	_ZN6uavcan13ServiceServerINS_8protocol18GetTransportStats_ENS_12MethodBinderIPKNS_22Transpor
 8815              	_ZN6uavcan13ServiceServerINS_8protocol18GetTransportStats_ENS_12MethodBinderIPKNS_22TransportStatsP
 8816              		@ args = 0, pretend = 0, frame = 128
 8817              		@ frame_needed = 0, uses_anonymous_args = 0
 8818 0000 F0B5     		push	{r4, r5, r6, r7, lr}
 8819 0002 0446     		mov	r4, r0
 8820 0004 0D46     		mov	r5, r1
 8821 0006 A3B0     		sub	sp, sp, #140
 8822 0008 0022     		movs	r2, #0
 8823 000a 0023     		movs	r3, #0
 8824 000c CDE90623 		strd	r2, [sp, #24]
 8825 0010 CDE90823 		strd	r2, [sp, #32]
 8826 0014 CDE90A23 		strd	r2, [sp, #40]
 8827 0018 0023     		movs	r3, #0
 8828 001a 8DF83030 		strb	r3, [sp, #48]
 8829 001e 26AA     		add	r2, sp, #152
 8830 0020 14AB     		add	r3, sp, #80
 8831              	.L1135:
ARM GAS  /tmp/ccFEREDd.s 			page 156


 8832 0022 0020     		movs	r0, #0
 8833 0024 0021     		movs	r1, #0
 8834 0026 43E90601 		strd	r0, [r3, #-24]
 8835 002a 43E90401 		strd	r0, [r3, #-16]
 8836 002e 43E90201 		strd	r0, [r3, #-8]
 8837 0032 1833     		adds	r3, r3, #24
 8838 0034 9342     		cmp	r3, r2
 8839 0036 F4D1     		bne	.L1135
 8840 0038 0123     		movs	r3, #1
 8841 003a 04F16800 		add	r0, r4, #104
 8842 003e 8DF88030 		strb	r3, [sp, #128]
 8843 0042 FFF7FEFF 		bl	_ZNK6uavcan12MethodBinderIPKNS_22TransportStatsProviderEMS1_KFvRKNS_8protocol18GetTransportStat
 8844 0046 90B1     		cbz	r0, .L1136
 8845 0048 226F     		ldr	r2, [r4, #112]
 8846 004a A06E     		ldr	r0, [r4, #104]
 8847 004c 12F0010F 		tst	r2, #1
 8848 0050 4FEA6202 		asr	r2, r2, #1
 8849 0054 18BF     		it	ne
 8850 0056 8158     		ldrne	r1, [r0, r2]
 8851 0058 E36E     		ldr	r3, [r4, #108]
 8852 005a 1044     		add	r0, r0, r2
 8853 005c 18BF     		it	ne
 8854 005e CB58     		ldrne	r3, [r1, r3]
 8855 0060 06AA     		add	r2, sp, #24
 8856 0062 2946     		mov	r1, r5
 8857 0064 9847     		blx	r3
 8858 0066 9DF88030 		ldrb	r3, [sp, #128]	@ zero_extendqisi2
 8859 006a 33B3     		cbz	r3, .L1134
 8860 006c 02E0     		b	.L1147
 8861              	.L1136:
 8862 006e 1448     		ldr	r0, .L1148
 8863 0070 FFF7FEFF 		bl	_ZN6uavcan16handleFatalErrorEPKc
 8864              	.L1147:
 8865 0074 2B68     		ldr	r3, [r5]
 8866 0076 0BB1     		cbz	r3, .L1144
 8867 0078 1B7E     		ldrb	r3, [r3, #24]	@ zero_extendqisi2
 8868 007a 00E0     		b	.L1141
 8869              	.L1144:
 8870 007c FF23     		movs	r3, #255
 8871              	.L1141:
 8872 007e 84F84C30 		strb	r3, [r4, #76]
 8873 0082 2A68     		ldr	r2, [r5]
 8874 0084 04F14000 		add	r0, r4, #64
 8875 0088 12B1     		cbz	r2, .L1145
 8876 008a D37E     		ldrb	r3, [r2, #27]	@ zero_extendqisi2
 8877 008c 927E     		ldrb	r2, [r2, #26]	@ zero_extendqisi2
 8878 008e 00E0     		b	.L1142
 8879              	.L1145:
 8880 0090 FF23     		movs	r3, #255
 8881              	.L1142:
 8882 0092 8DF80F20 		strb	r2, [sp, #15]
 8883 0096 0DF10F02 		add	r2, sp, #15
 8884 009a 0092     		str	r2, [sp]
 8885 009c 04AA     		add	r2, sp, #16
 8886 009e 0192     		str	r2, [sp, #4]
 8887 00a0 0026     		movs	r6, #0
 8888 00a2 0027     		movs	r7, #0
ARM GAS  /tmp/ccFEREDd.s 			page 157


 8889 00a4 06A9     		add	r1, sp, #24
 8890 00a6 0022     		movs	r2, #0
 8891 00a8 CDE90467 		strd	r6, [sp, #16]
 8892 00ac FFF7FEFF 		bl	_ZN6uavcan16GenericPublisherINS_8protocol18GetTransportStats_ENS2_9Response_ILi0EEEE14genericPu
 8893 00b0 0028     		cmp	r0, #0
 8894 00b2 02DA     		bge	.L1134
 8895 00b4 2046     		mov	r0, r4
 8896 00b6 FFF7FEFF 		bl	_ZN6uavcan13ServiceServerINS_8protocol18GetTransportStats_ENS_12MethodBinderIPKNS_22TransportSt
 8897              	.L1134:
 8898 00ba 23B0     		add	sp, sp, #140
 8899              		@ sp needed
 8900 00bc F0BD     		pop	{r4, r5, r6, r7, pc}
 8901              	.L1149:
 8902 00be 00BF     		.align	2
 8903              	.L1148:
 8904 00c0 25020000 		.word	.LC22
 8905              		.size	_ZN6uavcan13ServiceServerINS_8protocol18GetTransportStats_ENS_12MethodBinderIPKNS_22Transpor
 8906              		.section	.text._ZNK6uavcan12MethodBinderIPNS_19DynamicNodeIDClientEMS1_FvRKNS_21ReceivedDataStruct
 8907              		.align	1
 8908              		.weak	_ZNK6uavcan12MethodBinderIPNS_19DynamicNodeIDClientEMS1_FvRKNS_21ReceivedDataStructureINS_8p
 8909              		.thumb
 8910              		.thumb_func
 8911              		.type	_ZNK6uavcan12MethodBinderIPNS_19DynamicNodeIDClientEMS1_FvRKNS_21ReceivedDataStructureINS_8p
 8912              	_ZNK6uavcan12MethodBinderIPNS_19DynamicNodeIDClientEMS1_FvRKNS_21ReceivedDataStructureINS_8protocol
 8913              		@ args = 0, pretend = 0, frame = 0
 8914              		@ frame_needed = 0, uses_anonymous_args = 0
 8915              		@ link register save eliminated.
 8916 0000 0368     		ldr	r3, [r0]
 8917 0002 2BB1     		cbz	r3, .L1152
 8918 0004 4368     		ldr	r3, [r0, #4]
 8919 0006 2BB9     		cbnz	r3, .L1153
 8920 0008 8068     		ldr	r0, [r0, #8]
 8921 000a 00F00100 		and	r0, r0, #1
 8922 000e 7047     		bx	lr
 8923              	.L1152:
 8924 0010 1846     		mov	r0, r3
 8925 0012 7047     		bx	lr
 8926              	.L1153:
 8927 0014 0120     		movs	r0, #1
 8928 0016 7047     		bx	lr
 8929              		.size	_ZNK6uavcan12MethodBinderIPNS_19DynamicNodeIDClientEMS1_FvRKNS_21ReceivedDataStructureINS_8p
 8930              		.section	.text._ZN6uavcan10SubscriberINS_8protocol15dynamic_node_id11Allocation_ILi0EEENS_12Method
 8931              		.align	1
 8932              		.weak	_ZN6uavcan10SubscriberINS_8protocol15dynamic_node_id11Allocation_ILi0EEENS_12MethodBinderIPN
 8933              		.thumb
 8934              		.thumb_func
 8935              		.type	_ZN6uavcan10SubscriberINS_8protocol15dynamic_node_id11Allocation_ILi0EEENS_12MethodBinderIPN
 8936              	_ZN6uavcan10SubscriberINS_8protocol15dynamic_node_id11Allocation_ILi0EEENS_12MethodBinderIPNS_19Dyn
 8937              		@ args = 0, pretend = 0, frame = 0
 8938              		@ frame_needed = 0, uses_anonymous_args = 0
 8939 0000 70B5     		push	{r4, r5, r6, lr}
 8940 0002 0446     		mov	r4, r0
 8941 0004 3C30     		adds	r0, r0, #60
 8942 0006 0D46     		mov	r5, r1
 8943 0008 FFF7FEFF 		bl	_ZNK6uavcan12MethodBinderIPNS_19DynamicNodeIDClientEMS1_FvRKNS_21ReceivedDataStructureINS_8prot
 8944 000c 78B1     		cbz	r0, .L1155
 8945 000e 626C     		ldr	r2, [r4, #68]
ARM GAS  /tmp/ccFEREDd.s 			page 158


 8946 0010 E06B     		ldr	r0, [r4, #60]
 8947 0012 12F0010F 		tst	r2, #1
 8948 0016 4FEA6202 		asr	r2, r2, #1
 8949 001a 18BF     		it	ne
 8950 001c 8158     		ldrne	r1, [r0, r2]
 8951 001e 236C     		ldr	r3, [r4, #64]
 8952 0020 1044     		add	r0, r0, r2
 8953 0022 18BF     		it	ne
 8954 0024 CB58     		ldrne	r3, [r1, r3]
 8955 0026 2946     		mov	r1, r5
 8956 0028 BDE87040 		pop	{r4, r5, r6, lr}
 8957 002c 1847     		bx	r3	@ indirect register sibling call
 8958              	.L1155:
 8959 002e 0148     		ldr	r0, .L1158
 8960 0030 FFF7FEFF 		bl	_ZN6uavcan16handleFatalErrorEPKc
 8961              	.L1159:
 8962              		.align	2
 8963              	.L1158:
 8964 0034 33020000 		.word	.LC23
 8965              		.size	_ZN6uavcan10SubscriberINS_8protocol15dynamic_node_id11Allocation_ILi0EEENS_12MethodBinderIPN
 8966              		.section	.text._ZNK6uavcan12MethodBinderIPNS_18NodeStatusProviderEMS1_FvRKNS_8protocol12GetNodeInf
 8967              		.align	1
 8968              		.weak	_ZNK6uavcan12MethodBinderIPNS_18NodeStatusProviderEMS1_FvRKNS_8protocol12GetNodeInfo_8Reques
 8969              		.thumb
 8970              		.thumb_func
 8971              		.type	_ZNK6uavcan12MethodBinderIPNS_18NodeStatusProviderEMS1_FvRKNS_8protocol12GetNodeInfo_8Reques
 8972              	_ZNK6uavcan12MethodBinderIPNS_18NodeStatusProviderEMS1_FvRKNS_8protocol12GetNodeInfo_8Request_ILi0E
 8973              		@ args = 0, pretend = 0, frame = 0
 8974              		@ frame_needed = 0, uses_anonymous_args = 0
 8975              		@ link register save eliminated.
 8976 0000 0368     		ldr	r3, [r0]
 8977 0002 2BB1     		cbz	r3, .L1162
 8978 0004 4368     		ldr	r3, [r0, #4]
 8979 0006 2BB9     		cbnz	r3, .L1163
 8980 0008 8068     		ldr	r0, [r0, #8]
 8981 000a 00F00100 		and	r0, r0, #1
 8982 000e 7047     		bx	lr
 8983              	.L1162:
 8984 0010 1846     		mov	r0, r3
 8985 0012 7047     		bx	lr
 8986              	.L1163:
 8987 0014 0120     		movs	r0, #1
 8988 0016 7047     		bx	lr
 8989              		.size	_ZNK6uavcan12MethodBinderIPNS_18NodeStatusProviderEMS1_FvRKNS_8protocol12GetNodeInfo_8Reques
 8990              		.section	.text._ZN6uavcan11ScalarCodec6decodeILj8EhEEiRT0_,"axG",%progbits,_ZN6uavcan11ScalarCodec
 8991              		.align	1
 8992              		.weak	_ZN6uavcan11ScalarCodec6decodeILj8EhEEiRT0_
 8993              		.thumb
 8994              		.thumb_func
 8995              		.type	_ZN6uavcan11ScalarCodec6decodeILj8EhEEiRT0_, %function
 8996              	_ZN6uavcan11ScalarCodec6decodeILj8EhEEiRT0_:
 8997              		@ args = 0, pretend = 0, frame = 8
 8998              		@ frame_needed = 0, uses_anonymous_args = 0
 8999 0000 13B5     		push	{r0, r1, r4, lr}
 9000 0002 0023     		movs	r3, #0
 9001 0004 0C46     		mov	r4, r1
 9002 0006 02A9     		add	r1, sp, #8
ARM GAS  /tmp/ccFEREDd.s 			page 159


 9003 0008 01F8013D 		strb	r3, [r1, #-1]!
 9004 000c 0822     		movs	r2, #8
 9005 000e FFF7FEFF 		bl	_ZN6uavcan11ScalarCodec15decodeBytesImplEPhj
 9006 0012 0028     		cmp	r0, #0
 9007 0014 C4BF     		itt	gt
 9008 0016 9DF80730 		ldrbgt	r3, [sp, #7]	@ zero_extendqisi2
 9009 001a 2370     		strbgt	r3, [r4]
 9010 001c 02B0     		add	sp, sp, #8
 9011              		@ sp needed
 9012 001e 10BD     		pop	{r4, pc}
 9013              		.size	_ZN6uavcan11ScalarCodec6decodeILj8EhEEiRT0_, .-_ZN6uavcan11ScalarCodec6decodeILj8EhEEiRT0_
 9014              		.section	.text._ZN6uavcan17GenericSubscriberINS_8protocol16GetDataTypeInfo_ENS2_8Request_ILi0EEENS
 9015              		.align	1
 9016              		.weak	_ZN6uavcan17GenericSubscriberINS_8protocol16GetDataTypeInfo_ENS2_8Request_ILi0EEENS_16Transf
 9017              		.thumb
 9018              		.thumb_func
 9019              		.type	_ZN6uavcan17GenericSubscriberINS_8protocol16GetDataTypeInfo_ENS2_8Request_ILi0EEENS_16Transf
 9020              	_ZN6uavcan17GenericSubscriberINS_8protocol16GetDataTypeInfo_ENS2_8Request_ILi0EEENS_16TransferListe
 9021              		@ args = 0, pretend = 0, frame = 112
 9022              		@ frame_needed = 0, uses_anonymous_args = 0
 9023 0000 F0B5     		push	{r4, r5, r6, r7, lr}
 9024 0002 9DB0     		sub	sp, sp, #116
 9025 0004 0025     		movs	r5, #0
 9026 0006 1B91     		str	r1, [sp, #108]
 9027 0008 0291     		str	r1, [sp, #8]
 9028 000a 02AB     		add	r3, sp, #8
 9029 000c 0746     		mov	r7, r0
 9030 000e 0E46     		mov	r6, r1
 9031 0010 01A8     		add	r0, sp, #4
 9032 0012 0DF10201 		add	r1, sp, #2
 9033 0016 1022     		movs	r2, #16
 9034 0018 ADF81450 		strh	r5, [sp, #20]	@ movhi
 9035 001c 8DF81650 		strb	r5, [sp, #22]
 9036 0020 8DF81750 		strb	r5, [sp, #23]
 9037 0024 0395     		str	r5, [sp, #12]
 9038 0026 8DF81050 		strb	r5, [sp, #16]
 9039 002a 0193     		str	r3, [sp, #4]
 9040 002c ADF80250 		strh	r5, [sp, #2]	@ movhi
 9041 0030 FFF7FEFF 		bl	_ZN6uavcan11ScalarCodec15decodeBytesImplEPhj
 9042 0034 0028     		cmp	r0, #0
 9043 0036 27DD     		ble	.L1173
 9044 0038 BDF80230 		ldrh	r3, [sp, #2]
 9045 003c 01A8     		add	r0, sp, #4
 9046 003e 0DF11601 		add	r1, sp, #22
 9047 0042 ADF81430 		strh	r3, [sp, #20]	@ movhi
 9048 0046 FFF7FEFF 		bl	_ZN6uavcan11ScalarCodec6decodeILj8EhEEiRT0_
 9049 004a 041E     		subs	r4, r0, #0
 9050 004c 1DDD     		ble	.L1168
 9051 004e 8DF81750 		strb	r5, [sp, #23]
 9052              	.L1170:
 9053 0052 0023     		movs	r3, #0
 9054 0054 01A8     		add	r0, sp, #4
 9055 0056 0DF10201 		add	r1, sp, #2
 9056 005a 8DF80230 		strb	r3, [sp, #2]
 9057 005e FFF7FEFF 		bl	_ZN6uavcan11ScalarCodec6decodeILj8EhEEiRT0_
 9058 0062 041E     		subs	r4, r0, #0
 9059 0064 11DB     		blt	.L1168
ARM GAS  /tmp/ccFEREDd.s 			page 160


 9060 0066 0AD0     		beq	.L1174
 9061 0068 9DF81730 		ldrb	r3, [sp, #23]	@ zero_extendqisi2
 9062 006c 502B     		cmp	r3, #80
 9063 006e 08D0     		beq	.L1175
 9064 0070 0DF11700 		add	r0, sp, #23
 9065 0074 0DF10201 		add	r1, sp, #2
 9066 0078 FFF7FEFF 		bl	_ZN6uavcan5ArrayINS_11IntegerSpecILj8ELNS_10SignednessE0ELNS_8CastModeE0EEELNS_9ArrayModeE1ELj8
 9067 007c E9E7     		b	.L1170
 9068              	.L1174:
 9069 007e 0124     		movs	r4, #1
 9070 0080 03E0     		b	.L1168
 9071              	.L1175:
 9072 0082 6FF00504 		mvn	r4, #5
 9073 0086 00E0     		b	.L1168
 9074              	.L1173:
 9075 0088 0446     		mov	r4, r0
 9076              	.L1168:
 9077 008a 3368     		ldr	r3, [r6]
 9078 008c 3046     		mov	r0, r6
 9079 008e 1B69     		ldr	r3, [r3, #16]
 9080 0090 9847     		blx	r3
 9081 0092 012C     		cmp	r4, #1
 9082 0094 03D0     		beq	.L1171
 9083 0096 3846     		mov	r0, r7
 9084 0098 FFF7FEFF 		bl	_ZN6uavcan17GenericSubscriberINS_8protocol16GetDataTypeInfo_ENS2_8Request_ILi0EEENS_16TransferL
 9085 009c 04E0     		b	.L1166
 9086              	.L1171:
 9087 009e 3B68     		ldr	r3, [r7]
 9088 00a0 3846     		mov	r0, r7
 9089 00a2 9B68     		ldr	r3, [r3, #8]
 9090 00a4 05A9     		add	r1, sp, #20
 9091 00a6 9847     		blx	r3
 9092              	.L1166:
 9093 00a8 1DB0     		add	sp, sp, #116
 9094              		@ sp needed
 9095 00aa F0BD     		pop	{r4, r5, r6, r7, pc}
 9096              		.size	_ZN6uavcan17GenericSubscriberINS_8protocol16GetDataTypeInfo_ENS2_8Request_ILi0EEENS_16Transf
 9097              		.section	.text._ZN6uavcan17GenericSubscriberINS_8protocol16GetDataTypeInfo_ENS2_8Request_ILi0EEENS
 9098              		.align	1
 9099              		.weak	_ZN6uavcan17GenericSubscriberINS_8protocol16GetDataTypeInfo_ENS2_8Request_ILi0EEENS_16Transf
 9100              		.thumb
 9101              		.thumb_func
 9102              		.type	_ZN6uavcan17GenericSubscriberINS_8protocol16GetDataTypeInfo_ENS2_8Request_ILi0EEENS_16Transf
 9103              	_ZN6uavcan17GenericSubscriberINS_8protocol16GetDataTypeInfo_ENS2_8Request_ILi0EEENS_16TransferListe
 9104              		@ args = 0, pretend = 0, frame = 0
 9105              		@ frame_needed = 0, uses_anonymous_args = 0
 9106 0000 08B5     		push	{r3, lr}
 9107 0002 806A     		ldr	r0, [r0, #40]
 9108 0004 FFF7FEFF 		bl	_ZN6uavcan17GenericSubscriberINS_8protocol16GetDataTypeInfo_ENS2_8Request_ILi0EEENS_16TransferL
 9109 0008 08BD     		pop	{r3, pc}
 9110              		.size	_ZN6uavcan17GenericSubscriberINS_8protocol16GetDataTypeInfo_ENS2_8Request_ILi0EEENS_16Transf
 9111              		.section	.text._ZN6uavcan17GenericSubscriberINS_8protocol4file20BeginFirmwareUpdate_ENS3_8Request_
 9112              		.align	1
 9113              		.weak	_ZN6uavcan17GenericSubscriberINS_8protocol4file20BeginFirmwareUpdate_ENS3_8Request_ILi0EEENS
 9114              		.thumb
 9115              		.thumb_func
 9116              		.type	_ZN6uavcan17GenericSubscriberINS_8protocol4file20BeginFirmwareUpdate_ENS3_8Request_ILi0EEENS
ARM GAS  /tmp/ccFEREDd.s 			page 161


 9117              	_ZN6uavcan17GenericSubscriberINS_8protocol4file20BeginFirmwareUpdate_ENS3_8Request_ILi0EEENS_16Tran
 9118              		@ args = 0, pretend = 0, frame = 232
 9119              		@ frame_needed = 0, uses_anonymous_args = 0
 9120 0000 2DE9F041 		push	{r4, r5, r6, r7, r8, lr}
 9121 0004 BAB0     		sub	sp, sp, #232
 9122 0006 0DF1E808 		add	r8, sp, #232
 9123 000a 03AB     		add	r3, sp, #12
 9124 000c 48F8E03D 		str	r3, [r8, #-224]!
 9125 0010 0024     		movs	r4, #0
 9126 0012 3991     		str	r1, [sp, #228]
 9127 0014 0391     		str	r1, [sp, #12]
 9128 0016 0646     		mov	r6, r0
 9129 0018 0F46     		mov	r7, r1
 9130 001a 4046     		mov	r0, r8
 9131 001c 06A9     		add	r1, sp, #24
 9132 001e 8DF81840 		strb	r4, [sp, #24]
 9133 0022 8DF81940 		strb	r4, [sp, #25]
 9134 0026 0494     		str	r4, [sp, #16]
 9135 0028 8DF81440 		strb	r4, [sp, #20]
 9136 002c FFF7FEFF 		bl	_ZN6uavcan11ScalarCodec6decodeILj8EhEEiRT0_
 9137 0030 051E     		subs	r5, r0, #0
 9138 0032 28DD     		ble	.L1178
 9139 0034 8DF81940 		strb	r4, [sp, #25]
 9140              	.L1182:
 9141 0038 3AA9     		add	r1, sp, #232
 9142 003a 0023     		movs	r3, #0
 9143 003c 01F8E13D 		strb	r3, [r1, #-225]!
 9144 0040 4046     		mov	r0, r8
 9145 0042 FFF7FEFF 		bl	_ZN6uavcan11ScalarCodec6decodeILj8EhEEiRT0_
 9146 0046 051E     		subs	r5, r0, #0
 9147 0048 1DDB     		blt	.L1178
 9148 004a 18D0     		beq	.L1185
 9149 004c 9DF81930 		ldrb	r3, [sp, #25]	@ zero_extendqisi2
 9150 0050 C82B     		cmp	r3, #200
 9151 0052 16D0     		beq	.L1186
 9152 0054 C72B     		cmp	r3, #199
 9153 0056 9CBF     		itt	ls
 9154 0058 0133     		addls	r3, r3, #1
 9155 005a 8DF81930 		strbls	r3, [sp, #25]
 9156 005e 9DF81920 		ldrb	r2, [sp, #25]	@ zero_extendqisi2
 9157 0062 531E     		subs	r3, r2, #1
 9158 0064 DBB2     		uxtb	r3, r3
 9159 0066 9342     		cmp	r3, r2
 9160 0068 02D3     		bcc	.L1181
 9161 006a 002A     		cmp	r2, #0
 9162 006c 08BF     		it	eq
 9163 006e 0023     		moveq	r3, #0
 9164              	.L1181:
 9165 0070 3AAA     		add	r2, sp, #232
 9166 0072 1344     		add	r3, r3, r2
 9167 0074 9DF80720 		ldrb	r2, [sp, #7]	@ zero_extendqisi2
 9168 0078 03F8CE2C 		strb	r2, [r3, #-206]
 9169 007c DCE7     		b	.L1182
 9170              	.L1185:
 9171 007e 0125     		movs	r5, #1
 9172 0080 01E0     		b	.L1178
 9173              	.L1186:
ARM GAS  /tmp/ccFEREDd.s 			page 162


 9174 0082 6FF00505 		mvn	r5, #5
 9175              	.L1178:
 9176 0086 3B68     		ldr	r3, [r7]
 9177 0088 3846     		mov	r0, r7
 9178 008a 1B69     		ldr	r3, [r3, #16]
 9179 008c 9847     		blx	r3
 9180 008e 012D     		cmp	r5, #1
 9181 0090 03D0     		beq	.L1183
 9182 0092 3046     		mov	r0, r6
 9183 0094 FFF7FEFF 		bl	_ZN6uavcan17GenericSubscriberINS_8protocol4file20BeginFirmwareUpdate_ENS3_8Request_ILi0EEENS_16
 9184 0098 04E0     		b	.L1177
 9185              	.L1183:
 9186 009a 3368     		ldr	r3, [r6]
 9187 009c 3046     		mov	r0, r6
 9188 009e 9B68     		ldr	r3, [r3, #8]
 9189 00a0 06A9     		add	r1, sp, #24
 9190 00a2 9847     		blx	r3
 9191              	.L1177:
 9192 00a4 3AB0     		add	sp, sp, #232
 9193              		@ sp needed
 9194 00a6 BDE8F081 		pop	{r4, r5, r6, r7, r8, pc}
 9195              		.size	_ZN6uavcan17GenericSubscriberINS_8protocol4file20BeginFirmwareUpdate_ENS3_8Request_ILi0EEENS
 9196              		.section	.text._ZN6uavcan17GenericSubscriberINS_8protocol4file20BeginFirmwareUpdate_ENS3_8Request_
 9197              		.align	1
 9198              		.weak	_ZN6uavcan17GenericSubscriberINS_8protocol4file20BeginFirmwareUpdate_ENS3_8Request_ILi0EEENS
 9199              		.thumb
 9200              		.thumb_func
 9201              		.type	_ZN6uavcan17GenericSubscriberINS_8protocol4file20BeginFirmwareUpdate_ENS3_8Request_ILi0EEENS
 9202              	_ZN6uavcan17GenericSubscriberINS_8protocol4file20BeginFirmwareUpdate_ENS3_8Request_ILi0EEENS_16Tran
 9203              		@ args = 0, pretend = 0, frame = 0
 9204              		@ frame_needed = 0, uses_anonymous_args = 0
 9205 0000 08B5     		push	{r3, lr}
 9206 0002 806A     		ldr	r0, [r0, #40]
 9207 0004 FFF7FEFF 		bl	_ZN6uavcan17GenericSubscriberINS_8protocol4file20BeginFirmwareUpdate_ENS3_8Request_ILi0EEENS_16
 9208 0008 08BD     		pop	{r3, pc}
 9209              		.size	_ZN6uavcan17GenericSubscriberINS_8protocol4file20BeginFirmwareUpdate_ENS3_8Request_ILi0EEENS
 9210              		.section	.text._ZN6uavcan17GenericSubscriberINS_8protocol5param7GetSet_ENS3_8Request_ILi0EEENS_16T
 9211              		.align	1
 9212              		.weak	_ZN6uavcan17GenericSubscriberINS_8protocol5param7GetSet_ENS3_8Request_ILi0EEENS_16TransferLi
 9213              		.thumb
 9214              		.thumb_func
 9215              		.type	_ZN6uavcan17GenericSubscriberINS_8protocol5param7GetSet_ENS3_8Request_ILi0EEENS_16TransferLi
 9216              	_ZN6uavcan17GenericSubscriberINS_8protocol5param7GetSet_ENS3_8Request_ILi0EEENS_16TransferListenerE
 9217              		@ args = 0, pretend = 0, frame = 296
 9218              		@ frame_needed = 0, uses_anonymous_args = 0
 9219 0000 2DE9F041 		push	{r4, r5, r6, r7, r8, lr}
 9220 0004 0023     		movs	r3, #0
 9221 0006 CAB0     		sub	sp, sp, #296
 9222 0008 0024     		movs	r4, #0
 9223 000a 0E93     		str	r3, [sp, #56]	@ float
 9224 000c 4891     		str	r1, [sp, #288]
 9225 000e 05AB     		add	r3, sp, #20
 9226 0010 0591     		str	r1, [sp, #20]
 9227 0012 8046     		mov	r8, r0
 9228 0014 0D46     		mov	r5, r1
 9229 0016 0026     		movs	r6, #0
 9230 0018 0027     		movs	r7, #0
ARM GAS  /tmp/ccFEREDd.s 			page 163


 9231 001a 01A8     		add	r0, sp, #4
 9232 001c 02A9     		add	r1, sp, #8
 9233 001e 0D22     		movs	r2, #13
 9234 0020 ADF82040 		strh	r4, [sp, #32]	@ movhi
 9235 0024 CDE90C67 		strd	r6, [sp, #48]
 9236 0028 8DF83C40 		strb	r4, [sp, #60]
 9237 002c 8DF83D40 		strb	r4, [sp, #61]
 9238 0030 8DF8BF40 		strb	r4, [sp, #191]
 9239 0034 8DF8C040 		strb	r4, [sp, #192]
 9240 0038 0694     		str	r4, [sp, #24]
 9241 003a 8DF81C40 		strb	r4, [sp, #28]
 9242 003e 0193     		str	r3, [sp, #4]
 9243 0040 ADF80840 		strh	r4, [sp, #8]	@ movhi
 9244 0044 FFF7FEFF 		bl	_ZN6uavcan11ScalarCodec15decodeBytesImplEPhj
 9245 0048 0028     		cmp	r0, #0
 9246 004a 40F3AD80 		ble	.L1220
 9247 004e BDF80830 		ldrh	r3, [sp, #8]
 9248 0052 01A8     		add	r0, sp, #4
 9249 0054 02A9     		add	r1, sp, #8
 9250 0056 0322     		movs	r2, #3
 9251 0058 ADF82030 		strh	r3, [sp, #32]	@ movhi
 9252 005c 8DF80840 		strb	r4, [sp, #8]
 9253 0060 FFF7FEFF 		bl	_ZN6uavcan11ScalarCodec15decodeBytesImplEPhj
 9254 0064 0028     		cmp	r0, #0
 9255 0066 40F39F80 		ble	.L1220
 9256 006a 9DF80830 		ldrb	r3, [sp, #8]	@ zero_extendqisi2
 9257 006e 8DF8BF30 		strb	r3, [sp, #191]
 9258 0072 002B     		cmp	r3, #0
 9259 0074 7DD0     		beq	.L1219
 9260 0076 012B     		cmp	r3, #1
 9261 0078 0DD1     		bne	.L1195
 9262 007a 01A8     		add	r0, sp, #4
 9263 007c 02A9     		add	r1, sp, #8
 9264 007e 4022     		movs	r2, #64
 9265 0080 CDE90267 		strd	r6, [sp, #8]
 9266 0084 FFF7FEFF 		bl	_ZN6uavcan11ScalarCodec15decodeBytesImplEPhj
 9267 0088 0028     		cmp	r0, #0
 9268 008a 19DD     		ble	.L1243
 9269 008c DDE90223 		ldrd	r2, [sp, #8]
 9270 0090 CDE90C23 		strd	r2, [sp, #48]
 9271 0094 14E0     		b	.L1243
 9272              	.L1195:
 9273 0096 022B     		cmp	r3, #2
 9274 0098 0CD1     		bne	.L1198
 9275 009a 01A8     		add	r0, sp, #4
 9276 009c 02A9     		add	r1, sp, #8
 9277 009e 2022     		movs	r2, #32
 9278 00a0 0294     		str	r4, [sp, #8]
 9279 00a2 FFF7FEFF 		bl	_ZN6uavcan11ScalarCodec15decodeBytesImplEPhj
 9280 00a6 0028     		cmp	r0, #0
 9281 00a8 C8BF     		it	gt
 9282 00aa 029C     		ldrgt	r4, [sp, #8]
 9283 00ac 0028     		cmp	r0, #0
 9284 00ae 7BDD     		ble	.L1220
 9285 00b0 0E94     		str	r4, [sp, #56]	@ float
 9286 00b2 5EE0     		b	.L1219
 9287              	.L1198:
ARM GAS  /tmp/ccFEREDd.s 			page 164


 9288 00b4 032B     		cmp	r3, #3
 9289 00b6 07D1     		bne	.L1200
 9290 00b8 01A8     		add	r0, sp, #4
 9291 00ba 0FA9     		add	r1, sp, #60
 9292 00bc FFF7FEFF 		bl	_ZN6uavcan11ScalarCodec6decodeILj8EhEEiRT0_
 9293              	.L1243:
 9294 00c0 0028     		cmp	r0, #0
 9295 00c2 0446     		mov	r4, r0
 9296 00c4 55DC     		bgt	.L1219
 9297 00c6 70E0     		b	.L1191
 9298              	.L1200:
 9299 00c8 042B     		cmp	r3, #4
 9300 00ca 7FD1     		bne	.L1224
 9301 00cc 01A8     		add	r0, sp, #4
 9302 00ce 0DF10301 		add	r1, sp, #3
 9303 00d2 8DF83D40 		strb	r4, [sp, #61]
 9304 00d6 8DF80340 		strb	r4, [sp, #3]
 9305 00da FFF7FEFF 		bl	_ZN6uavcan11ScalarCodec6decodeILj8EhEEiRT0_
 9306 00de 041E     		subs	r4, r0, #0
 9307 00e0 63DD     		ble	.L1191
 9308 00e2 9DF80310 		ldrb	r1, [sp, #3]	@ zero_extendqisi2
 9309 00e6 8029     		cmp	r1, #128
 9310 00e8 5BD8     		bhi	.L1228
 9311 00ea 9DF83D30 		ldrb	r3, [sp, #61]	@ zero_extendqisi2
 9312 00ee 9942     		cmp	r1, r3
 9313 00f0 10D9     		bls	.L1202
 9314 00f2 CA1A     		subs	r2, r1, r3
 9315 00f4 D2B2     		uxtb	r2, r2
 9316              	.L1203:
 9317 00f6 013A     		subs	r2, r2, #1
 9318 00f8 D2B2     		uxtb	r2, r2
 9319 00fa FF2A     		cmp	r2, #255
 9320 00fc 11D0     		beq	.L1242
 9321 00fe 1806     		lsls	r0, r3, #24
 9322 0100 5CBF     		itt	pl
 9323 0102 0133     		addpl	r3, r3, #1
 9324 0104 DBB2     		uxtbpl	r3, r3
 9325 0106 581E     		subs	r0, r3, #1
 9326 0108 08AC     		add	r4, sp, #32
 9327 010a C0B2     		uxtb	r0, r0
 9328 010c 2044     		add	r0, r0, r4
 9329 010e 0024     		movs	r4, #0
 9330 0110 8477     		strb	r4, [r0, #30]
 9331 0112 F0E7     		b	.L1203
 9332              	.L1202:
 9333 0114 07D2     		bcs	.L1208
 9334 0116 5A1A     		subs	r2, r3, r1
 9335 0118 D2B2     		uxtb	r2, r2
 9336              	.L1209:
 9337 011a 013A     		subs	r2, r2, #1
 9338 011c D2B2     		uxtb	r2, r2
 9339 011e FF2A     		cmp	r2, #255
 9340 0120 04D1     		bne	.L1211
 9341              	.L1242:
 9342 0122 8DF83D30 		strb	r3, [sp, #61]
 9343              	.L1208:
 9344 0126 21B3     		cbz	r1, .L1219
ARM GAS  /tmp/ccFEREDd.s 			page 165


 9345 0128 0027     		movs	r7, #0
 9346 012a 1AE0     		b	.L1207
 9347              	.L1211:
 9348 012c 002B     		cmp	r3, #0
 9349 012e F4D0     		beq	.L1209
 9350 0130 013B     		subs	r3, r3, #1
 9351 0132 DBB2     		uxtb	r3, r3
 9352 0134 F1E7     		b	.L1209
 9353              	.L1214:
 9354 0136 0023     		movs	r3, #0
 9355 0138 01A8     		add	r0, sp, #4
 9356 013a 02A9     		add	r1, sp, #8
 9357 013c 8DF80830 		strb	r3, [sp, #8]
 9358 0140 FFF7FEFF 		bl	_ZN6uavcan11ScalarCodec6decodeILj8EhEEiRT0_
 9359 0144 041E     		subs	r4, r0, #0
 9360 0146 30DD     		ble	.L1191
 9361 0148 9DF83D30 		ldrb	r3, [sp, #61]	@ zero_extendqisi2
 9362 014c 9E42     		cmp	r6, r3
 9363 014e 0ED3     		bcc	.L1226
 9364 0150 0BB1     		cbz	r3, .L1233
 9365 0152 013B     		subs	r3, r3, #1
 9366 0154 DBB2     		uxtb	r3, r3
 9367              	.L1233:
 9368 0156 08AA     		add	r2, sp, #32
 9369 0158 1344     		add	r3, r3, r2
 9370 015a 9DF80820 		ldrb	r2, [sp, #8]	@ zero_extendqisi2
 9371 015e 0137     		adds	r7, r7, #1
 9372 0160 9A77     		strb	r2, [r3, #30]
 9373              	.L1207:
 9374 0162 9DF83D30 		ldrb	r3, [sp, #61]	@ zero_extendqisi2
 9375 0166 FEB2     		uxtb	r6, r7
 9376 0168 B342     		cmp	r3, r6
 9377 016a E4D8     		bhi	.L1214
 9378 016c 01E0     		b	.L1219
 9379              	.L1226:
 9380 016e 3346     		mov	r3, r6
 9381 0170 F1E7     		b	.L1233
 9382              	.L1219:
 9383 0172 0023     		movs	r3, #0
 9384 0174 8DF8C030 		strb	r3, [sp, #192]
 9385              	.L1216:
 9386 0178 0023     		movs	r3, #0
 9387 017a 01A8     		add	r0, sp, #4
 9388 017c 02A9     		add	r1, sp, #8
 9389 017e 8DF80830 		strb	r3, [sp, #8]
 9390 0182 FFF7FEFF 		bl	_ZN6uavcan11ScalarCodec6decodeILj8EhEEiRT0_
 9391 0186 041E     		subs	r4, r0, #0
 9392 0188 0FDB     		blt	.L1191
 9393 018a 08D0     		beq	.L1227
 9394 018c 9DF8C030 		ldrb	r3, [sp, #192]	@ zero_extendqisi2
 9395 0190 5C2B     		cmp	r3, #92
 9396 0192 06D0     		beq	.L1228
 9397 0194 30A8     		add	r0, sp, #192
 9398 0196 02A9     		add	r1, sp, #8
 9399 0198 FFF7FEFF 		bl	_ZN6uavcan5ArrayINS_11IntegerSpecILj8ELNS_10SignednessE0ELNS_8CastModeE0EEELNS_9ArrayModeE1ELj9
 9400 019c ECE7     		b	.L1216
 9401              	.L1227:
ARM GAS  /tmp/ccFEREDd.s 			page 166


 9402 019e 0124     		movs	r4, #1
 9403 01a0 03E0     		b	.L1191
 9404              	.L1228:
 9405 01a2 6FF00504 		mvn	r4, #5
 9406 01a6 00E0     		b	.L1191
 9407              	.L1220:
 9408 01a8 0446     		mov	r4, r0
 9409              	.L1191:
 9410 01aa 2B68     		ldr	r3, [r5]
 9411 01ac 2846     		mov	r0, r5
 9412 01ae 1B69     		ldr	r3, [r3, #16]
 9413 01b0 9847     		blx	r3
 9414 01b2 012C     		cmp	r4, #1
 9415 01b4 03D0     		beq	.L1217
 9416 01b6 4046     		mov	r0, r8
 9417 01b8 FFF7FEFF 		bl	_ZN6uavcan17GenericSubscriberINS_8protocol5param7GetSet_ENS3_8Request_ILi0EEENS_16TransferListe
 9418 01bc 09E0     		b	.L1189
 9419              	.L1217:
 9420 01be D8F80030 		ldr	r3, [r8]
 9421 01c2 4046     		mov	r0, r8
 9422 01c4 9B68     		ldr	r3, [r3, #8]
 9423 01c6 08A9     		add	r1, sp, #32
 9424 01c8 9847     		blx	r3
 9425 01ca 02E0     		b	.L1189
 9426              	.L1224:
 9427 01cc 4FF0FF34 		mov	r4, #-1
 9428 01d0 EBE7     		b	.L1191
 9429              	.L1189:
 9430 01d2 4AB0     		add	sp, sp, #296
 9431              		@ sp needed
 9432 01d4 BDE8F081 		pop	{r4, r5, r6, r7, r8, pc}
 9433              		.size	_ZN6uavcan17GenericSubscriberINS_8protocol5param7GetSet_ENS3_8Request_ILi0EEENS_16TransferLi
 9434              		.section	.text._ZN6uavcan17GenericSubscriberINS_8protocol5param7GetSet_ENS3_8Request_ILi0EEENS_16T
 9435              		.align	1
 9436              		.weak	_ZN6uavcan17GenericSubscriberINS_8protocol5param7GetSet_ENS3_8Request_ILi0EEENS_16TransferLi
 9437              		.thumb
 9438              		.thumb_func
 9439              		.type	_ZN6uavcan17GenericSubscriberINS_8protocol5param7GetSet_ENS3_8Request_ILi0EEENS_16TransferLi
 9440              	_ZN6uavcan17GenericSubscriberINS_8protocol5param7GetSet_ENS3_8Request_ILi0EEENS_16TransferListenerE
 9441              		@ args = 0, pretend = 0, frame = 0
 9442              		@ frame_needed = 0, uses_anonymous_args = 0
 9443 0000 08B5     		push	{r3, lr}
 9444 0002 806A     		ldr	r0, [r0, #40]
 9445 0004 FFF7FEFF 		bl	_ZN6uavcan17GenericSubscriberINS_8protocol5param7GetSet_ENS3_8Request_ILi0EEENS_16TransferListe
 9446 0008 08BD     		pop	{r3, pc}
 9447              		.size	_ZN6uavcan17GenericSubscriberINS_8protocol5param7GetSet_ENS3_8Request_ILi0EEENS_16TransferLi
 9448              		.section	.text._ZN6uavcan17GenericSubscriberINS_8protocol5param14ExecuteOpcode_ENS3_8Request_ILi0E
 9449              		.align	1
 9450              		.weak	_ZN6uavcan17GenericSubscriberINS_8protocol5param14ExecuteOpcode_ENS3_8Request_ILi0EEENS_16Tr
 9451              		.thumb
 9452              		.thumb_func
 9453              		.type	_ZN6uavcan17GenericSubscriberINS_8protocol5param14ExecuteOpcode_ENS3_8Request_ILi0EEENS_16Tr
 9454              	_ZN6uavcan17GenericSubscriberINS_8protocol5param14ExecuteOpcode_ENS3_8Request_ILi0EEENS_16TransferL
 9455              		@ args = 0, pretend = 0, frame = 56
 9456              		@ frame_needed = 0, uses_anonymous_args = 0
 9457 0000 2DE9F043 		push	{r4, r5, r6, r7, r8, r9, lr}
 9458 0004 0023     		movs	r3, #0
ARM GAS  /tmp/ccFEREDd.s 			page 167


 9459 0006 8FB0     		sub	sp, sp, #60
 9460 0008 8DF82030 		strb	r3, [sp, #32]
 9461 000c 0693     		str	r3, [sp, #24]
 9462 000e 8DF81C30 		strb	r3, [sp, #28]
 9463 0012 0EAF     		add	r7, sp, #56
 9464 0014 05AB     		add	r3, sp, #20
 9465 0016 47F8343D 		str	r3, [r7, #-52]!
 9466 001a 0C91     		str	r1, [sp, #48]
 9467 001c 0591     		str	r1, [sp, #20]
 9468 001e 0446     		mov	r4, r0
 9469 0020 0E46     		mov	r6, r1
 9470 0022 4FF00008 		mov	r8, #0
 9471 0026 4FF00009 		mov	r9, #0
 9472 002a 3846     		mov	r0, r7
 9473 002c 08A9     		add	r1, sp, #32
 9474 002e CDE90A89 		strd	r8, [sp, #40]
 9475 0032 FFF7FEFF 		bl	_ZN6uavcan11ScalarCodec6decodeILj8EhEEiRT0_
 9476 0036 051E     		subs	r5, r0, #0
 9477 0038 19DD     		ble	.L1246
 9478 003a 0EA9     		add	r1, sp, #56
 9479 003c 61E90C89 		strd	r8, [r1, #-48]!
 9480 0040 3846     		mov	r0, r7
 9481 0042 3022     		movs	r2, #48
 9482 0044 FFF7FEFF 		bl	_ZN6uavcan11ScalarCodec15decodeBytesImplEPhj
 9483 0048 051E     		subs	r5, r0, #0
 9484 004a 10DD     		ble	.L1246
 9485 004c DDE90223 		ldrd	r2, [sp, #8]
 9486 0050 0020     		movs	r0, #0
 9487 0052 03F40041 		and	r1, r3, #32768
 9488 0056 0143     		orrs	r1, r0, r1
 9489 0058 05D0     		beq	.L1248
 9490 005a 1149     		ldr	r1, .L1254
 9491 005c 0020     		movs	r0, #0
 9492 005e 0243     		orrs	r2, r2, r0
 9493 0060 0B43     		orrs	r3, r3, r1
 9494 0062 CDE90223 		strd	r2, [sp, #8]
 9495              	.L1248:
 9496 0066 DDE90223 		ldrd	r2, [sp, #8]
 9497 006a CDE90A23 		strd	r2, [sp, #40]
 9498              	.L1246:
 9499 006e 3368     		ldr	r3, [r6]
 9500 0070 3046     		mov	r0, r6
 9501 0072 1B69     		ldr	r3, [r3, #16]
 9502 0074 9847     		blx	r3
 9503 0076 002D     		cmp	r5, #0
 9504 0078 09DC     		bgt	.L1249
 9505 007a A368     		ldr	r3, [r4, #8]
 9506 007c 6068     		ldr	r0, [r4, #4]
 9507 007e 0133     		adds	r3, r3, #1
 9508 0080 A360     		str	r3, [r4, #8]
 9509 0082 FFF7FEFF 		bl	_ZN6uavcan5INode13getDispatcherEv
 9510 0086 C030     		adds	r0, r0, #192
 9511 0088 FFF7FEFF 		bl	_ZN6uavcan19TransferPerfCounter8addErrorEv.isra.6
 9512 008c 04E0     		b	.L1245
 9513              	.L1249:
 9514 008e 2368     		ldr	r3, [r4]
 9515 0090 2046     		mov	r0, r4
ARM GAS  /tmp/ccFEREDd.s 			page 168


 9516 0092 9B68     		ldr	r3, [r3, #8]
 9517 0094 08A9     		add	r1, sp, #32
 9518 0096 9847     		blx	r3
 9519              	.L1245:
 9520 0098 0FB0     		add	sp, sp, #60
 9521              		@ sp needed
 9522 009a BDE8F083 		pop	{r4, r5, r6, r7, r8, r9, pc}
 9523              	.L1255:
 9524 009e 00BF     		.align	2
 9525              	.L1254:
 9526 00a0 0000FFFF 		.word	-65536
 9527              		.size	_ZN6uavcan17GenericSubscriberINS_8protocol5param14ExecuteOpcode_ENS3_8Request_ILi0EEENS_16Tr
 9528              		.section	.text._ZN6uavcan17GenericSubscriberINS_8protocol5param14ExecuteOpcode_ENS3_8Request_ILi0E
 9529              		.align	1
 9530              		.weak	_ZN6uavcan17GenericSubscriberINS_8protocol5param14ExecuteOpcode_ENS3_8Request_ILi0EEENS_16Tr
 9531              		.thumb
 9532              		.thumb_func
 9533              		.type	_ZN6uavcan17GenericSubscriberINS_8protocol5param14ExecuteOpcode_ENS3_8Request_ILi0EEENS_16Tr
 9534              	_ZN6uavcan17GenericSubscriberINS_8protocol5param14ExecuteOpcode_ENS3_8Request_ILi0EEENS_16TransferL
 9535              		@ args = 0, pretend = 0, frame = 0
 9536              		@ frame_needed = 0, uses_anonymous_args = 0
 9537 0000 08B5     		push	{r3, lr}
 9538 0002 806A     		ldr	r0, [r0, #40]
 9539 0004 FFF7FEFF 		bl	_ZN6uavcan17GenericSubscriberINS_8protocol5param14ExecuteOpcode_ENS3_8Request_ILi0EEENS_16Trans
 9540 0008 08BD     		pop	{r3, pc}
 9541              		.size	_ZN6uavcan17GenericSubscriberINS_8protocol5param14ExecuteOpcode_ENS3_8Request_ILi0EEENS_16Tr
 9542              		.section	.text._ZN6uavcan8protocol16GetDataTypeInfo_9Response_ILi0EE6encodeERKS3_RNS_11ScalarCodec
 9543              		.align	1
 9544              		.weak	_ZN6uavcan8protocol16GetDataTypeInfo_9Response_ILi0EE6encodeERKS3_RNS_11ScalarCodecENS_25Tai
 9545              		.thumb
 9546              		.thumb_func
 9547              		.type	_ZN6uavcan8protocol16GetDataTypeInfo_9Response_ILi0EE6encodeERKS3_RNS_11ScalarCodecENS_25Tai
 9548              	_ZN6uavcan8protocol16GetDataTypeInfo_9Response_ILi0EE6encodeERKS3_RNS_11ScalarCodecENS_25TailArrayO
 9549              		@ args = 0, pretend = 0, frame = 8
 9550              		@ frame_needed = 0, uses_anonymous_args = 0
 9551 0000 F7B5     		push	{r0, r1, r2, r4, r5, r6, r7, lr}
 9552 0002 02AE     		add	r6, sp, #8
 9553 0004 1746     		mov	r7, r2
 9554 0006 D0E90023 		ldrd	r2, [r0]
 9555 000a 66E90223 		strd	r2, [r6, #-8]!
 9556 000e 0546     		mov	r5, r0
 9557 0010 0C46     		mov	r4, r1
 9558 0012 0846     		mov	r0, r1
 9559 0014 4022     		movs	r2, #64
 9560 0016 3146     		mov	r1, r6
 9561 0018 FFF7FEFF 		bl	_ZN6uavcan11ScalarCodec15encodeBytesImplEPhj
 9562 001c 0028     		cmp	r0, #0
 9563 001e 1BDD     		ble	.L1258
 9564 0020 2B89     		ldrh	r3, [r5, #8]
 9565 0022 2046     		mov	r0, r4
 9566 0024 3146     		mov	r1, r6
 9567 0026 1022     		movs	r2, #16
 9568 0028 ADF80030 		strh	r3, [sp]	@ movhi
 9569 002c FFF7FEFF 		bl	_ZN6uavcan11ScalarCodec15encodeBytesImplEPhj
 9570 0030 0028     		cmp	r0, #0
 9571 0032 11DD     		ble	.L1258
 9572 0034 A87A     		ldrb	r0, [r5, #10]	@ zero_extendqisi2
ARM GAS  /tmp/ccFEREDd.s 			page 169


 9573 0036 2146     		mov	r1, r4
 9574 0038 FFF7FEFF 		bl	_ZN6uavcan11IntegerSpecILj8ELNS_10SignednessE0ELNS_8CastModeE0EE6encodeEhRNS_11ScalarCodecENS_2
 9575 003c 0028     		cmp	r0, #0
 9576 003e 0BDD     		ble	.L1258
 9577 0040 E87A     		ldrb	r0, [r5, #11]	@ zero_extendqisi2
 9578 0042 2146     		mov	r1, r4
 9579 0044 FFF7FEFF 		bl	_ZN6uavcan11IntegerSpecILj8ELNS_10SignednessE0ELNS_8CastModeE0EE6encodeEhRNS_11ScalarCodecENS_2
 9580 0048 0028     		cmp	r0, #0
 9581 004a 05DD     		ble	.L1258
 9582 004c 05F10C00 		add	r0, r5, #12
 9583 0050 2146     		mov	r1, r4
 9584 0052 3A46     		mov	r2, r7
 9585 0054 FFF7FEFF 		bl	_ZNK6uavcan5ArrayINS_11IntegerSpecILj8ELNS_10SignednessE0ELNS_8CastModeE0EEELNS_9ArrayModeE1ELj
 9586              	.L1258:
 9587 0058 03B0     		add	sp, sp, #12
 9588              		@ sp needed
 9589 005a F0BD     		pop	{r4, r5, r6, r7, pc}
 9590              		.size	_ZN6uavcan8protocol16GetDataTypeInfo_9Response_ILi0EE6encodeERKS3_RNS_11ScalarCodecENS_25Tai
 9591              		.section	.text._ZN6uavcan16GenericPublisherINS_8protocol16GetDataTypeInfo_ENS2_9Response_ILi0EEEE1
 9592              		.align	1
 9593              		.weak	_ZN6uavcan16GenericPublisherINS_8protocol16GetDataTypeInfo_ENS2_9Response_ILi0EEEE14genericP
 9594              		.thumb
 9595              		.thumb_func
 9596              		.type	_ZN6uavcan16GenericPublisherINS_8protocol16GetDataTypeInfo_ENS2_9Response_ILi0EEEE14genericP
 9597              	_ZN6uavcan16GenericPublisherINS_8protocol16GetDataTypeInfo_ENS2_9Response_ILi0EEEE14genericPublishE
 9598              		@ args = 8, pretend = 0, frame = 128
 9599              		@ frame_needed = 0, uses_anonymous_args = 0
 9600 0000 2DE9F045 		push	{r4, r5, r6, r7, r8, r10, lr}
 9601 0004 A3B0     		sub	sp, sp, #140
 9602 0006 8046     		mov	r8, r0
 9603 0008 8A46     		mov	r10, r1
 9604 000a 1746     		mov	r7, r2
 9605 000c 1E46     		mov	r6, r3
 9606 000e FFF7FEFF 		bl	_ZN6uavcan16GenericPublisherINS_8protocol16GetDataTypeInfo_ENS2_9Response_ILi0EEEE9checkInitEv
 9607 0012 0028     		cmp	r0, #0
 9608 0014 29DB     		blt	.L1262
 9609 0016 0AAB     		add	r3, sp, #40
 9610 0018 154A     		ldr	r2, .L1267
 9611 001a 0893     		str	r3, [sp, #32]
 9612 001c 22A9     		add	r1, sp, #136
 9613 001e 5D23     		movs	r3, #93
 9614 0020 04AC     		add	r4, sp, #16
 9615 0022 ADF82430 		strh	r3, [sp, #36]	@ movhi
 9616 0026 0792     		str	r2, [sp, #28]
 9617 0028 0023     		movs	r3, #0
 9618 002a 07AD     		add	r5, sp, #28
 9619 002c 41F87C4D 		str	r4, [r1, #-124]!
 9620 0030 5046     		mov	r0, r10
 9621 0032 0122     		movs	r2, #1
 9622 0034 ADF82630 		strh	r3, [sp, #38]	@ movhi
 9623 0038 0495     		str	r5, [sp, #16]
 9624 003a 0593     		str	r3, [sp, #20]
 9625 003c 8DF81830 		strb	r3, [sp, #24]
 9626 0040 FFF7FEFF 		bl	_ZN6uavcan8protocol16GetDataTypeInfo_9Response_ILi0EE6encodeERKS3_RNS_11ScalarCodecENS_25TailAr
 9627 0044 0028     		cmp	r0, #0
 9628 0046 0EDD     		ble	.L1266
 9629 0048 2B9B     		ldr	r3, [sp, #172]
ARM GAS  /tmp/ccFEREDd.s 			page 170


 9630 004a 3A46     		mov	r2, r7
 9631 004c 93E80300 		ldmia	r3, {r0, r1}
 9632 0050 2A9B     		ldr	r3, [sp, #168]
 9633 0052 84E80300 		stmia	r4, {r0, r1}
 9634 0056 8DE81800 		stmia	sp, {r3, r4}
 9635 005a 4046     		mov	r0, r8
 9636 005c 2946     		mov	r1, r5
 9637 005e 3346     		mov	r3, r6
 9638 0060 FFF7FEFF 		bl	_ZN6uavcan20GenericPublisherBase14genericPublishERKNS_24StaticTransferBufferImplENS_12TransferT
 9639 0064 01E0     		b	.L1262
 9640              	.L1266:
 9641 0066 6FF00500 		mvn	r0, #5
 9642              	.L1262:
 9643 006a 23B0     		add	sp, sp, #140
 9644              		@ sp needed
 9645 006c BDE8F085 		pop	{r4, r5, r6, r7, r8, r10, pc}
 9646              	.L1268:
 9647              		.align	2
 9648              	.L1267:
 9649 0070 08000000 		.word	_ZTVN6uavcan20StaticTransferBufferILt93EEE+8
 9650              		.size	_ZN6uavcan16GenericPublisherINS_8protocol16GetDataTypeInfo_ENS2_9Response_ILi0EEEE14genericP
 9651              		.section	.text._ZN6uavcan13ServiceServerINS_8protocol16GetDataTypeInfo_ENS_12MethodBinderIPNS_20Da
 9652              		.align	1
 9653              		.weak	_ZN6uavcan13ServiceServerINS_8protocol16GetDataTypeInfo_ENS_12MethodBinderIPNS_20DataTypeInf
 9654              		.thumb
 9655              		.thumb_func
 9656              		.type	_ZN6uavcan13ServiceServerINS_8protocol16GetDataTypeInfo_ENS_12MethodBinderIPNS_20DataTypeInf
 9657              	_ZN6uavcan13ServiceServerINS_8protocol16GetDataTypeInfo_ENS_12MethodBinderIPNS_20DataTypeInfoProvid
 9658              		@ args = 0, pretend = 0, frame = 112
 9659              		@ frame_needed = 0, uses_anonymous_args = 0
 9660 0000 F0B5     		push	{r4, r5, r6, r7, lr}
 9661 0002 0023     		movs	r3, #0
 9662 0004 9FB0     		sub	sp, sp, #124
 9663 0006 0022     		movs	r2, #0
 9664 0008 CDE90623 		strd	r2, [sp, #24]
 9665 000c 0023     		movs	r3, #0
 9666 000e 0446     		mov	r4, r0
 9667 0010 ADF82030 		strh	r3, [sp, #32]	@ movhi
 9668 0014 8DF82230 		strb	r3, [sp, #34]
 9669 0018 8DF82330 		strb	r3, [sp, #35]
 9670 001c 8DF82430 		strb	r3, [sp, #36]
 9671 0020 6830     		adds	r0, r0, #104
 9672 0022 0123     		movs	r3, #1
 9673 0024 0D46     		mov	r5, r1
 9674 0026 8DF87630 		strb	r3, [sp, #118]
 9675 002a FFF7FEFF 		bl	_ZNK6uavcan12MethodBinderIPNS_20DataTypeInfoProviderEMS1_FvRKNS_8protocol16GetDataTypeInfo_8Req
 9676 002e 90B1     		cbz	r0, .L1270
 9677 0030 226F     		ldr	r2, [r4, #112]
 9678 0032 A06E     		ldr	r0, [r4, #104]
 9679 0034 12F0010F 		tst	r2, #1
 9680 0038 4FEA6202 		asr	r2, r2, #1
 9681 003c 18BF     		it	ne
 9682 003e 8158     		ldrne	r1, [r0, r2]
 9683 0040 E36E     		ldr	r3, [r4, #108]
 9684 0042 1044     		add	r0, r0, r2
 9685 0044 18BF     		it	ne
 9686 0046 CB58     		ldrne	r3, [r1, r3]
ARM GAS  /tmp/ccFEREDd.s 			page 171


 9687 0048 06AA     		add	r2, sp, #24
 9688 004a 2946     		mov	r1, r5
 9689 004c 9847     		blx	r3
 9690 004e 9DF87630 		ldrb	r3, [sp, #118]	@ zero_extendqisi2
 9691 0052 33B3     		cbz	r3, .L1269
 9692 0054 02E0     		b	.L1280
 9693              	.L1270:
 9694 0056 1448     		ldr	r0, .L1281
 9695 0058 FFF7FEFF 		bl	_ZN6uavcan16handleFatalErrorEPKc
 9696              	.L1280:
 9697 005c AB6D     		ldr	r3, [r5, #88]
 9698 005e 0BB1     		cbz	r3, .L1278
 9699 0060 1B7E     		ldrb	r3, [r3, #24]	@ zero_extendqisi2
 9700 0062 00E0     		b	.L1275
 9701              	.L1278:
 9702 0064 FF23     		movs	r3, #255
 9703              	.L1275:
 9704 0066 84F84C30 		strb	r3, [r4, #76]
 9705 006a AA6D     		ldr	r2, [r5, #88]
 9706 006c 04F14000 		add	r0, r4, #64
 9707 0070 12B1     		cbz	r2, .L1279
 9708 0072 D37E     		ldrb	r3, [r2, #27]	@ zero_extendqisi2
 9709 0074 927E     		ldrb	r2, [r2, #26]	@ zero_extendqisi2
 9710 0076 00E0     		b	.L1276
 9711              	.L1279:
 9712 0078 FF23     		movs	r3, #255
 9713              	.L1276:
 9714 007a 8DF80F20 		strb	r2, [sp, #15]
 9715 007e 0DF10F02 		add	r2, sp, #15
 9716 0082 0092     		str	r2, [sp]
 9717 0084 04AA     		add	r2, sp, #16
 9718 0086 0192     		str	r2, [sp, #4]
 9719 0088 0026     		movs	r6, #0
 9720 008a 0027     		movs	r7, #0
 9721 008c 06A9     		add	r1, sp, #24
 9722 008e 0022     		movs	r2, #0
 9723 0090 CDE90467 		strd	r6, [sp, #16]
 9724 0094 FFF7FEFF 		bl	_ZN6uavcan16GenericPublisherINS_8protocol16GetDataTypeInfo_ENS2_9Response_ILi0EEEE14genericPubl
 9725 0098 0028     		cmp	r0, #0
 9726 009a 02DA     		bge	.L1269
 9727 009c 2046     		mov	r0, r4
 9728 009e FFF7FEFF 		bl	_ZN6uavcan13ServiceServerINS_8protocol16GetDataTypeInfo_ENS_12MethodBinderIPNS_20DataTypeInfoPr
 9729              	.L1269:
 9730 00a2 1FB0     		add	sp, sp, #124
 9731              		@ sp needed
 9732 00a4 F0BD     		pop	{r4, r5, r6, r7, pc}
 9733              	.L1282:
 9734 00a6 00BF     		.align	2
 9735              	.L1281:
 9736 00a8 25020000 		.word	.LC22
 9737              		.size	_ZN6uavcan13ServiceServerINS_8protocol16GetDataTypeInfo_ENS_12MethodBinderIPNS_20DataTypeInf
 9738              		.section	.text._ZN6uavcan11ScalarCodec6encodeILj32EmEEiT0_,"axG",%progbits,_ZN6uavcan11ScalarCodec
 9739              		.align	1
 9740              		.weak	_ZN6uavcan11ScalarCodec6encodeILj32EmEEiT0_
 9741              		.thumb
 9742              		.thumb_func
 9743              		.type	_ZN6uavcan11ScalarCodec6encodeILj32EmEEiT0_, %function
ARM GAS  /tmp/ccFEREDd.s 			page 172


 9744              	_ZN6uavcan11ScalarCodec6encodeILj32EmEEiT0_:
 9745              		@ args = 0, pretend = 0, frame = 8
 9746              		@ frame_needed = 0, uses_anonymous_args = 0
 9747 0000 07B5     		push	{r0, r1, r2, lr}
 9748 0002 02AB     		add	r3, sp, #8
 9749 0004 43F8041D 		str	r1, [r3, #-4]!
 9750 0008 1946     		mov	r1, r3
 9751 000a 2022     		movs	r2, #32
 9752 000c FFF7FEFF 		bl	_ZN6uavcan11ScalarCodec15encodeBytesImplEPhj
 9753 0010 03B0     		add	sp, sp, #12
 9754              		@ sp needed
 9755 0012 5DF804FB 		ldr	pc, [sp], #4
 9756              		.size	_ZN6uavcan11ScalarCodec6encodeILj32EmEEiT0_, .-_ZN6uavcan11ScalarCodec6encodeILj32EmEEiT0_
 9757              		.section	.text._ZN6uavcan8protocol5param6Value_ILi0EE6encodeERKS3_RNS_11ScalarCodecENS_25TailArray
 9758              		.align	1
 9759              		.weak	_ZN6uavcan8protocol5param6Value_ILi0EE6encodeERKS3_RNS_11ScalarCodecENS_25TailArrayOptimizat
 9760              		.thumb
 9761              		.thumb_func
 9762              		.type	_ZN6uavcan8protocol5param6Value_ILi0EE6encodeERKS3_RNS_11ScalarCodecENS_25TailArrayOptimizat
 9763              	_ZN6uavcan8protocol5param6Value_ILi0EE6encodeERKS3_RNS_11ScalarCodecENS_25TailArrayOptimizationMode
 9764              		@ args = 0, pretend = 0, frame = 8
 9765              		@ frame_needed = 0, uses_anonymous_args = 0
 9766 0000 73B5     		push	{r0, r1, r4, r5, r6, lr}
 9767 0002 0D46     		mov	r5, r1
 9768 0004 90F89710 		ldrb	r1, [r0, #151]	@ zero_extendqisi2
 9769 0008 0446     		mov	r4, r0
 9770 000a 01F00701 		and	r1, r1, #7
 9771 000e 2846     		mov	r0, r5
 9772 0010 1646     		mov	r6, r2
 9773 0012 FFF7FEFF 		bl	_ZN6uavcan11ScalarCodec6encodeILj3EhEEiT0_
 9774 0016 0028     		cmp	r0, #0
 9775 0018 3EDD     		ble	.L1285
 9776 001a 94F89730 		ldrb	r3, [r4, #151]	@ zero_extendqisi2
 9777 001e 0BB9     		cbnz	r3, .L1286
 9778              	.L1291:
 9779 0020 0120     		movs	r0, #1
 9780 0022 39E0     		b	.L1285
 9781              	.L1286:
 9782 0024 012B     		cmp	r3, #1
 9783 0026 09D1     		bne	.L1287
 9784 0028 02A9     		add	r1, sp, #8
 9785 002a D4E90223 		ldrd	r2, [r4, #8]
 9786 002e 2846     		mov	r0, r5
 9787 0030 61E90223 		strd	r2, [r1, #-8]!
 9788 0034 4022     		movs	r2, #64
 9789 0036 FFF7FEFF 		bl	_ZN6uavcan11ScalarCodec15encodeBytesImplEPhj
 9790 003a 2DE0     		b	.L1285
 9791              	.L1287:
 9792 003c 022B     		cmp	r3, #2
 9793 003e 04D1     		bne	.L1288
 9794 0040 2846     		mov	r0, r5
 9795 0042 2169     		ldr	r1, [r4, #16]
 9796 0044 FFF7FEFF 		bl	_ZN6uavcan11ScalarCodec6encodeILj32EmEEiT0_
 9797 0048 26E0     		b	.L1285
 9798              	.L1288:
 9799 004a 032B     		cmp	r3, #3
 9800 004c 04D1     		bne	.L1289
ARM GAS  /tmp/ccFEREDd.s 			page 173


 9801 004e 207D     		ldrb	r0, [r4, #20]	@ zero_extendqisi2
 9802 0050 2946     		mov	r1, r5
 9803 0052 FFF7FEFF 		bl	_ZN6uavcan11IntegerSpecILj8ELNS_10SignednessE0ELNS_8CastModeE0EE6encodeEhRNS_11ScalarCodecENS_2
 9804 0056 1FE0     		b	.L1285
 9805              	.L1289:
 9806 0058 042B     		cmp	r3, #4
 9807 005a 1BD1     		bne	.L1295
 9808 005c 012E     		cmp	r6, #1
 9809 005e 04D1     		bne	.L1290
 9810              	.L1293:
 9811 0060 637D     		ldrb	r3, [r4, #21]	@ zero_extendqisi2
 9812 0062 002B     		cmp	r3, #0
 9813 0064 DCD0     		beq	.L1291
 9814 0066 0026     		movs	r6, #0
 9815 0068 0FE0     		b	.L1292
 9816              	.L1290:
 9817 006a 607D     		ldrb	r0, [r4, #21]	@ zero_extendqisi2
 9818 006c 2946     		mov	r1, r5
 9819 006e FFF7FEFF 		bl	_ZN6uavcan11IntegerSpecILj8ELNS_10SignednessE0ELNS_8CastModeE0EE6encodeEhRNS_11ScalarCodecENS_2
 9820 0072 0028     		cmp	r0, #0
 9821 0074 F4DC     		bgt	.L1293
 9822 0076 0FE0     		b	.L1285
 9823              	.L1294:
 9824 0078 2344     		add	r3, r3, r4
 9825 007a 987D     		ldrb	r0, [r3, #22]	@ zero_extendqisi2
 9826 007c 2946     		mov	r1, r5
 9827 007e FFF7FEFF 		bl	_ZN6uavcan11IntegerSpecILj8ELNS_10SignednessE0ELNS_8CastModeE0EE6encodeEhRNS_11ScalarCodecENS_2
 9828 0082 0028     		cmp	r0, #0
 9829 0084 06F10106 		add	r6, r6, #1
 9830 0088 06DD     		ble	.L1285
 9831              	.L1292:
 9832 008a 627D     		ldrb	r2, [r4, #21]	@ zero_extendqisi2
 9833 008c F3B2     		uxtb	r3, r6
 9834 008e 9A42     		cmp	r2, r3
 9835 0090 F2D8     		bhi	.L1294
 9836 0092 C5E7     		b	.L1291
 9837              	.L1295:
 9838 0094 4FF0FF30 		mov	r0, #-1
 9839              	.L1285:
 9840 0098 02B0     		add	sp, sp, #8
 9841              		@ sp needed
 9842 009a 70BD     		pop	{r4, r5, r6, pc}
 9843              		.size	_ZN6uavcan8protocol5param6Value_ILi0EE6encodeERKS3_RNS_11ScalarCodecENS_25TailArrayOptimizat
 9844              		.section	.text._ZN6uavcan8protocol5param13NumericValue_ILi0EE6encodeERKS3_RNS_11ScalarCodecENS_25T
 9845              		.align	1
 9846              		.thumb
 9847              		.thumb_func
 9848              		.type	_ZN6uavcan8protocol5param13NumericValue_ILi0EE6encodeERKS3_RNS_11ScalarCodecENS_25TailArrayO
 9849              	_ZN6uavcan8protocol5param13NumericValue_ILi0EE6encodeERKS3_RNS_11ScalarCodecENS_25TailArrayOptimiza
 9850              		@ args = 0, pretend = 0, frame = 8
 9851              		@ frame_needed = 0, uses_anonymous_args = 0
 9852 0000 73B5     		push	{r0, r1, r4, r5, r6, lr}
 9853 0002 037D     		ldrb	r3, [r0, #20]	@ zero_extendqisi2
 9854 0004 02AD     		add	r5, sp, #8
 9855 0006 03F00303 		and	r3, r3, #3
 9856 000a 05F8083D 		strb	r3, [r5, #-8]!
 9857 000e 0446     		mov	r4, r0
ARM GAS  /tmp/ccFEREDd.s 			page 174


 9858 0010 0E46     		mov	r6, r1
 9859 0012 0846     		mov	r0, r1
 9860 0014 0222     		movs	r2, #2
 9861 0016 2946     		mov	r1, r5
 9862 0018 FFF7FEFF 		bl	_ZN6uavcan11ScalarCodec15encodeBytesImplEPhj
 9863 001c 0028     		cmp	r0, #0
 9864 001e 18DD     		ble	.L1302
 9865 0020 237D     		ldrb	r3, [r4, #20]	@ zero_extendqisi2
 9866 0022 93B1     		cbz	r3, .L1304
 9867 0024 012B     		cmp	r3, #1
 9868 0026 09D1     		bne	.L1303
 9869 0028 D4E90223 		ldrd	r2, [r4, #8]
 9870 002c 3046     		mov	r0, r6
 9871 002e CDE90023 		strd	r2, [sp]
 9872 0032 2946     		mov	r1, r5
 9873 0034 4022     		movs	r2, #64
 9874 0036 FFF7FEFF 		bl	_ZN6uavcan11ScalarCodec15encodeBytesImplEPhj
 9875 003a 0AE0     		b	.L1302
 9876              	.L1303:
 9877 003c 022B     		cmp	r3, #2
 9878 003e 06D1     		bne	.L1305
 9879 0040 3046     		mov	r0, r6
 9880 0042 2169     		ldr	r1, [r4, #16]
 9881 0044 FFF7FEFF 		bl	_ZN6uavcan11ScalarCodec6encodeILj32EmEEiT0_
 9882 0048 03E0     		b	.L1302
 9883              	.L1304:
 9884 004a 0120     		movs	r0, #1
 9885 004c 01E0     		b	.L1302
 9886              	.L1305:
 9887 004e 4FF0FF30 		mov	r0, #-1
 9888              	.L1302:
 9889 0052 02B0     		add	sp, sp, #8
 9890              		@ sp needed
 9891 0054 70BD     		pop	{r4, r5, r6, pc}
 9892              		.size	_ZN6uavcan8protocol5param13NumericValue_ILi0EE6encodeERKS3_RNS_11ScalarCodecENS_25TailArrayO
 9893              		.section	.text._ZN6uavcan8protocol5param7GetSet_9Response_ILi0EE6encodeERKS4_RNS_11ScalarCodecENS_
 9894              		.align	1
 9895              		.weak	_ZN6uavcan8protocol5param7GetSet_9Response_ILi0EE6encodeERKS4_RNS_11ScalarCodecENS_25TailArr
 9896              		.thumb
 9897              		.thumb_func
 9898              		.type	_ZN6uavcan8protocol5param7GetSet_9Response_ILi0EE6encodeERKS4_RNS_11ScalarCodecENS_25TailArr
 9899              	_ZN6uavcan8protocol5param7GetSet_9Response_ILi0EE6encodeERKS4_RNS_11ScalarCodecENS_25TailArrayOptim
 9900              		@ args = 0, pretend = 0, frame = 8
 9901              		@ frame_needed = 0, uses_anonymous_args = 0
 9902 0000 2DE9F341 		push	{r0, r1, r4, r5, r6, r7, r8, lr}
 9903 0004 0546     		mov	r5, r0
 9904 0006 0C46     		mov	r4, r1
 9905 0008 0846     		mov	r0, r1
 9906 000a 0021     		movs	r1, #0
 9907 000c 1646     		mov	r6, r2
 9908 000e FFF7FEFF 		bl	_ZN6uavcan11ScalarCodec6encodeILj5EhEEiT0_
 9909 0012 0028     		cmp	r0, #0
 9910 0014 56DD     		ble	.L1307
 9911 0016 2846     		mov	r0, r5
 9912 0018 2146     		mov	r1, r4
 9913 001a 0022     		movs	r2, #0
 9914 001c FFF7FEFF 		bl	_ZN6uavcan8protocol5param6Value_ILi0EE6encodeERKS3_RNS_11ScalarCodecENS_25TailArrayOptimization
ARM GAS  /tmp/ccFEREDd.s 			page 175


 9915 0020 0028     		cmp	r0, #0
 9916 0022 4FDD     		ble	.L1307
 9917 0024 2046     		mov	r0, r4
 9918 0026 0021     		movs	r1, #0
 9919 0028 FFF7FEFF 		bl	_ZN6uavcan11ScalarCodec6encodeILj5EhEEiT0_
 9920 002c 0028     		cmp	r0, #0
 9921 002e 49DD     		ble	.L1307
 9922 0030 05F19800 		add	r0, r5, #152
 9923 0034 2146     		mov	r1, r4
 9924 0036 0022     		movs	r2, #0
 9925 0038 FFF7FEFF 		bl	_ZN6uavcan8protocol5param6Value_ILi0EE6encodeERKS3_RNS_11ScalarCodecENS_25TailArrayOptimization
 9926 003c 0028     		cmp	r0, #0
 9927 003e 41DD     		ble	.L1307
 9928 0040 02AF     		add	r7, sp, #8
 9929 0042 4FF00008 		mov	r8, #0
 9930 0046 07F8018D 		strb	r8, [r7, #-1]!
 9931 004a 2046     		mov	r0, r4
 9932 004c 3946     		mov	r1, r7
 9933 004e 0622     		movs	r2, #6
 9934 0050 FFF7FEFF 		bl	_ZN6uavcan11ScalarCodec15encodeBytesImplEPhj
 9935 0054 0028     		cmp	r0, #0
 9936 0056 35DD     		ble	.L1307
 9937 0058 05F59870 		add	r0, r5, #304
 9938 005c 2146     		mov	r1, r4
 9939 005e FFF7FEFF 		bl	_ZN6uavcan8protocol5param13NumericValue_ILi0EE6encodeERKS3_RNS_11ScalarCodecENS_25TailArrayOpti
 9940 0062 0028     		cmp	r0, #0
 9941 0064 2EDD     		ble	.L1307
 9942 0066 2046     		mov	r0, r4
 9943 0068 3946     		mov	r1, r7
 9944 006a 0622     		movs	r2, #6
 9945 006c 8DF80780 		strb	r8, [sp, #7]
 9946 0070 FFF7FEFF 		bl	_ZN6uavcan11ScalarCodec15encodeBytesImplEPhj
 9947 0074 0028     		cmp	r0, #0
 9948 0076 25DD     		ble	.L1307
 9949 0078 05F5A470 		add	r0, r5, #328
 9950 007c 2146     		mov	r1, r4
 9951 007e FFF7FEFF 		bl	_ZN6uavcan8protocol5param13NumericValue_ILi0EE6encodeERKS3_RNS_11ScalarCodecENS_25TailArrayOpti
 9952 0082 0028     		cmp	r0, #0
 9953 0084 1EDD     		ble	.L1307
 9954 0086 012E     		cmp	r6, #1
 9955 0088 04D1     		bne	.L1308
 9956              	.L1311:
 9957 008a 95F86031 		ldrb	r3, [r5, #352]	@ zero_extendqisi2
 9958 008e C3B1     		cbz	r3, .L1309
 9959 0090 0026     		movs	r6, #0
 9960 0092 11E0     		b	.L1310
 9961              	.L1308:
 9962 0094 95F86001 		ldrb	r0, [r5, #352]	@ zero_extendqisi2
 9963 0098 2146     		mov	r1, r4
 9964 009a FFF7FEFF 		bl	_ZN6uavcan11IntegerSpecILj7ELNS_10SignednessE0ELNS_8CastModeE0EE6encodeEhRNS_11ScalarCodecENS_2
 9965 009e 0028     		cmp	r0, #0
 9966 00a0 F3DC     		bgt	.L1311
 9967 00a2 0FE0     		b	.L1307
 9968              	.L1312:
 9969 00a4 2B44     		add	r3, r3, r5
 9970 00a6 93F86101 		ldrb	r0, [r3, #353]	@ zero_extendqisi2
 9971 00aa 2146     		mov	r1, r4
ARM GAS  /tmp/ccFEREDd.s 			page 176


 9972 00ac FFF7FEFF 		bl	_ZN6uavcan11IntegerSpecILj8ELNS_10SignednessE0ELNS_8CastModeE0EE6encodeEhRNS_11ScalarCodecENS_2
 9973 00b0 0028     		cmp	r0, #0
 9974 00b2 06F10106 		add	r6, r6, #1
 9975 00b6 05DD     		ble	.L1307
 9976              	.L1310:
 9977 00b8 95F86021 		ldrb	r2, [r5, #352]	@ zero_extendqisi2
 9978 00bc F3B2     		uxtb	r3, r6
 9979 00be 9A42     		cmp	r2, r3
 9980 00c0 F0D8     		bhi	.L1312
 9981              	.L1309:
 9982 00c2 0120     		movs	r0, #1
 9983              	.L1307:
 9984 00c4 02B0     		add	sp, sp, #8
 9985              		@ sp needed
 9986 00c6 BDE8F081 		pop	{r4, r5, r6, r7, r8, pc}
 9987              		.size	_ZN6uavcan8protocol5param7GetSet_9Response_ILi0EE6encodeERKS4_RNS_11ScalarCodecENS_25TailArr
 9988              		.section	.text._ZN6uavcan16GenericPublisherINS_8protocol5param7GetSet_ENS3_9Response_ILi0EEEE14gen
 9989              		.align	1
 9990              		.weak	_ZN6uavcan16GenericPublisherINS_8protocol5param7GetSet_ENS3_9Response_ILi0EEEE14genericPubli
 9991              		.thumb
 9992              		.thumb_func
 9993              		.type	_ZN6uavcan16GenericPublisherINS_8protocol5param7GetSet_ENS3_9Response_ILi0EEEE14genericPubli
 9994              	_ZN6uavcan16GenericPublisherINS_8protocol5param7GetSet_ENS3_9Response_ILi0EEEE14genericPublishERKS5
 9995              		@ args = 8, pretend = 0, frame = 408
 9996              		@ frame_needed = 0, uses_anonymous_args = 0
 9997 0000 2DE9F047 		push	{r4, r5, r6, r7, r8, r9, r10, lr}
 9998 0004 E8B0     		sub	sp, sp, #416
 9999 0006 8146     		mov	r9, r0
 10000 0008 8A46     		mov	r10, r1
 10001 000a 9046     		mov	r8, r2
 10002 000c 1F46     		mov	r7, r3
 10003 000e 719E     		ldr	r6, [sp, #452]
 10004 0010 FFF7FEFF 		bl	_ZN6uavcan16GenericPublisherINS_8protocol5param7GetSet_ENS3_9Response_ILi0EEEE9checkInitEv
 10005 0014 0028     		cmp	r0, #0
 10006 0016 28DB     		blt	.L1323
 10007 0018 0BAB     		add	r3, sp, #44
 10008 001a 0993     		str	r3, [sp, #36]
 10009 001c 40F27313 		movw	r3, #371
 10010 0020 134A     		ldr	r2, .L1328
 10011 0022 ADF82830 		strh	r3, [sp, #40]	@ movhi
 10012 0026 0892     		str	r2, [sp, #32]
 10013 0028 0023     		movs	r3, #0
 10014 002a 08AD     		add	r5, sp, #32
 10015 002c 04AC     		add	r4, sp, #16
 10016 002e 5046     		mov	r0, r10
 10017 0030 03A9     		add	r1, sp, #12
 10018 0032 0122     		movs	r2, #1
 10019 0034 ADF82A30 		strh	r3, [sp, #42]	@ movhi
 10020 0038 0495     		str	r5, [sp, #16]
 10021 003a 0593     		str	r3, [sp, #20]
 10022 003c 8DF81830 		strb	r3, [sp, #24]
 10023 0040 0394     		str	r4, [sp, #12]
 10024 0042 FFF7FEFF 		bl	_ZN6uavcan8protocol5param7GetSet_9Response_ILi0EE6encodeERKS4_RNS_11ScalarCodecENS_25TailArrayO
 10025 0046 0028     		cmp	r0, #0
 10026 0048 0DDD     		ble	.L1327
 10027 004a 96E80300 		ldmia	r6, {r0, r1}
 10028 004e 709B     		ldr	r3, [sp, #448]
ARM GAS  /tmp/ccFEREDd.s 			page 177


 10029 0050 84E80300 		stmia	r4, {r0, r1}
 10030 0054 4246     		mov	r2, r8
 10031 0056 8DE81800 		stmia	sp, {r3, r4}
 10032 005a 4846     		mov	r0, r9
 10033 005c 2946     		mov	r1, r5
 10034 005e 3B46     		mov	r3, r7
 10035 0060 FFF7FEFF 		bl	_ZN6uavcan20GenericPublisherBase14genericPublishERKNS_24StaticTransferBufferImplENS_12TransferT
 10036 0064 01E0     		b	.L1323
 10037              	.L1327:
 10038 0066 6FF00500 		mvn	r0, #5
 10039              	.L1323:
 10040 006a 68B0     		add	sp, sp, #416
 10041              		@ sp needed
 10042 006c BDE8F087 		pop	{r4, r5, r6, r7, r8, r9, r10, pc}
 10043              	.L1329:
 10044              		.align	2
 10045              	.L1328:
 10046 0070 08000000 		.word	_ZTVN6uavcan20StaticTransferBufferILt371EEE+8
 10047              		.size	_ZN6uavcan16GenericPublisherINS_8protocol5param7GetSet_ENS3_9Response_ILi0EEEE14genericPubli
 10048              		.section	.text._ZN6uavcan13ServiceServerINS_8protocol5param7GetSet_ENS_12MethodBinderIPNS_11ParamS
 10049              		.align	1
 10050              		.weak	_ZN6uavcan13ServiceServerINS_8protocol5param7GetSet_ENS_12MethodBinderIPNS_11ParamServerEMS5
 10051              		.thumb
 10052              		.thumb_func
 10053              		.type	_ZN6uavcan13ServiceServerINS_8protocol5param7GetSet_ENS_12MethodBinderIPNS_11ParamServerEMS5
 10054              	_ZN6uavcan13ServiceServerINS_8protocol5param7GetSet_ENS_12MethodBinderIPNS_11ParamServerEMS5_FvRKNS
 10055              		@ args = 0, pretend = 0, frame = 464
 10056              		@ frame_needed = 0, uses_anonymous_args = 0
 10057 0000 F0B5     		push	{r4, r5, r6, r7, lr}
 10058 0002 0446     		mov	r4, r0
 10059 0004 F7B0     		sub	sp, sp, #476
 10060 0006 0020     		movs	r0, #0
 10061 0008 54AE     		add	r6, sp, #336
 10062 000a 0D46     		mov	r5, r1
 10063 000c 0021     		movs	r1, #0
 10064 000e 0023     		movs	r3, #0
 10065 0010 C6E90001 		strd	r0, [r6]
 10066 0014 5AAE     		add	r6, sp, #360
 10067 0016 0022     		movs	r2, #0
 10068 0018 CDE90801 		strd	r0, [sp, #32]
 10069 001c 8DF82C30 		strb	r3, [sp, #44]
 10070 0020 8DF82D30 		strb	r3, [sp, #45]
 10071 0024 8DF8AF30 		strb	r3, [sp, #175]
 10072 0028 CDE92E01 		strd	r0, [sp, #184]
 10073 002c 8DF8C430 		strb	r3, [sp, #196]
 10074 0030 8DF8C530 		strb	r3, [sp, #197]
 10075 0034 8DF84731 		strb	r3, [sp, #327]
 10076 0038 8DF85C31 		strb	r3, [sp, #348]
 10077 003c C6E90001 		strd	r0, [r6]
 10078 0040 8DF87431 		strb	r3, [sp, #372]
 10079 0044 8DF87831 		strb	r3, [sp, #376]
 10080 0048 04F16800 		add	r0, r4, #104
 10081 004c 0123     		movs	r3, #1
 10082 004e 0A92     		str	r2, [sp, #40]	@ float
 10083 0050 3092     		str	r2, [sp, #192]	@ float
 10084 0052 5692     		str	r2, [sp, #344]	@ float
 10085 0054 5C92     		str	r2, [sp, #368]	@ float
ARM GAS  /tmp/ccFEREDd.s 			page 178


 10086 0056 8DF8D631 		strb	r3, [sp, #470]
 10087 005a FFF7FEFF 		bl	_ZNK6uavcan12MethodBinderIPNS_11ParamServerEMS1_FvRKNS_8protocol5param7GetSet_8Request_ILi0EEER
 10088 005e 90B1     		cbz	r0, .L1331
 10089 0060 226F     		ldr	r2, [r4, #112]
 10090 0062 A06E     		ldr	r0, [r4, #104]
 10091 0064 12F0010F 		tst	r2, #1
 10092 0068 4FEA6202 		asr	r2, r2, #1
 10093 006c 18BF     		it	ne
 10094 006e 8158     		ldrne	r1, [r0, r2]
 10095 0070 E36E     		ldr	r3, [r4, #108]
 10096 0072 1044     		add	r0, r0, r2
 10097 0074 18BF     		it	ne
 10098 0076 CB58     		ldrne	r3, [r1, r3]
 10099 0078 06AA     		add	r2, sp, #24
 10100 007a 2946     		mov	r1, r5
 10101 007c 9847     		blx	r3
 10102 007e 9DF8D631 		ldrb	r3, [sp, #470]	@ zero_extendqisi2
 10103 0082 43B3     		cbz	r3, .L1330
 10104 0084 02E0     		b	.L1341
 10105              	.L1331:
 10106 0086 1548     		ldr	r0, .L1342
 10107 0088 FFF7FEFF 		bl	_ZN6uavcan16handleFatalErrorEPKc
 10108              	.L1341:
 10109 008c D5F80031 		ldr	r3, [r5, #256]
 10110 0090 0BB1     		cbz	r3, .L1339
 10111 0092 1B7E     		ldrb	r3, [r3, #24]	@ zero_extendqisi2
 10112 0094 00E0     		b	.L1336
 10113              	.L1339:
 10114 0096 FF23     		movs	r3, #255
 10115              	.L1336:
 10116 0098 84F84C30 		strb	r3, [r4, #76]
 10117 009c D5F80021 		ldr	r2, [r5, #256]
 10118 00a0 04F14000 		add	r0, r4, #64
 10119 00a4 12B1     		cbz	r2, .L1340
 10120 00a6 D37E     		ldrb	r3, [r2, #27]	@ zero_extendqisi2
 10121 00a8 927E     		ldrb	r2, [r2, #26]	@ zero_extendqisi2
 10122 00aa 00E0     		b	.L1337
 10123              	.L1340:
 10124 00ac FF23     		movs	r3, #255
 10125              	.L1337:
 10126 00ae 8DF80F20 		strb	r2, [sp, #15]
 10127 00b2 0026     		movs	r6, #0
 10128 00b4 76AA     		add	r2, sp, #472
 10129 00b6 0027     		movs	r7, #0
 10130 00b8 62E97267 		strd	r6, [r2, #-456]!
 10131 00bc 0DF10F01 		add	r1, sp, #15
 10132 00c0 8DE80600 		stmia	sp, {r1, r2}
 10133 00c4 06A9     		add	r1, sp, #24
 10134 00c6 0022     		movs	r2, #0
 10135 00c8 FFF7FEFF 		bl	_ZN6uavcan16GenericPublisherINS_8protocol5param7GetSet_ENS3_9Response_ILi0EEEE14genericPublishE
 10136 00cc 0028     		cmp	r0, #0
 10137 00ce 02DA     		bge	.L1330
 10138 00d0 2046     		mov	r0, r4
 10139 00d2 FFF7FEFF 		bl	_ZN6uavcan13ServiceServerINS_8protocol5param7GetSet_ENS_12MethodBinderIPNS_11ParamServerEMS5_Fv
 10140              	.L1330:
 10141 00d6 77B0     		add	sp, sp, #476
 10142              		@ sp needed
ARM GAS  /tmp/ccFEREDd.s 			page 179


 10143 00d8 F0BD     		pop	{r4, r5, r6, r7, pc}
 10144              	.L1343:
 10145 00da 00BF     		.align	2
 10146              	.L1342:
 10147 00dc 25020000 		.word	.LC22
 10148              		.size	_ZN6uavcan13ServiceServerINS_8protocol5param7GetSet_ENS_12MethodBinderIPNS_11ParamServerEMS5
 10149              		.section	.text._ZN6uavcan16GenericPublisherINS_8protocol12GetNodeInfo_ENS2_9Response_ILi0EEEE14gen
 10150              		.align	1
 10151              		.weak	_ZN6uavcan16GenericPublisherINS_8protocol12GetNodeInfo_ENS2_9Response_ILi0EEEE14genericPubli
 10152              		.thumb
 10153              		.thumb_func
 10154              		.type	_ZN6uavcan16GenericPublisherINS_8protocol12GetNodeInfo_ENS2_9Response_ILi0EEEE14genericPubli
 10155              	_ZN6uavcan16GenericPublisherINS_8protocol12GetNodeInfo_ENS2_9Response_ILi0EEEE14genericPublishERKS4
 10156              		@ args = 8, pretend = 0, frame = 424
 10157              		@ frame_needed = 0, uses_anonymous_args = 0
 10158 0000 2DE9F04F 		push	{r4, r5, r6, r7, r8, r9, r10, fp, lr}
 10159 0004 EDB0     		sub	sp, sp, #436
 10160 0006 0C46     		mov	r4, r1
 10161 0008 8046     		mov	r8, r0
 10162 000a 9146     		mov	r9, r2
 10163 000c 9A46     		mov	r10, r3
 10164 000e FFF7FEFF 		bl	_ZNK6uavcan20GenericPublisherBase8isInitedEv
 10165 0012 0146     		mov	r1, r0
 10166 0014 A8B1     		cbz	r0, .L1345
 10167              	.L1349:
 10168 0016 0AAE     		add	r6, sp, #40
 10169 0018 0DAB     		add	r3, sp, #52
 10170 001a 7360     		str	r3, [r6, #4]
 10171 001c 40F27913 		movw	r3, #377
 10172 0020 5C4A     		ldr	r2, .L1371
 10173 0022 06AD     		add	r5, sp, #24
 10174 0024 3381     		strh	r3, [r6, #8]	@ movhi
 10175 0026 03A8     		add	r0, sp, #12
 10176 0028 0023     		movs	r3, #0
 10177 002a 2168     		ldr	r1, [r4]
 10178 002c 7381     		strh	r3, [r6, #10]	@ movhi
 10179 002e 3260     		str	r2, [r6]
 10180 0030 2E60     		str	r6, [r5]
 10181 0032 6B60     		str	r3, [r5, #4]
 10182 0034 2B72     		strb	r3, [r5, #8]
 10183 0036 0395     		str	r5, [sp, #12]
 10184 0038 FFF7FEFF 		bl	_ZN6uavcan11ScalarCodec6encodeILj32EmEEiT0_
 10185 003c 0028     		cmp	r0, #0
 10186 003e 09DC     		bgt	.L1367
 10187 0040 8BE0     		b	.L1360
 10188              	.L1345:
 10189 0042 4046     		mov	r0, r8
 10190 0044 544A     		ldr	r2, .L1371+4
 10191 0046 0123     		movs	r3, #1
 10192 0048 FFF7FEFF 		bl	_ZN6uavcan20GenericPublisherBase6doInitENS_12DataTypeKindEPKcNS_10CanTxQueue3QosE
 10193 004c 0028     		cmp	r0, #0
 10194 004e C0F29D80 		blt	.L1363
 10195 0052 E0E7     		b	.L1349
 10196              	.L1367:
 10197 0054 2379     		ldrb	r3, [r4, #4]	@ zero_extendqisi2
 10198 0056 03A8     		add	r0, sp, #12
 10199 0058 032B     		cmp	r3, #3
ARM GAS  /tmp/ccFEREDd.s 			page 180


 10200 005a 28BF     		it	cs
 10201 005c 0323     		movcs	r3, #3
 10202 005e 04A9     		add	r1, sp, #16
 10203 0060 0222     		movs	r2, #2
 10204 0062 8DF81030 		strb	r3, [sp, #16]
 10205 0066 FFF7FEFF 		bl	_ZN6uavcan11ScalarCodec15encodeBytesImplEPhj
 10206 006a 0028     		cmp	r0, #0
 10207 006c 75DD     		ble	.L1360
 10208 006e 6179     		ldrb	r1, [r4, #5]	@ zero_extendqisi2
 10209 0070 03A8     		add	r0, sp, #12
 10210 0072 0729     		cmp	r1, #7
 10211 0074 28BF     		it	cs
 10212 0076 0721     		movcs	r1, #7
 10213 0078 FFF7FEFF 		bl	_ZN6uavcan11ScalarCodec6encodeILj3EhEEiT0_
 10214 007c 0028     		cmp	r0, #0
 10215 007e 6CDD     		ble	.L1360
 10216 0080 A179     		ldrb	r1, [r4, #6]	@ zero_extendqisi2
 10217 0082 03A8     		add	r0, sp, #12
 10218 0084 0729     		cmp	r1, #7
 10219 0086 28BF     		it	cs
 10220 0088 0721     		movcs	r1, #7
 10221 008a FFF7FEFF 		bl	_ZN6uavcan11ScalarCodec6encodeILj3EhEEiT0_
 10222 008e 0028     		cmp	r0, #0
 10223 0090 63DD     		ble	.L1360
 10224 0092 2389     		ldrh	r3, [r4, #8]
 10225 0094 03A8     		add	r0, sp, #12
 10226 0096 04A9     		add	r1, sp, #16
 10227 0098 1022     		movs	r2, #16
 10228 009a ADF81030 		strh	r3, [sp, #16]	@ movhi
 10229 009e FFF7FEFF 		bl	_ZN6uavcan11ScalarCodec15encodeBytesImplEPhj
 10230 00a2 0028     		cmp	r0, #0
 10231 00a4 59DD     		ble	.L1360
 10232 00a6 207C     		ldrb	r0, [r4, #16]	@ zero_extendqisi2
 10233 00a8 03A9     		add	r1, sp, #12
 10234 00aa FFF7FEFF 		bl	_ZN6uavcan11IntegerSpecILj8ELNS_10SignednessE0ELNS_8CastModeE0EE6encodeEhRNS_11ScalarCodecENS_2
 10235 00ae 0028     		cmp	r0, #0
 10236 00b0 53DD     		ble	.L1360
 10237 00b2 607C     		ldrb	r0, [r4, #17]	@ zero_extendqisi2
 10238 00b4 03A9     		add	r1, sp, #12
 10239 00b6 FFF7FEFF 		bl	_ZN6uavcan11IntegerSpecILj8ELNS_10SignednessE0ELNS_8CastModeE0EE6encodeEhRNS_11ScalarCodecENS_2
 10240 00ba 0028     		cmp	r0, #0
 10241 00bc 4DDD     		ble	.L1360
 10242 00be A07C     		ldrb	r0, [r4, #18]	@ zero_extendqisi2
 10243 00c0 03A9     		add	r1, sp, #12
 10244 00c2 FFF7FEFF 		bl	_ZN6uavcan11IntegerSpecILj8ELNS_10SignednessE0ELNS_8CastModeE0EE6encodeEhRNS_11ScalarCodecENS_2
 10245 00c6 0028     		cmp	r0, #0
 10246 00c8 47DD     		ble	.L1360
 10247 00ca 03A8     		add	r0, sp, #12
 10248 00cc 6169     		ldr	r1, [r4, #20]
 10249 00ce FFF7FEFF 		bl	_ZN6uavcan11ScalarCodec6encodeILj32EmEEiT0_
 10250 00d2 0028     		cmp	r0, #0
 10251 00d4 41DD     		ble	.L1360
 10252 00d6 D4E90623 		ldrd	r2, [r4, #24]
 10253 00da 03A8     		add	r0, sp, #12
 10254 00dc CDE90423 		strd	r2, [sp, #16]
 10255 00e0 04A9     		add	r1, sp, #16
 10256 00e2 4022     		movs	r2, #64
ARM GAS  /tmp/ccFEREDd.s 			page 181


 10257 00e4 FFF7FEFF 		bl	_ZN6uavcan11ScalarCodec15encodeBytesImplEPhj
 10258 00e8 0028     		cmp	r0, #0
 10259 00ea 36DD     		ble	.L1360
 10260 00ec 94F82000 		ldrb	r0, [r4, #32]	@ zero_extendqisi2
 10261 00f0 03A9     		add	r1, sp, #12
 10262 00f2 FFF7FEFF 		bl	_ZN6uavcan11IntegerSpecILj8ELNS_10SignednessE0ELNS_8CastModeE0EE6encodeEhRNS_11ScalarCodecENS_2
 10263 00f6 0028     		cmp	r0, #0
 10264 00f8 2FDD     		ble	.L1360
 10265 00fa 94F82100 		ldrb	r0, [r4, #33]	@ zero_extendqisi2
 10266 00fe 03A9     		add	r1, sp, #12
 10267 0100 FFF7FEFF 		bl	_ZN6uavcan11IntegerSpecILj8ELNS_10SignednessE0ELNS_8CastModeE0EE6encodeEhRNS_11ScalarCodecENS_2
 10268 0104 0028     		cmp	r0, #0
 10269 0106 28DD     		ble	.L1360
 10270 0108 04F1210B 		add	fp, r4, #33
 10271 010c 04F13107 		add	r7, r4, #49
 10272              	.L1353:
 10273 0110 1BF8010F 		ldrb	r0, [fp, #1]!	@ zero_extendqisi2
 10274 0114 03A9     		add	r1, sp, #12
 10275 0116 FFF7FEFF 		bl	_ZN6uavcan11IntegerSpecILj8ELNS_10SignednessE0ELNS_8CastModeE0EE6encodeEhRNS_11ScalarCodecENS_2
 10276 011a 0028     		cmp	r0, #0
 10277 011c 1DDD     		ble	.L1360
 10278 011e BB45     		cmp	fp, r7
 10279 0120 F6D1     		bne	.L1353
 10280 0122 94F83200 		ldrb	r0, [r4, #50]	@ zero_extendqisi2
 10281 0126 03A9     		add	r1, sp, #12
 10282 0128 FFF7FEFF 		bl	_ZN6uavcan11IntegerSpecILj8ELNS_10SignednessE0ELNS_8CastModeE0EE6encodeEhRNS_11ScalarCodecENS_2
 10283 012c 0028     		cmp	r0, #0
 10284 012e 14DD     		ble	.L1360
 10285 0130 94F83230 		ldrb	r3, [r4, #50]	@ zero_extendqisi2
 10286 0134 A3B1     		cbz	r3, .L1355
 10287 0136 4FF0000B 		mov	fp, #0
 10288              	.L1356:
 10289 013a 94F83220 		ldrb	r2, [r4, #50]	@ zero_extendqisi2
 10290 013e 5FFA8BF3 		uxtb	r3, fp
 10291 0142 9A42     		cmp	r2, r3
 10292 0144 0CD9     		bls	.L1355
 10293 0146 2344     		add	r3, r3, r4
 10294 0148 93F83300 		ldrb	r0, [r3, #51]	@ zero_extendqisi2
 10295 014c 03A9     		add	r1, sp, #12
 10296 014e FFF7FEFF 		bl	_ZN6uavcan11IntegerSpecILj8ELNS_10SignednessE0ELNS_8CastModeE0EE6encodeEhRNS_11ScalarCodecENS_2
 10297 0152 0028     		cmp	r0, #0
 10298 0154 0BF1010B 		add	fp, fp, #1
 10299 0158 EFDC     		bgt	.L1356
 10300              	.L1360:
 10301 015a 6FF00500 		mvn	r0, #5
 10302 015e 15E0     		b	.L1363
 10303              	.L1355:
 10304 0160 04F23310 		addw	r0, r4, #307
 10305 0164 03A9     		add	r1, sp, #12
 10306 0166 0122     		movs	r2, #1
 10307 0168 FFF7FEFF 		bl	_ZNK6uavcan5ArrayINS_11IntegerSpecILj8ELNS_10SignednessE0ELNS_8CastModeE0EEELNS_9ArrayModeE1ELj
 10308 016c 0028     		cmp	r0, #0
 10309 016e F4DD     		ble	.L1360
 10310 0170 779B     		ldr	r3, [sp, #476]
 10311 0172 4A46     		mov	r2, r9
 10312 0174 93E80300 		ldmia	r3, {r0, r1}
 10313 0178 769B     		ldr	r3, [sp, #472]
ARM GAS  /tmp/ccFEREDd.s 			page 182


 10314 017a 85E80300 		stmia	r5, {r0, r1}
 10315 017e 8DE82800 		stmia	sp, {r3, r5}
 10316 0182 4046     		mov	r0, r8
 10317 0184 3146     		mov	r1, r6
 10318 0186 5346     		mov	r3, r10
 10319 0188 FFF7FEFF 		bl	_ZN6uavcan20GenericPublisherBase14genericPublishERKNS_24StaticTransferBufferImplENS_12TransferT
 10320              	.L1363:
 10321 018c 6DB0     		add	sp, sp, #436
 10322              		@ sp needed
 10323 018e BDE8F08F 		pop	{r4, r5, r6, r7, r8, r9, r10, fp, pc}
 10324              	.L1372:
 10325 0192 00BF     		.align	2
 10326              	.L1371:
 10327 0194 08000000 		.word	_ZTVN6uavcan20StaticTransferBufferILt377EEE+8
 10328 0198 AD000000 		.word	.LC7
 10329              		.size	_ZN6uavcan16GenericPublisherINS_8protocol12GetNodeInfo_ENS2_9Response_ILi0EEEE14genericPubli
 10330              		.section	.text._ZN6uavcan13ServiceServerINS_8protocol12GetNodeInfo_ENS_12MethodBinderIPNS_18NodeSt
 10331              		.align	1
 10332              		.weak	_ZN6uavcan13ServiceServerINS_8protocol12GetNodeInfo_ENS_12MethodBinderIPNS_18NodeStatusProvi
 10333              		.thumb
 10334              		.thumb_func
 10335              		.type	_ZN6uavcan13ServiceServerINS_8protocol12GetNodeInfo_ENS_12MethodBinderIPNS_18NodeStatusProvi
 10336              	_ZN6uavcan13ServiceServerINS_8protocol12GetNodeInfo_ENS_12MethodBinderIPNS_18NodeStatusProviderEMS4
 10337              		@ args = 0, pretend = 0, frame = 408
 10338              		@ frame_needed = 0, uses_anonymous_args = 0
 10339 0000 F0B5     		push	{r4, r5, r6, r7, lr}
 10340 0002 0446     		mov	r4, r0
 10341 0004 E9B0     		sub	sp, sp, #420
 10342 0006 06A8     		add	r0, sp, #24
 10343 0008 0D46     		mov	r5, r1
 10344 000a FFF7FEFF 		bl	_ZN6uavcan8protocol12GetNodeInfo_9Response_ILi0EEC2Ev
 10345 000e 0123     		movs	r3, #1
 10346 0010 04F16800 		add	r0, r4, #104
 10347 0014 8DF89D31 		strb	r3, [sp, #413]
 10348 0018 FFF7FEFF 		bl	_ZNK6uavcan12MethodBinderIPNS_18NodeStatusProviderEMS1_FvRKNS_8protocol12GetNodeInfo_8Request_I
 10349 001c 90B1     		cbz	r0, .L1374
 10350 001e 226F     		ldr	r2, [r4, #112]
 10351 0020 A06E     		ldr	r0, [r4, #104]
 10352 0022 12F0010F 		tst	r2, #1
 10353 0026 4FEA6202 		asr	r2, r2, #1
 10354 002a 18BF     		it	ne
 10355 002c 8158     		ldrne	r1, [r0, r2]
 10356 002e E36E     		ldr	r3, [r4, #108]
 10357 0030 1044     		add	r0, r0, r2
 10358 0032 18BF     		it	ne
 10359 0034 CB58     		ldrne	r3, [r1, r3]
 10360 0036 06AA     		add	r2, sp, #24
 10361 0038 2946     		mov	r1, r5
 10362 003a 9847     		blx	r3
 10363 003c 9DF89D31 		ldrb	r3, [sp, #413]	@ zero_extendqisi2
 10364 0040 33B3     		cbz	r3, .L1373
 10365 0042 02E0     		b	.L1384
 10366              	.L1374:
 10367 0044 1348     		ldr	r0, .L1385
 10368 0046 FFF7FEFF 		bl	_ZN6uavcan16handleFatalErrorEPKc
 10369              	.L1384:
 10370 004a 2B68     		ldr	r3, [r5]
ARM GAS  /tmp/ccFEREDd.s 			page 183


 10371 004c 0BB1     		cbz	r3, .L1382
 10372 004e 1B7E     		ldrb	r3, [r3, #24]	@ zero_extendqisi2
 10373 0050 00E0     		b	.L1379
 10374              	.L1382:
 10375 0052 FF23     		movs	r3, #255
 10376              	.L1379:
 10377 0054 84F84C30 		strb	r3, [r4, #76]
 10378 0058 2A68     		ldr	r2, [r5]
 10379 005a 04F14000 		add	r0, r4, #64
 10380 005e 12B1     		cbz	r2, .L1383
 10381 0060 D37E     		ldrb	r3, [r2, #27]	@ zero_extendqisi2
 10382 0062 927E     		ldrb	r2, [r2, #26]	@ zero_extendqisi2
 10383 0064 00E0     		b	.L1380
 10384              	.L1383:
 10385 0066 FF23     		movs	r3, #255
 10386              	.L1380:
 10387 0068 8DF80F20 		strb	r2, [sp, #15]
 10388 006c 0026     		movs	r6, #0
 10389 006e 68AA     		add	r2, sp, #416
 10390 0070 0027     		movs	r7, #0
 10391 0072 62E96467 		strd	r6, [r2, #-400]!
 10392 0076 0DF10F01 		add	r1, sp, #15
 10393 007a 8DE80600 		stmia	sp, {r1, r2}
 10394 007e 06A9     		add	r1, sp, #24
 10395 0080 0022     		movs	r2, #0
 10396 0082 FFF7FEFF 		bl	_ZN6uavcan16GenericPublisherINS_8protocol12GetNodeInfo_ENS2_9Response_ILi0EEEE14genericPublishE
 10397 0086 0028     		cmp	r0, #0
 10398 0088 02DA     		bge	.L1373
 10399 008a 2046     		mov	r0, r4
 10400 008c FFF7FEFF 		bl	_ZN6uavcan13ServiceServerINS_8protocol12GetNodeInfo_ENS_12MethodBinderIPNS_18NodeStatusProvider
 10401              	.L1373:
 10402 0090 69B0     		add	sp, sp, #420
 10403              		@ sp needed
 10404 0092 F0BD     		pop	{r4, r5, r6, r7, pc}
 10405              	.L1386:
 10406              		.align	2
 10407              	.L1385:
 10408 0094 25020000 		.word	.LC22
 10409              		.size	_ZN6uavcan13ServiceServerINS_8protocol12GetNodeInfo_ENS_12MethodBinderIPNS_18NodeStatusProvi
 10410              		.section	.text.startup._GLOBAL__sub_I__ZN4node4LockC2Ev,"ax",%progbits
 10411              		.align	1
 10412              		.thumb
 10413              		.thumb_func
 10414              		.type	_GLOBAL__sub_I__ZN4node4LockC2Ev, %function
 10415              	_GLOBAL__sub_I__ZN4node4LockC2Ev:
 10416              		@ args = 0, pretend = 0, frame = 0
 10417              		@ frame_needed = 0, uses_anonymous_args = 0
 10418 0000 F8B5     		push	{r3, r4, r5, r6, r7, lr}
 10419 0002 FFF7FEFF 		bl	_ZN6uavcan22GlobalDataTypeRegistry8instanceEv
 10420 0006 037A     		ldrb	r3, [r0, #8]	@ zero_extendqisi2
 10421 0008 0546     		mov	r5, r0
 10422 000a 53BB     		cbnz	r3, .L1391
 10423 000c 184C     		ldr	r4, .L1429+8
 10424 000e 2368     		ldr	r3, [r4]
 10425 0010 DE07     		lsls	r6, r3, #31
 10426 0012 09D4     		bmi	.L1389
 10427 0014 1748     		ldr	r0, .L1429+12
ARM GAS  /tmp/ccFEREDd.s 			page 184


 10428 0016 FFF7FEFF 		bl	_ZN6uavcan22GlobalDataTypeRegistry5EntryC1Ev
 10429 001a 0123     		movs	r3, #1
 10430 001c 1548     		ldr	r0, .L1429+12
 10431 001e 1649     		ldr	r1, .L1429+16
 10432 0020 164A     		ldr	r2, .L1429+20
 10433 0022 2360     		str	r3, [r4]
 10434 0024 FFF7FEFF 		bl	__aeabi_atexit
 10435              	.L1389:
 10436 0028 124C     		ldr	r4, .L1429+12
 10437 002a 2846     		mov	r0, r5
 10438 002c 2146     		mov	r1, r4
 10439 002e FFF7FEFF 		bl	_ZN6uavcan22GlobalDataTypeRegistry6removeEPNS0_5EntryE
 10440 0032 A8B9     		cbnz	r0, .L1388
 10441 0034 0CA3     		adr	r3, .L1429
 10442 0036 D3E90023 		ldrd	r2, [r3]
 10443 003a C4E90223 		strd	r2, [r4, #8]
 10444 003e 104B     		ldr	r3, .L1429+24
 10445 0040 2060     		str	r0, [r4]
 10446 0042 2361     		str	r3, [r4, #16]
 10447 0044 0123     		movs	r3, #1
 10448 0046 2375     		strb	r3, [r4, #20]
 10449 0048 40F25513 		movw	r3, #341
 10450 004c 2846     		mov	r0, r5
 10451 004e A361     		str	r3, [r4, #24]
 10452 0050 2146     		mov	r1, r4
 10453 0052 FFF7FEFF 		bl	_ZN6uavcan22GlobalDataTypeRegistry6removeEPNS0_5EntryE
 10454 0056 18B9     		cbnz	r0, .L1388
 10455 0058 2846     		mov	r0, r5
 10456 005a 2146     		mov	r1, r4
 10457 005c FFF7FEFF 		bl	_ZN6uavcan22GlobalDataTypeRegistry10registImplEPNS0_5EntryE
 10458              	.L1388:
 10459 0060 90B1     		cbz	r0, .L1390
 10460              	.L1391:
 10461 0062 0848     		ldr	r0, .L1429+28
 10462 0064 FFF7FEFF 		bl	_ZN6uavcan16handleFatalErrorEPKc
 10463              	.L1430:
 10464              		.align	3
 10465              	.L1429:
 10466 0068 F1C6A7C1 		.word	-1045969167
 10467 006c D068080F 		.word	252209360
 10468 0070 00000000 		.word	_ZGVZN6uavcan22GlobalDataTypeRegistry16registerDataTypeINS_8protocol11NodeStatus_ILi0EEEEENS
 10469 0074 00000000 		.word	_ZZN6uavcan22GlobalDataTypeRegistry16registerDataTypeINS_8protocol11NodeStatus_ILi0EEEEENS0_
 10470 0078 00000000 		.word	_ZN6uavcan22GlobalDataTypeRegistry5EntryD1Ev
 10471 007c 00000000 		.word	__dso_handle
 10472 0080 CD030000 		.word	.LC38
 10473 0084 E8030000 		.word	.LC39
 10474              	.L1390:
 10475 0088 0126     		movs	r6, #1
 10476 008a FFF7FEFF 		bl	_ZN6uavcan22GlobalDataTypeRegistry8instanceEv
 10477 008e 3146     		mov	r1, r6
 10478 0090 FFF7FEFF 		bl	_ZN6uavcan22GlobalDataTypeRegistry16registerDataTypeINS_8protocol12GetNodeInfo_EEENS0_18Registr
 10479 0094 0028     		cmp	r0, #0
 10480 0096 E4D1     		bne	.L1391
 10481 0098 FFF7FEFF 		bl	_ZN6uavcan22GlobalDataTypeRegistry8instanceEv
 10482 009c 0221     		movs	r1, #2
 10483 009e FFF7FEFF 		bl	_ZN6uavcan22GlobalDataTypeRegistry16registerDataTypeINS_8protocol16GetDataTypeInfo_EEENS0_18Reg
 10484 00a2 0028     		cmp	r0, #0
ARM GAS  /tmp/ccFEREDd.s 			page 185


 10485 00a4 DDD1     		bne	.L1391
 10486 00a6 FFF7FEFF 		bl	_ZN6uavcan22GlobalDataTypeRegistry8instanceEv
 10487 00aa 43F6FF71 		movw	r1, #16383
 10488 00ae FFF7FEFF 		bl	_ZN6uavcan22GlobalDataTypeRegistry16registerDataTypeINS_8protocol5debug11LogMessage_ILi0EEEEENS
 10489 00b2 0028     		cmp	r0, #0
 10490 00b4 D5D1     		bne	.L1391
 10491 00b6 FFF7FEFF 		bl	_ZN6uavcan22GlobalDataTypeRegistry8instanceEv
 10492 00ba 037A     		ldrb	r3, [r0, #8]	@ zero_extendqisi2
 10493 00bc 0546     		mov	r5, r0
 10494 00be 002B     		cmp	r3, #0
 10495 00c0 CFD1     		bne	.L1391
 10496 00c2 A94C     		ldr	r4, .L1431+32
 10497 00c4 2368     		ldr	r3, [r4]
 10498 00c6 D807     		lsls	r0, r3, #31
 10499 00c8 08D4     		bmi	.L1396
 10500 00ca A848     		ldr	r0, .L1431+36
 10501 00cc FFF7FEFF 		bl	_ZN6uavcan22GlobalDataTypeRegistry5EntryC1Ev
 10502 00d0 A648     		ldr	r0, .L1431+36
 10503 00d2 A749     		ldr	r1, .L1431+40
 10504 00d4 A74A     		ldr	r2, .L1431+44
 10505 00d6 2660     		str	r6, [r4]
 10506 00d8 FFF7FEFF 		bl	__aeabi_atexit
 10507              	.L1396:
 10508 00dc A34C     		ldr	r4, .L1431+36
 10509 00de 2846     		mov	r0, r5
 10510 00e0 2146     		mov	r1, r4
 10511 00e2 FFF7FEFF 		bl	_ZN6uavcan22GlobalDataTypeRegistry6removeEPNS0_5EntryE
 10512 00e6 98B9     		cbnz	r0, .L1395
 10513 00e8 97A3     		adr	r3, .L1431
 10514 00ea D3E90023 		ldrd	r2, [r3]
 10515 00ee C4E90223 		strd	r2, [r4, #8]
 10516 00f2 A14B     		ldr	r3, .L1431+48
 10517 00f4 2060     		str	r0, [r4]
 10518 00f6 2361     		str	r3, [r4, #16]
 10519 00f8 0523     		movs	r3, #5
 10520 00fa 2075     		strb	r0, [r4, #20]
 10521 00fc A361     		str	r3, [r4, #24]
 10522 00fe 2846     		mov	r0, r5
 10523 0100 2146     		mov	r1, r4
 10524 0102 FFF7FEFF 		bl	_ZN6uavcan22GlobalDataTypeRegistry6removeEPNS0_5EntryE
 10525 0106 18B9     		cbnz	r0, .L1395
 10526 0108 2846     		mov	r0, r5
 10527 010a 2146     		mov	r1, r4
 10528 010c FFF7FEFF 		bl	_ZN6uavcan22GlobalDataTypeRegistry10registImplEPNS0_5EntryE
 10529              	.L1395:
 10530 0110 0028     		cmp	r0, #0
 10531 0112 A6D1     		bne	.L1391
 10532 0114 FFF7FEFF 		bl	_ZN6uavcan22GlobalDataTypeRegistry8instanceEv
 10533 0118 0421     		movs	r1, #4
 10534 011a FFF7FEFF 		bl	_ZN6uavcan22GlobalDataTypeRegistry16registerDataTypeINS_8protocol18GetTransportStats_EEENS0_18R
 10535 011e 0028     		cmp	r0, #0
 10536 0120 9FD1     		bne	.L1391
 10537 0122 FFF7FEFF 		bl	_ZN6uavcan22GlobalDataTypeRegistry8instanceEv
 10538 0126 037A     		ldrb	r3, [r0, #8]	@ zero_extendqisi2
 10539 0128 0546     		mov	r5, r0
 10540 012a 002B     		cmp	r3, #0
 10541 012c 99D1     		bne	.L1391
ARM GAS  /tmp/ccFEREDd.s 			page 186


 10542 012e 934C     		ldr	r4, .L1431+52
 10543 0130 2368     		ldr	r3, [r4]
 10544 0132 D907     		lsls	r1, r3, #31
 10545 0134 09D4     		bmi	.L1400
 10546 0136 9248     		ldr	r0, .L1431+56
 10547 0138 FFF7FEFF 		bl	_ZN6uavcan22GlobalDataTypeRegistry5EntryC1Ev
 10548 013c 0123     		movs	r3, #1
 10549 013e 9048     		ldr	r0, .L1431+56
 10550 0140 8B49     		ldr	r1, .L1431+40
 10551 0142 8C4A     		ldr	r2, .L1431+44
 10552 0144 2360     		str	r3, [r4]
 10553 0146 FFF7FEFF 		bl	__aeabi_atexit
 10554              	.L1400:
 10555 014a 8D4C     		ldr	r4, .L1431+56
 10556 014c 2846     		mov	r0, r5
 10557 014e 2146     		mov	r1, r4
 10558 0150 FFF7FEFF 		bl	_ZN6uavcan22GlobalDataTypeRegistry6removeEPNS0_5EntryE
 10559 0154 A0B9     		cbnz	r0, .L1399
 10560 0156 7EA3     		adr	r3, .L1431+8
 10561 0158 D3E90023 		ldrd	r2, [r3]
 10562 015c C4E90223 		strd	r2, [r4, #8]
 10563 0160 884B     		ldr	r3, .L1431+60
 10564 0162 2060     		str	r0, [r4]
 10565 0164 2361     		str	r3, [r4, #16]
 10566 0166 0123     		movs	r3, #1
 10567 0168 2375     		strb	r3, [r4, #20]
 10568 016a 0423     		movs	r3, #4
 10569 016c A361     		str	r3, [r4, #24]
 10570 016e 2846     		mov	r0, r5
 10571 0170 2146     		mov	r1, r4
 10572 0172 FFF7FEFF 		bl	_ZN6uavcan22GlobalDataTypeRegistry6removeEPNS0_5EntryE
 10573 0176 18B9     		cbnz	r0, .L1399
 10574 0178 2846     		mov	r0, r5
 10575 017a 2146     		mov	r1, r4
 10576 017c FFF7FEFF 		bl	_ZN6uavcan22GlobalDataTypeRegistry10registImplEPNS0_5EntryE
 10577              	.L1399:
 10578 0180 0028     		cmp	r0, #0
 10579 0182 7FF46EAF 		bne	.L1391
 10580 0186 FFF7FEFF 		bl	_ZN6uavcan22GlobalDataTypeRegistry8instanceEv
 10581 018a 0B21     		movs	r1, #11
 10582 018c FFF7FEFF 		bl	_ZN6uavcan22GlobalDataTypeRegistry16registerDataTypeINS_8protocol5param7GetSet_EEENS0_18Registr
 10583 0190 0028     		cmp	r0, #0
 10584 0192 7FF466AF 		bne	.L1391
 10585 0196 FFF7FEFF 		bl	_ZN6uavcan22GlobalDataTypeRegistry8instanceEv
 10586 019a 037A     		ldrb	r3, [r0, #8]	@ zero_extendqisi2
 10587 019c 0546     		mov	r5, r0
 10588 019e 002B     		cmp	r3, #0
 10589 01a0 7FF45FAF 		bne	.L1391
 10590 01a4 784C     		ldr	r4, .L1431+64
 10591 01a6 2368     		ldr	r3, [r4]
 10592 01a8 DA07     		lsls	r2, r3, #31
 10593 01aa 09D4     		bmi	.L1404
 10594 01ac 7748     		ldr	r0, .L1431+68
 10595 01ae FFF7FEFF 		bl	_ZN6uavcan22GlobalDataTypeRegistry5EntryC1Ev
 10596 01b2 0123     		movs	r3, #1
 10597 01b4 7548     		ldr	r0, .L1431+68
 10598 01b6 6E49     		ldr	r1, .L1431+40
ARM GAS  /tmp/ccFEREDd.s 			page 187


 10599 01b8 6E4A     		ldr	r2, .L1431+44
 10600 01ba 2360     		str	r3, [r4]
 10601 01bc FFF7FEFF 		bl	__aeabi_atexit
 10602              	.L1404:
 10603 01c0 724C     		ldr	r4, .L1431+68
 10604 01c2 2846     		mov	r0, r5
 10605 01c4 2146     		mov	r1, r4
 10606 01c6 FFF7FEFF 		bl	_ZN6uavcan22GlobalDataTypeRegistry6removeEPNS0_5EntryE
 10607 01ca 98B9     		cbnz	r0, .L1403
 10608 01cc 62A3     		adr	r3, .L1431+16
 10609 01ce D3E90023 		ldrd	r2, [r3]
 10610 01d2 C4E90223 		strd	r2, [r4, #8]
 10611 01d6 6E4B     		ldr	r3, .L1431+72
 10612 01d8 2060     		str	r0, [r4]
 10613 01da 2361     		str	r3, [r4, #16]
 10614 01dc 0A23     		movs	r3, #10
 10615 01de 2075     		strb	r0, [r4, #20]
 10616 01e0 A361     		str	r3, [r4, #24]
 10617 01e2 2846     		mov	r0, r5
 10618 01e4 2146     		mov	r1, r4
 10619 01e6 FFF7FEFF 		bl	_ZN6uavcan22GlobalDataTypeRegistry6removeEPNS0_5EntryE
 10620 01ea 18B9     		cbnz	r0, .L1403
 10621 01ec 2846     		mov	r0, r5
 10622 01ee 2146     		mov	r1, r4
 10623 01f0 FFF7FEFF 		bl	_ZN6uavcan22GlobalDataTypeRegistry10registImplEPNS0_5EntryE
 10624              	.L1403:
 10625 01f4 0028     		cmp	r0, #0
 10626 01f6 7FF434AF 		bne	.L1391
 10627 01fa FFF7FEFF 		bl	_ZN6uavcan22GlobalDataTypeRegistry8instanceEv
 10628 01fe 037A     		ldrb	r3, [r0, #8]	@ zero_extendqisi2
 10629 0200 0546     		mov	r5, r0
 10630 0202 002B     		cmp	r3, #0
 10631 0204 7FF42DAF 		bne	.L1391
 10632 0208 624C     		ldr	r4, .L1431+76
 10633 020a 2368     		ldr	r3, [r4]
 10634 020c DB07     		lsls	r3, r3, #31
 10635 020e 09D4     		bmi	.L1407
 10636 0210 6148     		ldr	r0, .L1431+80
 10637 0212 FFF7FEFF 		bl	_ZN6uavcan22GlobalDataTypeRegistry5EntryC1Ev
 10638 0216 0123     		movs	r3, #1
 10639 0218 5F48     		ldr	r0, .L1431+80
 10640 021a 5549     		ldr	r1, .L1431+40
 10641 021c 554A     		ldr	r2, .L1431+44
 10642 021e 2360     		str	r3, [r4]
 10643 0220 FFF7FEFF 		bl	__aeabi_atexit
 10644              	.L1407:
 10645 0224 5C4C     		ldr	r4, .L1431+80
 10646 0226 2846     		mov	r0, r5
 10647 0228 2146     		mov	r1, r4
 10648 022a FFF7FEFF 		bl	_ZN6uavcan22GlobalDataTypeRegistry6removeEPNS0_5EntryE
 10649 022e 98B9     		cbnz	r0, .L1406
 10650 0230 4BA3     		adr	r3, .L1431+24
 10651 0232 D3E90023 		ldrd	r2, [r3]
 10652 0236 C4E90223 		strd	r2, [r4, #8]
 10653 023a 584B     		ldr	r3, .L1431+84
 10654 023c 2060     		str	r0, [r4]
 10655 023e 2361     		str	r3, [r4, #16]
ARM GAS  /tmp/ccFEREDd.s 			page 188


 10656 0240 0123     		movs	r3, #1
 10657 0242 2375     		strb	r3, [r4, #20]
 10658 0244 A361     		str	r3, [r4, #24]
 10659 0246 2846     		mov	r0, r5
 10660 0248 2146     		mov	r1, r4
 10661 024a FFF7FEFF 		bl	_ZN6uavcan22GlobalDataTypeRegistry6removeEPNS0_5EntryE
 10662 024e 18B9     		cbnz	r0, .L1406
 10663 0250 2846     		mov	r0, r5
 10664 0252 2146     		mov	r1, r4
 10665 0254 FFF7FEFF 		bl	_ZN6uavcan22GlobalDataTypeRegistry10registImplEPNS0_5EntryE
 10666              	.L1406:
 10667 0258 0028     		cmp	r0, #0
 10668 025a 7FF402AF 		bne	.L1391
 10669 025e FFF7FEFF 		bl	_ZN6uavcan22GlobalDataTypeRegistry8instanceEv
 10670 0262 2821     		movs	r1, #40
 10671 0264 FFF7FEFF 		bl	_ZN6uavcan22GlobalDataTypeRegistry16registerDataTypeINS_8protocol4file20BeginFirmwareUpdate_EEE
 10672 0268 0028     		cmp	r0, #0
 10673 026a 7FF4FAAE 		bne	.L1391
 10674 026e 4C48     		ldr	r0, .L1431+88
 10675 0270 4C4B     		ldr	r3, .L1431+92
 10676 0272 4D4E     		ldr	r6, .L1431+96
 10677 0274 0360     		str	r3, [r0]
 10678 0276 4D4B     		ldr	r3, .L1431+100
 10679 0278 0124     		movs	r4, #1
 10680 027a 8360     		str	r3, [r0, #8]	@ float
 10681 027c 0474     		strb	r4, [r0, #16]
 10682 027e 4660     		str	r6, [r0, #4]	@ float
 10683 0280 C660     		str	r6, [r0, #12]	@ float
 10684 0282 FFF7FEFF 		bl	configRegisterParam_
 10685 0286 4A48     		ldr	r0, .L1431+104
 10686 0288 4A4B     		ldr	r3, .L1431+108
 10687 028a 4FF07E57 		mov	r7, #1065353216
 10688 028e 0360     		str	r3, [r0]
 10689 0290 494B     		ldr	r3, .L1431+112
 10690 0292 8760     		str	r7, [r0, #8]	@ float
 10691 0294 4360     		str	r3, [r0, #4]	@ float
 10692 0296 494B     		ldr	r3, .L1431+116
 10693 0298 0474     		strb	r4, [r0, #16]
 10694 029a C360     		str	r3, [r0, #12]	@ float
 10695 029c FFF7FEFF 		bl	configRegisterParam_
 10696 02a0 4748     		ldr	r0, .L1431+120
 10697 02a2 484B     		ldr	r3, .L1431+124
 10698 02a4 0025     		movs	r5, #0
 10699 02a6 0360     		str	r3, [r0]
 10700 02a8 4560     		str	r5, [r0, #4]	@ float
 10701 02aa 8560     		str	r5, [r0, #8]	@ float
 10702 02ac 0474     		strb	r4, [r0, #16]
 10703 02ae C660     		str	r6, [r0, #12]	@ float
 10704 02b0 FFF7FEFF 		bl	configRegisterParam_
 10705 02b4 4448     		ldr	r0, .L1431+128
 10706 02b6 454B     		ldr	r3, .L1431+132
 10707 02b8 4760     		str	r7, [r0, #4]	@ float
 10708 02ba 454F     		ldr	r7, .L1431+136
 10709 02bc 0360     		str	r3, [r0]
 10710 02be 8560     		str	r5, [r0, #8]	@ float
 10711 02c0 0474     		strb	r4, [r0, #16]
 10712 02c2 C760     		str	r7, [r0, #12]	@ float
ARM GAS  /tmp/ccFEREDd.s 			page 189


 10713 02c4 FFF7FEFF 		bl	configRegisterParam_
 10714 02c8 4248     		ldr	r0, .L1431+140
 10715 02ca 434B     		ldr	r3, .L1431+144
 10716 02cc 0474     		strb	r4, [r0, #16]
 10717 02ce 0360     		str	r3, [r0]
 10718 02d0 424B     		ldr	r3, .L1431+148
 10719 02d2 C660     		str	r6, [r0, #12]	@ float
 10720 02d4 4360     		str	r3, [r0, #4]	@ float
 10721 02d6 424B     		ldr	r3, .L1431+152
 10722 02d8 8360     		str	r3, [r0, #8]	@ float
 10723 02da FFF7FEFF 		bl	configRegisterParam_
 10724 02de 4148     		ldr	r0, .L1431+156
 10725 02e0 414B     		ldr	r3, .L1431+160
 10726 02e2 8560     		str	r5, [r0, #8]	@ float
 10727 02e4 0360     		str	r3, [r0]
 10728 02e6 414B     		ldr	r3, .L1431+164
 10729 02e8 0474     		strb	r4, [r0, #16]
 10730 02ea 4360     		str	r3, [r0, #4]	@ float
 10731 02ec C760     		str	r7, [r0, #12]	@ float
 10732 02ee FFF7FEFF 		bl	configRegisterParam_
 10733 02f2 3F4C     		ldr	r4, .L1431+168
 10734 02f4 04F58065 		add	r5, r4, #1024
 10735              	.L1410:
 10736 02f8 0023     		movs	r3, #0
 10737 02fa 0022     		movs	r2, #0
 10738 02fc 44E90223 		strd	r2, [r4, #-8]
 10739 0300 2046     		mov	r0, r4
 10740 0302 FFF7FEFF 		bl	_ZN6uavcan8CanFrameC1Ev
 10741 0306 0023     		movs	r3, #0
 10742 0308 2382     		strh	r3, [r4, #16]	@ movhi
 10743 030a 2034     		adds	r4, r4, #32
 10744 030c AC42     		cmp	r4, r5
 10745 030e F3D1     		bne	.L1410
 10746 0310 384C     		ldr	r4, .L1431+172
 10747 0312 04F58065 		add	r5, r4, #1024
 10748              	.L1411:
 10749 0316 0026     		movs	r6, #0
 10750 0318 0027     		movs	r7, #0
 10751 031a 44E90267 		strd	r6, [r4, #-8]
 10752 031e 2046     		mov	r0, r4
 10753 0320 FFF7FEFF 		bl	_ZN6uavcan8CanFrameC1Ev
 10754 0324 0023     		movs	r3, #0
 10755 0326 2382     		strh	r3, [r4, #16]	@ movhi
 10756 0328 2034     		adds	r4, r4, #32
 10757 032a AC42     		cmp	r4, r5
 10758 032c F3D1     		bne	.L1411
 10759 032e 3248     		ldr	r0, .L1431+176
 10760 0330 324C     		ldr	r4, .L1431+180
 10761 0332 A0F50061 		sub	r1, r0, #2048
 10762 0336 FFF7FEFF 		bl	_ZN12uavcan_stm329CanDriverC1ILj32EEERA2_AT__NS_9CanRxItemE
 10763 033a 3149     		ldr	r1, .L1431+184
 10764 033c 0D4A     		ldr	r2, .L1431+44
 10765 033e 3148     		ldr	r0, .L1431+188
 10766 0340 FFF7FEFF 		bl	__aeabi_atexit
 10767 0344 60E0     		b	.L1432
 10768              	.L1433:
 10769 0346 00BF     		.align	3
ARM GAS  /tmp/ccFEREDd.s 			page 190


 10770              	.L1431:
 10771 0348 F017304A 		.word	1244665840
 10772 034c 39059E56 		.word	1453196601
 10773 0350 DBC293A7 		.word	-1483488549
 10774 0354 16112720 		.word	539431190
 10775 0358 CDD269EB 		.word	-345386291
 10776 035c C51A133B 		.word	991107781
 10777 0360 401DA120 		.word	547429696
 10778 0364 26812A0B 		.word	187334950
 10779 0368 00000000 		.word	_ZGVZN6uavcan22GlobalDataTypeRegistry16registerDataTypeINS_8protocol12RestartNode_EEENS0_18R
 10780 036c 00000000 		.word	_ZZN6uavcan22GlobalDataTypeRegistry16registerDataTypeINS_8protocol12RestartNode_EEENS0_18Reg
 10781 0370 00000000 		.word	_ZN6uavcan22GlobalDataTypeRegistry5EntryD1Ev
 10782 0374 00000000 		.word	__dso_handle
 10783 0378 C8010000 		.word	.LC19
 10784 037c 00000000 		.word	_ZGVZN6uavcan22GlobalDataTypeRegistry16registerDataTypeINS_8protocol15GlobalTimeSync_ILi0EEE
 10785 0380 00000000 		.word	_ZZN6uavcan22GlobalDataTypeRegistry16registerDataTypeINS_8protocol15GlobalTimeSync_ILi0EEEEE
 10786 0384 80010000 		.word	.LC17
 10787 0388 00000000 		.word	_ZGVZN6uavcan22GlobalDataTypeRegistry16registerDataTypeINS_8protocol5param14ExecuteOpcode_EE
 10788 038c 00000000 		.word	_ZZN6uavcan22GlobalDataTypeRegistry16registerDataTypeINS_8protocol5param14ExecuteOpcode_EEEN
 10789 0390 01020000 		.word	.LC21
 10790 0394 00000000 		.word	_ZGVZN6uavcan22GlobalDataTypeRegistry16registerDataTypeINS_8protocol15dynamic_node_id11Alloc
 10791 0398 00000000 		.word	_ZZN6uavcan22GlobalDataTypeRegistry16registerDataTypeINS_8protocol15dynamic_node_id11Allocat
 10792 039c F8030000 		.word	.LC40
 10793 03a0 00000000 		.word	.LANCHOR29
 10794 03a4 23040000 		.word	.LC41
 10795 03a8 00247449 		.word	1232348160
 10796 03ac 00409C46 		.word	1184645120
 10797 03b0 00000000 		.word	.LANCHOR19
 10798 03b4 33040000 		.word	.LC42
 10799 03b8 00004842 		.word	1112014848
 10800 03bc 0000FA42 		.word	1123680256
 10801 03c0 00000000 		.word	.LANCHOR23
 10802 03c4 42040000 		.word	.LC43
 10803 03c8 00000000 		.word	.LANCHOR24
 10804 03cc 53040000 		.word	.LC44
 10805 03d0 0000F841 		.word	1106771968
 10806 03d4 00000000 		.word	.LANCHOR18
 10807 03d8 64040000 		.word	.LC45
 10808 03dc 00504348 		.word	1212370944
 10809 03e0 0000FA44 		.word	1157234688
 10810 03e4 00000000 		.word	.LANCHOR16
 10811 03e8 75040000 		.word	.LC46
 10812 03ec 0000A041 		.word	1101004800
 10813 03f0 08000000 		.word	.LANCHOR7+8
 10814 03f4 08040000 		.word	.LANCHOR7+1032
 10815 03f8 00080000 		.word	.LANCHOR7+2048
 10816 03fc 00000000 		.word	.LANCHOR4
 10817 0400 00000000 		.word	_ZN12uavcan_stm3213CanInitHelperILj32EED1Ev
 10818 0404 00000000 		.word	.LANCHOR7
 10819              	.L1432:
 10820 0408 0E48     		ldr	r0, .L1434
 10821 040a FFF7FEFF 		bl	_ZN10chibios_rt5MutexC1Ev
 10822 040e 0E49     		ldr	r1, .L1434+4
 10823 0410 0E4A     		ldr	r2, .L1434+8
 10824 0412 0F48     		ldr	r0, .L1434+12
 10825 0414 FFF7FEFF 		bl	__aeabi_atexit
 10826 0418 0E49     		ldr	r1, .L1434+16
ARM GAS  /tmp/ccFEREDd.s 			page 191


 10827 041a 0C4A     		ldr	r2, .L1434+8
 10828 041c 0E48     		ldr	r0, .L1434+20
 10829 041e FFF7FEFF 		bl	__aeabi_atexit
 10830 0422 2046     		mov	r0, r4
 10831 0424 FFF7FEFF 		bl	_ZN10chibios_rt10BaseThreadC2Ev
 10832 0428 0C4B     		ldr	r3, .L1434+24
 10833 042a 2046     		mov	r0, r4
 10834 042c 2360     		str	r3, [r4]
 10835 042e 04F64863 		addw	r3, r4, #3656
 10836 0432 C3E90067 		strd	r6, [r3]
 10837 0436 BDE8F840 		pop	{r3, r4, r5, r6, r7, lr}
 10838 043a 0949     		ldr	r1, .L1434+28
 10839 043c 034A     		ldr	r2, .L1434+8
 10840 043e FFF7FEBF 		b	__aeabi_atexit
 10841              	.L1435:
 10842 0442 00BF     		.align	2
 10843              	.L1434:
 10844 0444 00000000 		.word	.LANCHOR1
 10845 0448 00000000 		.word	_ZN4node12_GLOBAL__N_112ParamManagerD1Ev
 10846 044c 00000000 		.word	__dso_handle
 10847 0450 00000000 		.word	.LANCHOR22
 10848 0454 00000000 		.word	_ZN4node12_GLOBAL__N_121RestartRequestHandlerD1Ev
 10849 0458 00000000 		.word	.LANCHOR17
 10850 045c 08000000 		.word	.LANCHOR31+8
 10851 0460 00000000 		.word	_ZN4node12_GLOBAL__N_15._345D1Ev
 10852              		.size	_GLOBAL__sub_I__ZN4node4LockC2Ev, .-_GLOBAL__sub_I__ZN4node4LockC2Ev
 10853              		.section	.init_array,"aw",%init_array
 10854              		.align	2
 10855 0000 00000000 		.word	_GLOBAL__sub_I__ZN4node4LockC2Ev(target1)
 10856              		.weak	_ZZN6uavcan22GlobalDataTypeRegistry16registerDataTypeINS_8protocol4file20BeginFirmwareUpdate
 10857              		.section	.bss._ZZN6uavcan22GlobalDataTypeRegistry16registerDataTypeINS_8protocol4file20BeginFirmwa
 10858              		.align	3
 10859              		.type	_ZZN6uavcan22GlobalDataTypeRegistry16registerDataTypeINS_8protocol4file20BeginFirmwareUpdate
 10860              		.size	_ZZN6uavcan22GlobalDataTypeRegistry16registerDataTypeINS_8protocol4file20BeginFirmwareUpdate
 10861              	_ZZN6uavcan22GlobalDataTypeRegistry16registerDataTypeINS_8protocol4file20BeginFirmwareUpdate_EEENS0
 10862 0000 00000000 		.space	32
 10862      00000000 
 10862      00000000 
 10862      00000000 
 10862      00000000 
 10863              		.weak	_ZZN6uavcan22GlobalDataTypeRegistry16registerDataTypeINS_8protocol15dynamic_node_id11Allocat
 10864              		.section	.bss._ZZN6uavcan22GlobalDataTypeRegistry16registerDataTypeINS_8protocol15dynamic_node_id1
 10865              		.align	3
 10866              		.type	_ZZN6uavcan22GlobalDataTypeRegistry16registerDataTypeINS_8protocol15dynamic_node_id11Allocat
 10867              		.size	_ZZN6uavcan22GlobalDataTypeRegistry16registerDataTypeINS_8protocol15dynamic_node_id11Allocat
 10868              	_ZZN6uavcan22GlobalDataTypeRegistry16registerDataTypeINS_8protocol15dynamic_node_id11Allocation_ILi
 10869 0000 00000000 		.space	32
 10869      00000000 
 10869      00000000 
 10869      00000000 
 10869      00000000 
 10870              		.weak	_ZZN6uavcan22GlobalDataTypeRegistry16registerDataTypeINS_8protocol5param14ExecuteOpcode_EEEN
 10871              		.section	.bss._ZZN6uavcan22GlobalDataTypeRegistry16registerDataTypeINS_8protocol5param14ExecuteOpc
 10872              		.align	3
 10873              		.type	_ZZN6uavcan22GlobalDataTypeRegistry16registerDataTypeINS_8protocol5param14ExecuteOpcode_EEEN
 10874              		.size	_ZZN6uavcan22GlobalDataTypeRegistry16registerDataTypeINS_8protocol5param14ExecuteOpcode_EEEN
 10875              	_ZZN6uavcan22GlobalDataTypeRegistry16registerDataTypeINS_8protocol5param14ExecuteOpcode_EEENS0_18Re
ARM GAS  /tmp/ccFEREDd.s 			page 192


 10876 0000 00000000 		.space	32
 10876      00000000 
 10876      00000000 
 10876      00000000 
 10876      00000000 
 10877              		.weak	_ZZN6uavcan22GlobalDataTypeRegistry16registerDataTypeINS_8protocol5param7GetSet_EEENS0_18Reg
 10878              		.section	.bss._ZZN6uavcan22GlobalDataTypeRegistry16registerDataTypeINS_8protocol5param7GetSet_EEEN
 10879              		.align	3
 10880              		.type	_ZZN6uavcan22GlobalDataTypeRegistry16registerDataTypeINS_8protocol5param7GetSet_EEENS0_18Reg
 10881              		.size	_ZZN6uavcan22GlobalDataTypeRegistry16registerDataTypeINS_8protocol5param7GetSet_EEENS0_18Reg
 10882              	_ZZN6uavcan22GlobalDataTypeRegistry16registerDataTypeINS_8protocol5param7GetSet_EEENS0_18Registrati
 10883 0000 00000000 		.space	32
 10883      00000000 
 10883      00000000 
 10883      00000000 
 10883      00000000 
 10884              		.weak	_ZZN6uavcan22GlobalDataTypeRegistry16registerDataTypeINS_8protocol15GlobalTimeSync_ILi0EEEEE
 10885              		.section	.bss._ZZN6uavcan22GlobalDataTypeRegistry16registerDataTypeINS_8protocol15GlobalTimeSync_I
 10886              		.align	3
 10887              		.type	_ZZN6uavcan22GlobalDataTypeRegistry16registerDataTypeINS_8protocol15GlobalTimeSync_ILi0EEEEE
 10888              		.size	_ZZN6uavcan22GlobalDataTypeRegistry16registerDataTypeINS_8protocol15GlobalTimeSync_ILi0EEEEE
 10889              	_ZZN6uavcan22GlobalDataTypeRegistry16registerDataTypeINS_8protocol15GlobalTimeSync_ILi0EEEEENS0_18R
 10890 0000 00000000 		.space	32
 10890      00000000 
 10890      00000000 
 10890      00000000 
 10890      00000000 
 10891              		.weak	_ZZN6uavcan22GlobalDataTypeRegistry16registerDataTypeINS_8protocol18GetTransportStats_EEENS0
 10892              		.section	.bss._ZZN6uavcan22GlobalDataTypeRegistry16registerDataTypeINS_8protocol18GetTransportStat
 10893              		.align	3
 10894              		.type	_ZZN6uavcan22GlobalDataTypeRegistry16registerDataTypeINS_8protocol18GetTransportStats_EEENS0
 10895              		.size	_ZZN6uavcan22GlobalDataTypeRegistry16registerDataTypeINS_8protocol18GetTransportStats_EEENS0
 10896              	_ZZN6uavcan22GlobalDataTypeRegistry16registerDataTypeINS_8protocol18GetTransportStats_EEENS0_18Regi
 10897 0000 00000000 		.space	32
 10897      00000000 
 10897      00000000 
 10897      00000000 
 10897      00000000 
 10898              		.weak	_ZZN6uavcan22GlobalDataTypeRegistry16registerDataTypeINS_8protocol12RestartNode_EEENS0_18Reg
 10899              		.section	.bss._ZZN6uavcan22GlobalDataTypeRegistry16registerDataTypeINS_8protocol12RestartNode_EEEN
 10900              		.align	3
 10901              		.type	_ZZN6uavcan22GlobalDataTypeRegistry16registerDataTypeINS_8protocol12RestartNode_EEENS0_18Reg
 10902              		.size	_ZZN6uavcan22GlobalDataTypeRegistry16registerDataTypeINS_8protocol12RestartNode_EEENS0_18Reg
 10903              	_ZZN6uavcan22GlobalDataTypeRegistry16registerDataTypeINS_8protocol12RestartNode_EEENS0_18Registrati
 10904 0000 00000000 		.space	32
 10904      00000000 
 10904      00000000 
 10904      00000000 
 10904      00000000 
 10905              		.weak	_ZZN6uavcan22GlobalDataTypeRegistry16registerDataTypeINS_8protocol5debug11LogMessage_ILi0EEE
 10906              		.section	.bss._ZZN6uavcan22GlobalDataTypeRegistry16registerDataTypeINS_8protocol5debug11LogMessage
 10907              		.align	3
 10908              		.type	_ZZN6uavcan22GlobalDataTypeRegistry16registerDataTypeINS_8protocol5debug11LogMessage_ILi0EEE
 10909              		.size	_ZZN6uavcan22GlobalDataTypeRegistry16registerDataTypeINS_8protocol5debug11LogMessage_ILi0EEE
 10910              	_ZZN6uavcan22GlobalDataTypeRegistry16registerDataTypeINS_8protocol5debug11LogMessage_ILi0EEEEENS0_1
 10911 0000 00000000 		.space	32
 10911      00000000 
ARM GAS  /tmp/ccFEREDd.s 			page 193


 10911      00000000 
 10911      00000000 
 10911      00000000 
 10912              		.weak	_ZZN6uavcan22GlobalDataTypeRegistry16registerDataTypeINS_8protocol16GetDataTypeInfo_EEENS0_1
 10913              		.section	.bss._ZZN6uavcan22GlobalDataTypeRegistry16registerDataTypeINS_8protocol16GetDataTypeInfo_
 10914              		.align	3
 10915              		.type	_ZZN6uavcan22GlobalDataTypeRegistry16registerDataTypeINS_8protocol16GetDataTypeInfo_EEENS0_1
 10916              		.size	_ZZN6uavcan22GlobalDataTypeRegistry16registerDataTypeINS_8protocol16GetDataTypeInfo_EEENS0_1
 10917              	_ZZN6uavcan22GlobalDataTypeRegistry16registerDataTypeINS_8protocol16GetDataTypeInfo_EEENS0_18Regist
 10918 0000 00000000 		.space	32
 10918      00000000 
 10918      00000000 
 10918      00000000 
 10918      00000000 
 10919              		.weak	_ZZN6uavcan22GlobalDataTypeRegistry16registerDataTypeINS_8protocol12GetNodeInfo_EEENS0_18Reg
 10920              		.section	.bss._ZZN6uavcan22GlobalDataTypeRegistry16registerDataTypeINS_8protocol12GetNodeInfo_EEEN
 10921              		.align	3
 10922              		.type	_ZZN6uavcan22GlobalDataTypeRegistry16registerDataTypeINS_8protocol12GetNodeInfo_EEENS0_18Reg
 10923              		.size	_ZZN6uavcan22GlobalDataTypeRegistry16registerDataTypeINS_8protocol12GetNodeInfo_EEENS0_18Reg
 10924              	_ZZN6uavcan22GlobalDataTypeRegistry16registerDataTypeINS_8protocol12GetNodeInfo_EEENS0_18Registrati
 10925 0000 00000000 		.space	32
 10925      00000000 
 10925      00000000 
 10925      00000000 
 10925      00000000 
 10926              		.weak	_ZZN6uavcan22GlobalDataTypeRegistry16registerDataTypeINS_8protocol11NodeStatus_ILi0EEEEENS0_
 10927              		.section	.bss._ZZN6uavcan22GlobalDataTypeRegistry16registerDataTypeINS_8protocol11NodeStatus_ILi0E
 10928              		.align	3
 10929              		.type	_ZZN6uavcan22GlobalDataTypeRegistry16registerDataTypeINS_8protocol11NodeStatus_ILi0EEEEENS0_
 10930              		.size	_ZZN6uavcan22GlobalDataTypeRegistry16registerDataTypeINS_8protocol11NodeStatus_ILi0EEEEENS0_
 10931              	_ZZN6uavcan22GlobalDataTypeRegistry16registerDataTypeINS_8protocol11NodeStatus_ILi0EEEEENS0_18Regis
 10932 0000 00000000 		.space	32
 10932      00000000 
 10932      00000000 
 10932      00000000 
 10932      00000000 
 10933              		.weak	_ZTVN6uavcan20StaticTransferBufferILt129EEE
 10934              		.section	.rodata._ZTVN6uavcan20StaticTransferBufferILt129EEE,"aG",%progbits,_ZTVN6uavcan20StaticTr
 10935              		.align	3
 10936              		.type	_ZTVN6uavcan20StaticTransferBufferILt129EEE, %object
 10937              		.size	_ZTVN6uavcan20StaticTransferBufferILt129EEE, 24
 10938              	_ZTVN6uavcan20StaticTransferBufferILt129EEE:
 10939 0000 00000000 		.word	0
 10940 0004 00000000 		.word	0
 10941 0008 00000000 		.word	_ZN6uavcan20StaticTransferBufferILt129EED1Ev
 10942 000c 00000000 		.word	_ZN6uavcan20StaticTransferBufferILt129EED0Ev
 10943 0010 00000000 		.word	_ZNK6uavcan24StaticTransferBufferImpl4readEjPhj
 10944 0014 00000000 		.word	_ZN6uavcan24StaticTransferBufferImpl5writeEjPKhj
 10945              		.weak	_ZTVN6uavcan20StaticTransferBufferILt371EEE
 10946              		.section	.rodata._ZTVN6uavcan20StaticTransferBufferILt371EEE,"aG",%progbits,_ZTVN6uavcan20StaticTr
 10947              		.align	3
 10948              		.type	_ZTVN6uavcan20StaticTransferBufferILt371EEE, %object
 10949              		.size	_ZTVN6uavcan20StaticTransferBufferILt371EEE, 24
 10950              	_ZTVN6uavcan20StaticTransferBufferILt371EEE:
 10951 0000 00000000 		.word	0
 10952 0004 00000000 		.word	0
 10953 0008 00000000 		.word	_ZN6uavcan20StaticTransferBufferILt371EED1Ev
ARM GAS  /tmp/ccFEREDd.s 			page 194


 10954 000c 00000000 		.word	_ZN6uavcan20StaticTransferBufferILt371EED0Ev
 10955 0010 00000000 		.word	_ZNK6uavcan24StaticTransferBufferImpl4readEjPhj
 10956 0014 00000000 		.word	_ZN6uavcan24StaticTransferBufferImpl5writeEjPKhj
 10957              		.weak	_ZTVN6uavcan20StaticTransferBufferILt73EEE
 10958              		.section	.rodata._ZTVN6uavcan20StaticTransferBufferILt73EEE,"aG",%progbits,_ZTVN6uavcan20StaticTra
 10959              		.align	3
 10960              		.type	_ZTVN6uavcan20StaticTransferBufferILt73EEE, %object
 10961              		.size	_ZTVN6uavcan20StaticTransferBufferILt73EEE, 24
 10962              	_ZTVN6uavcan20StaticTransferBufferILt73EEE:
 10963 0000 00000000 		.word	0
 10964 0004 00000000 		.word	0
 10965 0008 00000000 		.word	_ZN6uavcan20StaticTransferBufferILt73EED1Ev
 10966 000c 00000000 		.word	_ZN6uavcan20StaticTransferBufferILt73EED0Ev
 10967 0010 00000000 		.word	_ZNK6uavcan24StaticTransferBufferImpl4readEjPhj
 10968 0014 00000000 		.word	_ZN6uavcan24StaticTransferBufferImpl5writeEjPKhj
 10969              		.weak	_ZTVN6uavcan20StaticTransferBufferILt1EEE
 10970              		.section	.rodata._ZTVN6uavcan20StaticTransferBufferILt1EEE,"aG",%progbits,_ZTVN6uavcan20StaticTran
 10971              		.align	3
 10972              		.type	_ZTVN6uavcan20StaticTransferBufferILt1EEE, %object
 10973              		.size	_ZTVN6uavcan20StaticTransferBufferILt1EEE, 24
 10974              	_ZTVN6uavcan20StaticTransferBufferILt1EEE:
 10975 0000 00000000 		.word	0
 10976 0004 00000000 		.word	0
 10977 0008 00000000 		.word	_ZN6uavcan20StaticTransferBufferILt1EED1Ev
 10978 000c 00000000 		.word	_ZN6uavcan20StaticTransferBufferILt1EED0Ev
 10979 0010 00000000 		.word	_ZNK6uavcan24StaticTransferBufferImpl4readEjPhj
 10980 0014 00000000 		.word	_ZN6uavcan24StaticTransferBufferImpl5writeEjPKhj
 10981              		.weak	_ZTVN6uavcan20StaticTransferBufferILt93EEE
 10982              		.section	.rodata._ZTVN6uavcan20StaticTransferBufferILt93EEE,"aG",%progbits,_ZTVN6uavcan20StaticTra
 10983              		.align	3
 10984              		.type	_ZTVN6uavcan20StaticTransferBufferILt93EEE, %object
 10985              		.size	_ZTVN6uavcan20StaticTransferBufferILt93EEE, 24
 10986              	_ZTVN6uavcan20StaticTransferBufferILt93EEE:
 10987 0000 00000000 		.word	0
 10988 0004 00000000 		.word	0
 10989 0008 00000000 		.word	_ZN6uavcan20StaticTransferBufferILt93EED1Ev
 10990 000c 00000000 		.word	_ZN6uavcan20StaticTransferBufferILt93EED0Ev
 10991 0010 00000000 		.word	_ZNK6uavcan24StaticTransferBufferImpl4readEjPhj
 10992 0014 00000000 		.word	_ZN6uavcan24StaticTransferBufferImpl5writeEjPKhj
 10993              		.weak	_ZTVN6uavcan20StaticTransferBufferILt377EEE
 10994              		.section	.rodata._ZTVN6uavcan20StaticTransferBufferILt377EEE,"aG",%progbits,_ZTVN6uavcan20StaticTr
 10995              		.align	3
 10996              		.type	_ZTVN6uavcan20StaticTransferBufferILt377EEE, %object
 10997              		.size	_ZTVN6uavcan20StaticTransferBufferILt377EEE, 24
 10998              	_ZTVN6uavcan20StaticTransferBufferILt377EEE:
 10999 0000 00000000 		.word	0
 11000 0004 00000000 		.word	0
 11001 0008 00000000 		.word	_ZN6uavcan20StaticTransferBufferILt377EED1Ev
 11002 000c 00000000 		.word	_ZN6uavcan20StaticTransferBufferILt377EED0Ev
 11003 0010 00000000 		.word	_ZNK6uavcan24StaticTransferBufferImpl4readEjPhj
 11004 0014 00000000 		.word	_ZN6uavcan24StaticTransferBufferImpl5writeEjPKhj
 11005              		.weak	_ZTVN6uavcan25LoopbackFrameListenerBaseE
 11006              		.section	.rodata._ZTVN6uavcan25LoopbackFrameListenerBaseE,"aG",%progbits,_ZTVN6uavcan25LoopbackFra
 11007              		.align	3
 11008              		.type	_ZTVN6uavcan25LoopbackFrameListenerBaseE, %object
 11009              		.size	_ZTVN6uavcan25LoopbackFrameListenerBaseE, 20
 11010              	_ZTVN6uavcan25LoopbackFrameListenerBaseE:
ARM GAS  /tmp/ccFEREDd.s 			page 195


 11011 0000 00000000 		.word	0
 11012 0004 00000000 		.word	0
 11013 0008 00000000 		.word	0
 11014 000c 00000000 		.word	0
 11015 0010 00000000 		.word	__cxa_pure_virtual
 11016              		.weak	_ZTVN6uavcan15DeadlineHandlerE
 11017              		.section	.rodata._ZTVN6uavcan15DeadlineHandlerE,"aG",%progbits,_ZTVN6uavcan15DeadlineHandlerE,comd
 11018              		.align	3
 11019              		.type	_ZTVN6uavcan15DeadlineHandlerE, %object
 11020              		.size	_ZTVN6uavcan15DeadlineHandlerE, 20
 11021              	_ZTVN6uavcan15DeadlineHandlerE:
 11022 0000 00000000 		.word	0
 11023 0004 00000000 		.word	0
 11024 0008 00000000 		.word	0
 11025 000c 00000000 		.word	0
 11026 0010 00000000 		.word	__cxa_pure_virtual
 11027              		.weak	_ZTVN6uavcan17GenericSubscriberINS_8protocol12GetNodeInfo_ENS2_8Request_ILi0EEENS_16Transfer
 11028              		.section	.rodata._ZTVN6uavcan17GenericSubscriberINS_8protocol12GetNodeInfo_ENS2_8Request_ILi0EEENS
 11029              		.align	3
 11030              		.type	_ZTVN6uavcan17GenericSubscriberINS_8protocol12GetNodeInfo_ENS2_8Request_ILi0EEENS_16Transfer
 11031              		.size	_ZTVN6uavcan17GenericSubscriberINS_8protocol12GetNodeInfo_ENS2_8Request_ILi0EEENS_16Transfer
 11032              	_ZTVN6uavcan17GenericSubscriberINS_8protocol12GetNodeInfo_ENS2_8Request_ILi0EEENS_16TransferListene
 11033 0000 00000000 		.word	0
 11034 0004 00000000 		.word	0
 11035 0008 00000000 		.word	0
 11036 000c 00000000 		.word	0
 11037 0010 00000000 		.word	__cxa_pure_virtual
 11038              		.weak	_ZTVN6uavcan13ServiceServerINS_8protocol12GetNodeInfo_ENS_12MethodBinderIPNS_18NodeStatusPro
 11039              		.section	.rodata._ZTVN6uavcan13ServiceServerINS_8protocol12GetNodeInfo_ENS_12MethodBinderIPNS_18No
 11040              		.align	3
 11041              		.type	_ZTVN6uavcan13ServiceServerINS_8protocol12GetNodeInfo_ENS_12MethodBinderIPNS_18NodeStatusPro
 11042              		.size	_ZTVN6uavcan13ServiceServerINS_8protocol12GetNodeInfo_ENS_12MethodBinderIPNS_18NodeStatusPro
 11043              	_ZTVN6uavcan13ServiceServerINS_8protocol12GetNodeInfo_ENS_12MethodBinderIPNS_18NodeStatusProviderEM
 11044 0000 00000000 		.word	0
 11045 0004 00000000 		.word	0
 11046 0008 00000000 		.word	_ZN6uavcan13ServiceServerINS_8protocol12GetNodeInfo_ENS_12MethodBinderIPNS_18NodeStatusProvi
 11047 000c 00000000 		.word	_ZN6uavcan13ServiceServerINS_8protocol12GetNodeInfo_ENS_12MethodBinderIPNS_18NodeStatusProvi
 11048 0010 00000000 		.word	_ZN6uavcan13ServiceServerINS_8protocol12GetNodeInfo_ENS_12MethodBinderIPNS_18NodeStatusProvi
 11049              		.weak	_ZTVN6uavcan17GenericSubscriberINS_8protocol16GetDataTypeInfo_ENS2_8Request_ILi0EEENS_16Tran
 11050              		.section	.rodata._ZTVN6uavcan17GenericSubscriberINS_8protocol16GetDataTypeInfo_ENS2_8Request_ILi0E
 11051              		.align	3
 11052              		.type	_ZTVN6uavcan17GenericSubscriberINS_8protocol16GetDataTypeInfo_ENS2_8Request_ILi0EEENS_16Tran
 11053              		.size	_ZTVN6uavcan17GenericSubscriberINS_8protocol16GetDataTypeInfo_ENS2_8Request_ILi0EEENS_16Tran
 11054              	_ZTVN6uavcan17GenericSubscriberINS_8protocol16GetDataTypeInfo_ENS2_8Request_ILi0EEENS_16TransferLis
 11055 0000 00000000 		.word	0
 11056 0004 00000000 		.word	0
 11057 0008 00000000 		.word	_ZN6uavcan17GenericSubscriberINS_8protocol16GetDataTypeInfo_ENS2_8Request_ILi0EEENS_16Transf
 11058 000c 00000000 		.word	_ZN6uavcan17GenericSubscriberINS_8protocol16GetDataTypeInfo_ENS2_8Request_ILi0EEENS_16Transf
 11059 0010 00000000 		.word	_ZN6uavcan17GenericSubscriberINS_8protocol16GetDataTypeInfo_ENS2_8Request_ILi0EEENS_16Transf
 11060 0014 00000000 		.word	_ZN6uavcan16TransferListener11handleFrameERKNS_7RxFrameE
 11061              		.weak	_ZTVN6uavcan17GenericSubscriberINS_8protocol16GetDataTypeInfo_ENS2_8Request_ILi0EEENS_16Tran
 11062              		.section	.rodata._ZTVN6uavcan17GenericSubscriberINS_8protocol16GetDataTypeInfo_ENS2_8Request_ILi0E
 11063              		.align	3
 11064              		.type	_ZTVN6uavcan17GenericSubscriberINS_8protocol16GetDataTypeInfo_ENS2_8Request_ILi0EEENS_16Tran
 11065              		.size	_ZTVN6uavcan17GenericSubscriberINS_8protocol16GetDataTypeInfo_ENS2_8Request_ILi0EEENS_16Tran
 11066              	_ZTVN6uavcan17GenericSubscriberINS_8protocol16GetDataTypeInfo_ENS2_8Request_ILi0EEENS_16TransferLis
 11067 0000 00000000 		.word	0
ARM GAS  /tmp/ccFEREDd.s 			page 196


 11068 0004 00000000 		.word	0
 11069 0008 00000000 		.word	0
 11070 000c 00000000 		.word	0
 11071 0010 00000000 		.word	__cxa_pure_virtual
 11072              		.weak	_ZTVN6uavcan13ServiceServerINS_8protocol16GetDataTypeInfo_ENS_12MethodBinderIPNS_20DataTypeI
 11073              		.section	.rodata._ZTVN6uavcan13ServiceServerINS_8protocol16GetDataTypeInfo_ENS_12MethodBinderIPNS_
 11074              		.align	3
 11075              		.type	_ZTVN6uavcan13ServiceServerINS_8protocol16GetDataTypeInfo_ENS_12MethodBinderIPNS_20DataTypeI
 11076              		.size	_ZTVN6uavcan13ServiceServerINS_8protocol16GetDataTypeInfo_ENS_12MethodBinderIPNS_20DataTypeI
 11077              	_ZTVN6uavcan13ServiceServerINS_8protocol16GetDataTypeInfo_ENS_12MethodBinderIPNS_20DataTypeInfoProv
 11078 0000 00000000 		.word	0
 11079 0004 00000000 		.word	0
 11080 0008 00000000 		.word	_ZN6uavcan13ServiceServerINS_8protocol16GetDataTypeInfo_ENS_12MethodBinderIPNS_20DataTypeInf
 11081 000c 00000000 		.word	_ZN6uavcan13ServiceServerINS_8protocol16GetDataTypeInfo_ENS_12MethodBinderIPNS_20DataTypeInf
 11082 0010 00000000 		.word	_ZN6uavcan13ServiceServerINS_8protocol16GetDataTypeInfo_ENS_12MethodBinderIPNS_20DataTypeInf
 11083              		.weak	_ZTVN6uavcan17GenericSubscriberINS_8protocol12RestartNode_ENS2_8Request_ILi0EEENS_16Transfer
 11084              		.section	.rodata._ZTVN6uavcan17GenericSubscriberINS_8protocol12RestartNode_ENS2_8Request_ILi0EEENS
 11085              		.align	3
 11086              		.type	_ZTVN6uavcan17GenericSubscriberINS_8protocol12RestartNode_ENS2_8Request_ILi0EEENS_16Transfer
 11087              		.size	_ZTVN6uavcan17GenericSubscriberINS_8protocol12RestartNode_ENS2_8Request_ILi0EEENS_16Transfer
 11088              	_ZTVN6uavcan17GenericSubscriberINS_8protocol12RestartNode_ENS2_8Request_ILi0EEENS_16TransferListene
 11089 0000 00000000 		.word	0
 11090 0004 00000000 		.word	0
 11091 0008 00000000 		.word	_ZN6uavcan17GenericSubscriberINS_8protocol12RestartNode_ENS2_8Request_ILi0EEENS_16TransferLi
 11092 000c 00000000 		.word	_ZN6uavcan17GenericSubscriberINS_8protocol12RestartNode_ENS2_8Request_ILi0EEENS_16TransferLi
 11093 0010 00000000 		.word	_ZN6uavcan17GenericSubscriberINS_8protocol12RestartNode_ENS2_8Request_ILi0EEENS_16TransferLi
 11094 0014 00000000 		.word	_ZN6uavcan16TransferListener11handleFrameERKNS_7RxFrameE
 11095              		.weak	_ZTVN6uavcan17GenericSubscriberINS_8protocol12RestartNode_ENS2_8Request_ILi0EEENS_16Transfer
 11096              		.section	.rodata._ZTVN6uavcan17GenericSubscriberINS_8protocol12RestartNode_ENS2_8Request_ILi0EEENS
 11097              		.align	3
 11098              		.type	_ZTVN6uavcan17GenericSubscriberINS_8protocol12RestartNode_ENS2_8Request_ILi0EEENS_16Transfer
 11099              		.size	_ZTVN6uavcan17GenericSubscriberINS_8protocol12RestartNode_ENS2_8Request_ILi0EEENS_16Transfer
 11100              	_ZTVN6uavcan17GenericSubscriberINS_8protocol12RestartNode_ENS2_8Request_ILi0EEENS_16TransferListene
 11101 0000 00000000 		.word	0
 11102 0004 00000000 		.word	0
 11103 0008 00000000 		.word	0
 11104 000c 00000000 		.word	0
 11105 0010 00000000 		.word	__cxa_pure_virtual
 11106              		.weak	_ZTVN6uavcan13ServiceServerINS_8protocol12RestartNode_ENS_12MethodBinderIPKNS_20RestartReque
 11107              		.section	.rodata._ZTVN6uavcan13ServiceServerINS_8protocol12RestartNode_ENS_12MethodBinderIPKNS_20R
 11108              		.align	3
 11109              		.type	_ZTVN6uavcan13ServiceServerINS_8protocol12RestartNode_ENS_12MethodBinderIPKNS_20RestartReque
 11110              		.size	_ZTVN6uavcan13ServiceServerINS_8protocol12RestartNode_ENS_12MethodBinderIPKNS_20RestartReque
 11111              	_ZTVN6uavcan13ServiceServerINS_8protocol12RestartNode_ENS_12MethodBinderIPKNS_20RestartRequestServe
 11112 0000 00000000 		.word	0
 11113 0004 00000000 		.word	0
 11114 0008 00000000 		.word	_ZN6uavcan13ServiceServerINS_8protocol12RestartNode_ENS_12MethodBinderIPKNS_20RestartRequest
 11115 000c 00000000 		.word	_ZN6uavcan13ServiceServerINS_8protocol12RestartNode_ENS_12MethodBinderIPKNS_20RestartRequest
 11116 0010 00000000 		.word	_ZN6uavcan13ServiceServerINS_8protocol12RestartNode_ENS_12MethodBinderIPKNS_20RestartRequest
 11117              		.weak	_ZTVN6uavcan17GenericSubscriberINS_8protocol18GetTransportStats_ENS2_8Request_ILi0EEENS_16Tr
 11118              		.section	.rodata._ZTVN6uavcan17GenericSubscriberINS_8protocol18GetTransportStats_ENS2_8Request_ILi
 11119              		.align	3
 11120              		.type	_ZTVN6uavcan17GenericSubscriberINS_8protocol18GetTransportStats_ENS2_8Request_ILi0EEENS_16Tr
 11121              		.size	_ZTVN6uavcan17GenericSubscriberINS_8protocol18GetTransportStats_ENS2_8Request_ILi0EEENS_16Tr
 11122              	_ZTVN6uavcan17GenericSubscriberINS_8protocol18GetTransportStats_ENS2_8Request_ILi0EEENS_16TransferL
 11123 0000 00000000 		.word	0
 11124 0004 00000000 		.word	0
ARM GAS  /tmp/ccFEREDd.s 			page 197


 11125 0008 00000000 		.word	_ZN6uavcan17GenericSubscriberINS_8protocol18GetTransportStats_ENS2_8Request_ILi0EEENS_16Tran
 11126 000c 00000000 		.word	_ZN6uavcan17GenericSubscriberINS_8protocol18GetTransportStats_ENS2_8Request_ILi0EEENS_16Tran
 11127 0010 00000000 		.word	_ZN6uavcan17GenericSubscriberINS_8protocol18GetTransportStats_ENS2_8Request_ILi0EEENS_16Tran
 11128 0014 00000000 		.word	_ZN6uavcan16TransferListener11handleFrameERKNS_7RxFrameE
 11129              		.weak	_ZTVN6uavcan17GenericSubscriberINS_8protocol18GetTransportStats_ENS2_8Request_ILi0EEENS_16Tr
 11130              		.section	.rodata._ZTVN6uavcan17GenericSubscriberINS_8protocol18GetTransportStats_ENS2_8Request_ILi
 11131              		.align	3
 11132              		.type	_ZTVN6uavcan17GenericSubscriberINS_8protocol18GetTransportStats_ENS2_8Request_ILi0EEENS_16Tr
 11133              		.size	_ZTVN6uavcan17GenericSubscriberINS_8protocol18GetTransportStats_ENS2_8Request_ILi0EEENS_16Tr
 11134              	_ZTVN6uavcan17GenericSubscriberINS_8protocol18GetTransportStats_ENS2_8Request_ILi0EEENS_16TransferL
 11135 0000 00000000 		.word	0
 11136 0004 00000000 		.word	0
 11137 0008 00000000 		.word	0
 11138 000c 00000000 		.word	0
 11139 0010 00000000 		.word	__cxa_pure_virtual
 11140              		.weak	_ZTVN6uavcan13ServiceServerINS_8protocol18GetTransportStats_ENS_12MethodBinderIPKNS_22Transp
 11141              		.section	.rodata._ZTVN6uavcan13ServiceServerINS_8protocol18GetTransportStats_ENS_12MethodBinderIPK
 11142              		.align	3
 11143              		.type	_ZTVN6uavcan13ServiceServerINS_8protocol18GetTransportStats_ENS_12MethodBinderIPKNS_22Transp
 11144              		.size	_ZTVN6uavcan13ServiceServerINS_8protocol18GetTransportStats_ENS_12MethodBinderIPKNS_22Transp
 11145              	_ZTVN6uavcan13ServiceServerINS_8protocol18GetTransportStats_ENS_12MethodBinderIPKNS_22TransportStat
 11146 0000 00000000 		.word	0
 11147 0004 00000000 		.word	0
 11148 0008 00000000 		.word	_ZN6uavcan13ServiceServerINS_8protocol18GetTransportStats_ENS_12MethodBinderIPKNS_22Transpor
 11149 000c 00000000 		.word	_ZN6uavcan13ServiceServerINS_8protocol18GetTransportStats_ENS_12MethodBinderIPKNS_22Transpor
 11150 0010 00000000 		.word	_ZN6uavcan13ServiceServerINS_8protocol18GetTransportStats_ENS_12MethodBinderIPKNS_22Transpor
 11151              		.weak	_ZTVN6uavcan20GlobalTimeSyncMasterE
 11152              		.section	.rodata._ZTVN6uavcan20GlobalTimeSyncMasterE,"aG",%progbits,_ZTVN6uavcan20GlobalTimeSyncMa
 11153              		.align	3
 11154              		.type	_ZTVN6uavcan20GlobalTimeSyncMasterE, %object
 11155              		.size	_ZTVN6uavcan20GlobalTimeSyncMasterE, 20
 11156              	_ZTVN6uavcan20GlobalTimeSyncMasterE:
 11157 0000 00000000 		.word	0
 11158 0004 00000000 		.word	0
 11159 0008 00000000 		.word	_ZN6uavcan20GlobalTimeSyncMasterD1Ev
 11160 000c 00000000 		.word	_ZN6uavcan20GlobalTimeSyncMasterD0Ev
 11161 0010 00000000 		.word	_ZN6uavcan20GlobalTimeSyncMaster19handleLoopbackFrameERKNS_7RxFrameE
 11162              		.weak	_ZTVN6uavcan17GenericSubscriberINS_8protocol15GlobalTimeSync_ILi0EEES3_NS_16TransferListener
 11163              		.section	.rodata._ZTVN6uavcan17GenericSubscriberINS_8protocol15GlobalTimeSync_ILi0EEES3_NS_16Trans
 11164              		.align	3
 11165              		.type	_ZTVN6uavcan17GenericSubscriberINS_8protocol15GlobalTimeSync_ILi0EEES3_NS_16TransferListener
 11166              		.size	_ZTVN6uavcan17GenericSubscriberINS_8protocol15GlobalTimeSync_ILi0EEES3_NS_16TransferListener
 11167              	_ZTVN6uavcan17GenericSubscriberINS_8protocol15GlobalTimeSync_ILi0EEES3_NS_16TransferListenerEE17Tra
 11168 0000 00000000 		.word	0
 11169 0004 00000000 		.word	0
 11170 0008 00000000 		.word	_ZN6uavcan17GenericSubscriberINS_8protocol15GlobalTimeSync_ILi0EEES3_NS_16TransferListenerEE
 11171 000c 00000000 		.word	_ZN6uavcan17GenericSubscriberINS_8protocol15GlobalTimeSync_ILi0EEES3_NS_16TransferListenerEE
 11172 0010 00000000 		.word	_ZN6uavcan17GenericSubscriberINS_8protocol15GlobalTimeSync_ILi0EEES3_NS_16TransferListenerEE
 11173 0014 00000000 		.word	_ZN6uavcan16TransferListener11handleFrameERKNS_7RxFrameE
 11174              		.weak	_ZTVN6uavcan17GenericSubscriberINS_8protocol15GlobalTimeSync_ILi0EEES3_NS_16TransferListener
 11175              		.section	.rodata._ZTVN6uavcan17GenericSubscriberINS_8protocol15GlobalTimeSync_ILi0EEES3_NS_16Trans
 11176              		.align	3
 11177              		.type	_ZTVN6uavcan17GenericSubscriberINS_8protocol15GlobalTimeSync_ILi0EEES3_NS_16TransferListener
 11178              		.size	_ZTVN6uavcan17GenericSubscriberINS_8protocol15GlobalTimeSync_ILi0EEES3_NS_16TransferListener
 11179              	_ZTVN6uavcan17GenericSubscriberINS_8protocol15GlobalTimeSync_ILi0EEES3_NS_16TransferListenerEEE:
 11180 0000 00000000 		.word	0
 11181 0004 00000000 		.word	0
ARM GAS  /tmp/ccFEREDd.s 			page 198


 11182 0008 00000000 		.word	0
 11183 000c 00000000 		.word	0
 11184 0010 00000000 		.word	__cxa_pure_virtual
 11185              		.weak	_ZTVN6uavcan10SubscriberINS_8protocol15GlobalTimeSync_ILi0EEENS_12MethodBinderIPNS_19GlobalT
 11186              		.section	.rodata._ZTVN6uavcan10SubscriberINS_8protocol15GlobalTimeSync_ILi0EEENS_12MethodBinderIPN
 11187              		.align	3
 11188              		.type	_ZTVN6uavcan10SubscriberINS_8protocol15GlobalTimeSync_ILi0EEENS_12MethodBinderIPNS_19GlobalT
 11189              		.size	_ZTVN6uavcan10SubscriberINS_8protocol15GlobalTimeSync_ILi0EEENS_12MethodBinderIPNS_19GlobalT
 11190              	_ZTVN6uavcan10SubscriberINS_8protocol15GlobalTimeSync_ILi0EEENS_12MethodBinderIPNS_19GlobalTimeSync
 11191 0000 00000000 		.word	0
 11192 0004 00000000 		.word	0
 11193 0008 00000000 		.word	_ZN6uavcan10SubscriberINS_8protocol15GlobalTimeSync_ILi0EEENS_12MethodBinderIPNS_19GlobalTim
 11194 000c 00000000 		.word	_ZN6uavcan10SubscriberINS_8protocol15GlobalTimeSync_ILi0EEENS_12MethodBinderIPNS_19GlobalTim
 11195 0010 00000000 		.word	_ZN6uavcan10SubscriberINS_8protocol15GlobalTimeSync_ILi0EEENS_12MethodBinderIPNS_19GlobalTim
 11196              		.weak	_ZTVN6uavcan17GenericSubscriberINS_8protocol5param7GetSet_ENS3_8Request_ILi0EEENS_16Transfer
 11197              		.section	.rodata._ZTVN6uavcan17GenericSubscriberINS_8protocol5param7GetSet_ENS3_8Request_ILi0EEENS
 11198              		.align	3
 11199              		.type	_ZTVN6uavcan17GenericSubscriberINS_8protocol5param7GetSet_ENS3_8Request_ILi0EEENS_16Transfer
 11200              		.size	_ZTVN6uavcan17GenericSubscriberINS_8protocol5param7GetSet_ENS3_8Request_ILi0EEENS_16Transfer
 11201              	_ZTVN6uavcan17GenericSubscriberINS_8protocol5param7GetSet_ENS3_8Request_ILi0EEENS_16TransferListene
 11202 0000 00000000 		.word	0
 11203 0004 00000000 		.word	0
 11204 0008 00000000 		.word	_ZN6uavcan17GenericSubscriberINS_8protocol5param7GetSet_ENS3_8Request_ILi0EEENS_16TransferLi
 11205 000c 00000000 		.word	_ZN6uavcan17GenericSubscriberINS_8protocol5param7GetSet_ENS3_8Request_ILi0EEENS_16TransferLi
 11206 0010 00000000 		.word	_ZN6uavcan17GenericSubscriberINS_8protocol5param7GetSet_ENS3_8Request_ILi0EEENS_16TransferLi
 11207 0014 00000000 		.word	_ZN6uavcan16TransferListener11handleFrameERKNS_7RxFrameE
 11208              		.weak	_ZTVN6uavcan17GenericSubscriberINS_8protocol5param7GetSet_ENS3_8Request_ILi0EEENS_16Transfer
 11209              		.section	.rodata._ZTVN6uavcan17GenericSubscriberINS_8protocol5param7GetSet_ENS3_8Request_ILi0EEENS
 11210              		.align	3
 11211              		.type	_ZTVN6uavcan17GenericSubscriberINS_8protocol5param7GetSet_ENS3_8Request_ILi0EEENS_16Transfer
 11212              		.size	_ZTVN6uavcan17GenericSubscriberINS_8protocol5param7GetSet_ENS3_8Request_ILi0EEENS_16Transfer
 11213              	_ZTVN6uavcan17GenericSubscriberINS_8protocol5param7GetSet_ENS3_8Request_ILi0EEENS_16TransferListene
 11214 0000 00000000 		.word	0
 11215 0004 00000000 		.word	0
 11216 0008 00000000 		.word	0
 11217 000c 00000000 		.word	0
 11218 0010 00000000 		.word	__cxa_pure_virtual
 11219              		.weak	_ZTVN6uavcan13ServiceServerINS_8protocol5param7GetSet_ENS_12MethodBinderIPNS_11ParamServerEM
 11220              		.section	.rodata._ZTVN6uavcan13ServiceServerINS_8protocol5param7GetSet_ENS_12MethodBinderIPNS_11Pa
 11221              		.align	3
 11222              		.type	_ZTVN6uavcan13ServiceServerINS_8protocol5param7GetSet_ENS_12MethodBinderIPNS_11ParamServerEM
 11223              		.size	_ZTVN6uavcan13ServiceServerINS_8protocol5param7GetSet_ENS_12MethodBinderIPNS_11ParamServerEM
 11224              	_ZTVN6uavcan13ServiceServerINS_8protocol5param7GetSet_ENS_12MethodBinderIPNS_11ParamServerEMS5_FvRK
 11225 0000 00000000 		.word	0
 11226 0004 00000000 		.word	0
 11227 0008 00000000 		.word	_ZN6uavcan13ServiceServerINS_8protocol5param7GetSet_ENS_12MethodBinderIPNS_11ParamServerEMS5
 11228 000c 00000000 		.word	_ZN6uavcan13ServiceServerINS_8protocol5param7GetSet_ENS_12MethodBinderIPNS_11ParamServerEMS5
 11229 0010 00000000 		.word	_ZN6uavcan13ServiceServerINS_8protocol5param7GetSet_ENS_12MethodBinderIPNS_11ParamServerEMS5
 11230              		.weak	_ZTVN6uavcan17GenericSubscriberINS_8protocol5param14ExecuteOpcode_ENS3_8Request_ILi0EEENS_16
 11231              		.section	.rodata._ZTVN6uavcan17GenericSubscriberINS_8protocol5param14ExecuteOpcode_ENS3_8Request_I
 11232              		.align	3
 11233              		.type	_ZTVN6uavcan17GenericSubscriberINS_8protocol5param14ExecuteOpcode_ENS3_8Request_ILi0EEENS_16
 11234              		.size	_ZTVN6uavcan17GenericSubscriberINS_8protocol5param14ExecuteOpcode_ENS3_8Request_ILi0EEENS_16
 11235              	_ZTVN6uavcan17GenericSubscriberINS_8protocol5param14ExecuteOpcode_ENS3_8Request_ILi0EEENS_16Transfe
 11236 0000 00000000 		.word	0
 11237 0004 00000000 		.word	0
 11238 0008 00000000 		.word	_ZN6uavcan17GenericSubscriberINS_8protocol5param14ExecuteOpcode_ENS3_8Request_ILi0EEENS_16Tr
ARM GAS  /tmp/ccFEREDd.s 			page 199


 11239 000c 00000000 		.word	_ZN6uavcan17GenericSubscriberINS_8protocol5param14ExecuteOpcode_ENS3_8Request_ILi0EEENS_16Tr
 11240 0010 00000000 		.word	_ZN6uavcan17GenericSubscriberINS_8protocol5param14ExecuteOpcode_ENS3_8Request_ILi0EEENS_16Tr
 11241 0014 00000000 		.word	_ZN6uavcan16TransferListener11handleFrameERKNS_7RxFrameE
 11242              		.weak	_ZTVN6uavcan17GenericSubscriberINS_8protocol5param14ExecuteOpcode_ENS3_8Request_ILi0EEENS_16
 11243              		.section	.rodata._ZTVN6uavcan17GenericSubscriberINS_8protocol5param14ExecuteOpcode_ENS3_8Request_I
 11244              		.align	3
 11245              		.type	_ZTVN6uavcan17GenericSubscriberINS_8protocol5param14ExecuteOpcode_ENS3_8Request_ILi0EEENS_16
 11246              		.size	_ZTVN6uavcan17GenericSubscriberINS_8protocol5param14ExecuteOpcode_ENS3_8Request_ILi0EEENS_16
 11247              	_ZTVN6uavcan17GenericSubscriberINS_8protocol5param14ExecuteOpcode_ENS3_8Request_ILi0EEENS_16Transfe
 11248 0000 00000000 		.word	0
 11249 0004 00000000 		.word	0
 11250 0008 00000000 		.word	0
 11251 000c 00000000 		.word	0
 11252 0010 00000000 		.word	__cxa_pure_virtual
 11253              		.weak	_ZTVN6uavcan13ServiceServerINS_8protocol5param14ExecuteOpcode_ENS_12MethodBinderIPNS_11Param
 11254              		.section	.rodata._ZTVN6uavcan13ServiceServerINS_8protocol5param14ExecuteOpcode_ENS_12MethodBinderI
 11255              		.align	3
 11256              		.type	_ZTVN6uavcan13ServiceServerINS_8protocol5param14ExecuteOpcode_ENS_12MethodBinderIPNS_11Param
 11257              		.size	_ZTVN6uavcan13ServiceServerINS_8protocol5param14ExecuteOpcode_ENS_12MethodBinderIPNS_11Param
 11258              	_ZTVN6uavcan13ServiceServerINS_8protocol5param14ExecuteOpcode_ENS_12MethodBinderIPNS_11ParamServerE
 11259 0000 00000000 		.word	0
 11260 0004 00000000 		.word	0
 11261 0008 00000000 		.word	_ZN6uavcan13ServiceServerINS_8protocol5param14ExecuteOpcode_ENS_12MethodBinderIPNS_11ParamSe
 11262 000c 00000000 		.word	_ZN6uavcan13ServiceServerINS_8protocol5param14ExecuteOpcode_ENS_12MethodBinderIPNS_11ParamSe
 11263 0010 00000000 		.word	_ZN6uavcan13ServiceServerINS_8protocol5param14ExecuteOpcode_ENS_12MethodBinderIPNS_11ParamSe
 11264              		.weak	_ZTVN6uavcan17GenericSubscriberINS_8protocol15dynamic_node_id11Allocation_ILi0EEES4_NS_16Tra
 11265              		.section	.rodata._ZTVN6uavcan17GenericSubscriberINS_8protocol15dynamic_node_id11Allocation_ILi0EEE
 11266              		.align	3
 11267              		.type	_ZTVN6uavcan17GenericSubscriberINS_8protocol15dynamic_node_id11Allocation_ILi0EEES4_NS_16Tra
 11268              		.size	_ZTVN6uavcan17GenericSubscriberINS_8protocol15dynamic_node_id11Allocation_ILi0EEES4_NS_16Tra
 11269              	_ZTVN6uavcan17GenericSubscriberINS_8protocol15dynamic_node_id11Allocation_ILi0EEES4_NS_16TransferLi
 11270 0000 00000000 		.word	0
 11271 0004 00000000 		.word	0
 11272 0008 00000000 		.word	0
 11273 000c 00000000 		.word	0
 11274 0010 00000000 		.word	__cxa_pure_virtual
 11275              		.weak	_ZTVN6uavcan10SubscriberINS_8protocol15dynamic_node_id11Allocation_ILi0EEENS_12MethodBinderI
 11276              		.section	.rodata._ZTVN6uavcan10SubscriberINS_8protocol15dynamic_node_id11Allocation_ILi0EEENS_12Me
 11277              		.align	3
 11278              		.type	_ZTVN6uavcan10SubscriberINS_8protocol15dynamic_node_id11Allocation_ILi0EEENS_12MethodBinderI
 11279              		.size	_ZTVN6uavcan10SubscriberINS_8protocol15dynamic_node_id11Allocation_ILi0EEENS_12MethodBinderI
 11280              	_ZTVN6uavcan10SubscriberINS_8protocol15dynamic_node_id11Allocation_ILi0EEENS_12MethodBinderIPNS_19D
 11281 0000 00000000 		.word	0
 11282 0004 00000000 		.word	0
 11283 0008 00000000 		.word	_ZN6uavcan10SubscriberINS_8protocol15dynamic_node_id11Allocation_ILi0EEENS_12MethodBinderIPN
 11284 000c 00000000 		.word	_ZN6uavcan10SubscriberINS_8protocol15dynamic_node_id11Allocation_ILi0EEENS_12MethodBinderIPN
 11285 0010 00000000 		.word	_ZN6uavcan10SubscriberINS_8protocol15dynamic_node_id11Allocation_ILi0EEENS_12MethodBinderIPN
 11286              		.weak	_ZTVN6uavcan13PoolAllocatorILj7168ELh56EcEE
 11287              		.section	.rodata._ZTVN6uavcan13PoolAllocatorILj7168ELh56EcEE,"aG",%progbits,_ZTVN6uavcan13PoolAllo
 11288              		.align	3
 11289              		.type	_ZTVN6uavcan13PoolAllocatorILj7168ELh56EcEE, %object
 11290              		.size	_ZTVN6uavcan13PoolAllocatorILj7168ELh56EcEE, 28
 11291              	_ZTVN6uavcan13PoolAllocatorILj7168ELh56EcEE:
 11292 0000 00000000 		.word	0
 11293 0004 00000000 		.word	0
 11294 0008 00000000 		.word	_ZN6uavcan13PoolAllocatorILj7168ELh56EcED1Ev
 11295 000c 00000000 		.word	_ZN6uavcan13PoolAllocatorILj7168ELh56EcED0Ev
ARM GAS  /tmp/ccFEREDd.s 			page 200


 11296 0010 00000000 		.word	_ZN6uavcan13PoolAllocatorILj7168ELh56EcE8allocateEj
 11297 0014 00000000 		.word	_ZN6uavcan13PoolAllocatorILj7168ELh56EcE10deallocateEPKv
 11298 0018 00000000 		.word	_ZNK6uavcan13PoolAllocatorILj7168ELh56EcE16getBlockCapacityEv
 11299              		.weak	_ZTVN6uavcan4NodeILj7168EEE
 11300              		.section	.rodata._ZTVN6uavcan4NodeILj7168EEE,"aG",%progbits,_ZTVN6uavcan4NodeILj7168EEE,comdat
 11301              		.align	3
 11302              		.type	_ZTVN6uavcan4NodeILj7168EEE, %object
 11303              		.size	_ZTVN6uavcan4NodeILj7168EEE, 32
 11304              	_ZTVN6uavcan4NodeILj7168EEE:
 11305 0000 00000000 		.word	0
 11306 0004 00000000 		.word	0
 11307 0008 00000000 		.word	_ZN6uavcan4NodeILj7168EED1Ev
 11308 000c 00000000 		.word	_ZN6uavcan4NodeILj7168EED0Ev
 11309 0010 00000000 		.word	_ZN6uavcan4NodeILj7168EE12getAllocatorEv
 11310 0014 00000000 		.word	_ZN6uavcan4NodeILj7168EE12getSchedulerEv
 11311 0018 00000000 		.word	_ZNK6uavcan4NodeILj7168EE12getSchedulerEv
 11312 001c 00000000 		.word	_ZN6uavcan4NodeILj7168EE23registerInternalFailureEPKc
 11313              		.weak	_ZTVN6uavcan17GenericSubscriberINS_8protocol4file20BeginFirmwareUpdate_ENS3_8Request_ILi0EEE
 11314              		.section	.rodata._ZTVN6uavcan17GenericSubscriberINS_8protocol4file20BeginFirmwareUpdate_ENS3_8Requ
 11315              		.align	3
 11316              		.type	_ZTVN6uavcan17GenericSubscriberINS_8protocol4file20BeginFirmwareUpdate_ENS3_8Request_ILi0EEE
 11317              		.size	_ZTVN6uavcan17GenericSubscriberINS_8protocol4file20BeginFirmwareUpdate_ENS3_8Request_ILi0EEE
 11318              	_ZTVN6uavcan17GenericSubscriberINS_8protocol4file20BeginFirmwareUpdate_ENS3_8Request_ILi0EEENS_16Tr
 11319 0000 00000000 		.word	0
 11320 0004 00000000 		.word	0
 11321 0008 00000000 		.word	_ZN6uavcan17GenericSubscriberINS_8protocol4file20BeginFirmwareUpdate_ENS3_8Request_ILi0EEENS
 11322 000c 00000000 		.word	_ZN6uavcan17GenericSubscriberINS_8protocol4file20BeginFirmwareUpdate_ENS3_8Request_ILi0EEENS
 11323 0010 00000000 		.word	_ZN6uavcan17GenericSubscriberINS_8protocol4file20BeginFirmwareUpdate_ENS3_8Request_ILi0EEENS
 11324 0014 00000000 		.word	_ZN6uavcan16TransferListener11handleFrameERKNS_7RxFrameE
 11325              		.weak	_ZTVN6uavcan17GenericSubscriberINS_8protocol4file20BeginFirmwareUpdate_ENS3_8Request_ILi0EEE
 11326              		.section	.rodata._ZTVN6uavcan17GenericSubscriberINS_8protocol4file20BeginFirmwareUpdate_ENS3_8Requ
 11327              		.align	3
 11328              		.type	_ZTVN6uavcan17GenericSubscriberINS_8protocol4file20BeginFirmwareUpdate_ENS3_8Request_ILi0EEE
 11329              		.size	_ZTVN6uavcan17GenericSubscriberINS_8protocol4file20BeginFirmwareUpdate_ENS3_8Request_ILi0EEE
 11330              	_ZTVN6uavcan17GenericSubscriberINS_8protocol4file20BeginFirmwareUpdate_ENS3_8Request_ILi0EEENS_16Tr
 11331 0000 00000000 		.word	0
 11332 0004 00000000 		.word	0
 11333 0008 00000000 		.word	0
 11334 000c 00000000 		.word	0
 11335 0010 00000000 		.word	__cxa_pure_virtual
 11336              		.weak	_ZTVN6uavcan13ServiceServerINS_8protocol4file20BeginFirmwareUpdate_EPFvRKNS_21ReceivedDataSt
 11337              		.section	.rodata._ZTVN6uavcan13ServiceServerINS_8protocol4file20BeginFirmwareUpdate_EPFvRKNS_21Rec
 11338              		.align	3
 11339              		.type	_ZTVN6uavcan13ServiceServerINS_8protocol4file20BeginFirmwareUpdate_EPFvRKNS_21ReceivedDataSt
 11340              		.size	_ZTVN6uavcan13ServiceServerINS_8protocol4file20BeginFirmwareUpdate_EPFvRKNS_21ReceivedDataSt
 11341              	_ZTVN6uavcan13ServiceServerINS_8protocol4file20BeginFirmwareUpdate_EPFvRKNS_21ReceivedDataStructure
 11342 0000 00000000 		.word	0
 11343 0004 00000000 		.word	0
 11344 0008 00000000 		.word	_ZN6uavcan13ServiceServerINS_8protocol4file20BeginFirmwareUpdate_EPFvRKNS_21ReceivedDataStru
 11345 000c 00000000 		.word	_ZN6uavcan13ServiceServerINS_8protocol4file20BeginFirmwareUpdate_EPFvRKNS_21ReceivedDataStru
 11346 0010 00000000 		.word	_ZN6uavcan13ServiceServerINS_8protocol4file20BeginFirmwareUpdate_EPFvRKNS_21ReceivedDataStru
 11347              		.weak	_ZTVN6uavcan19TimerEventForwarderISt8functionIFvRKNS_10TimerEventEEEEE
 11348              		.section	.rodata._ZTVN6uavcan19TimerEventForwarderISt8functionIFvRKNS_10TimerEventEEEEE,"aG",%prog
 11349              		.align	3
 11350              		.type	_ZTVN6uavcan19TimerEventForwarderISt8functionIFvRKNS_10TimerEventEEEEE, %object
 11351              		.size	_ZTVN6uavcan19TimerEventForwarderISt8functionIFvRKNS_10TimerEventEEEEE, 24
 11352              	_ZTVN6uavcan19TimerEventForwarderISt8functionIFvRKNS_10TimerEventEEEEE:
ARM GAS  /tmp/ccFEREDd.s 			page 201


 11353 0000 00000000 		.word	0
 11354 0004 00000000 		.word	0
 11355 0008 00000000 		.word	_ZN6uavcan19TimerEventForwarderISt8functionIFvRKNS_10TimerEventEEEED1Ev
 11356 000c 00000000 		.word	_ZN6uavcan19TimerEventForwarderISt8functionIFvRKNS_10TimerEventEEEED0Ev
 11357 0010 00000000 		.word	_ZN6uavcan9TimerBase14handleDeadlineENS_13MonotonicTimeE
 11358 0014 00000000 		.word	_ZN6uavcan19TimerEventForwarderISt8functionIFvRKNS_10TimerEventEEEE16handleTimerEventES4_
 11359              		.weak	_ZTVN6uavcan20StaticTransferBufferILt123EEE
 11360              		.section	.rodata._ZTVN6uavcan20StaticTransferBufferILt123EEE,"aG",%progbits,_ZTVN6uavcan20StaticTr
 11361              		.align	3
 11362              		.type	_ZTVN6uavcan20StaticTransferBufferILt123EEE, %object
 11363              		.size	_ZTVN6uavcan20StaticTransferBufferILt123EEE, 24
 11364              	_ZTVN6uavcan20StaticTransferBufferILt123EEE:
 11365 0000 00000000 		.word	0
 11366 0004 00000000 		.word	0
 11367 0008 00000000 		.word	_ZN6uavcan20StaticTransferBufferILt123EED1Ev
 11368 000c 00000000 		.word	_ZN6uavcan20StaticTransferBufferILt123EED0Ev
 11369 0010 00000000 		.word	_ZNK6uavcan24StaticTransferBufferImpl4readEjPhj
 11370 0014 00000000 		.word	_ZN6uavcan24StaticTransferBufferImpl5writeEjPKhj
 11371              		.weak	_ZTVN6uavcan20StaticTransferBufferILt7EEE
 11372              		.section	.rodata._ZTVN6uavcan20StaticTransferBufferILt7EEE,"aG",%progbits,_ZTVN6uavcan20StaticTran
 11373              		.align	3
 11374              		.type	_ZTVN6uavcan20StaticTransferBufferILt7EEE, %object
 11375              		.size	_ZTVN6uavcan20StaticTransferBufferILt7EEE, 24
 11376              	_ZTVN6uavcan20StaticTransferBufferILt7EEE:
 11377 0000 00000000 		.word	0
 11378 0004 00000000 		.word	0
 11379 0008 00000000 		.word	_ZN6uavcan20StaticTransferBufferILt7EED1Ev
 11380 000c 00000000 		.word	_ZN6uavcan20StaticTransferBufferILt7EED0Ev
 11381 0010 00000000 		.word	_ZNK6uavcan24StaticTransferBufferImpl4readEjPhj
 11382 0014 00000000 		.word	_ZN6uavcan24StaticTransferBufferImpl5writeEjPKhj
 11383              		.weak	_ZGVZN6uavcan22GlobalDataTypeRegistry16registerDataTypeINS_8protocol4file20BeginFirmwareUpda
 11384              		.section	.bss._ZGVZN6uavcan22GlobalDataTypeRegistry16registerDataTypeINS_8protocol4file20BeginFirm
 11385              		.align	2
 11386              		.type	_ZGVZN6uavcan22GlobalDataTypeRegistry16registerDataTypeINS_8protocol4file20BeginFirmwareUpda
 11387              		.size	_ZGVZN6uavcan22GlobalDataTypeRegistry16registerDataTypeINS_8protocol4file20BeginFirmwareUpda
 11388              	_ZGVZN6uavcan22GlobalDataTypeRegistry16registerDataTypeINS_8protocol4file20BeginFirmwareUpdate_EEEN
 11389 0000 00000000 		.space	4
 11390              		.weak	_ZGVZN6uavcan22GlobalDataTypeRegistry16registerDataTypeINS_8protocol15dynamic_node_id11Alloc
 11391              		.section	.bss._ZGVZN6uavcan22GlobalDataTypeRegistry16registerDataTypeINS_8protocol15dynamic_node_i
 11392              		.align	2
 11393              		.type	_ZGVZN6uavcan22GlobalDataTypeRegistry16registerDataTypeINS_8protocol15dynamic_node_id11Alloc
 11394              		.size	_ZGVZN6uavcan22GlobalDataTypeRegistry16registerDataTypeINS_8protocol15dynamic_node_id11Alloc
 11395              	_ZGVZN6uavcan22GlobalDataTypeRegistry16registerDataTypeINS_8protocol15dynamic_node_id11Allocation_I
 11396 0000 00000000 		.space	4
 11397              		.weak	_ZGVZN6uavcan22GlobalDataTypeRegistry16registerDataTypeINS_8protocol5param14ExecuteOpcode_EE
 11398              		.section	.bss._ZGVZN6uavcan22GlobalDataTypeRegistry16registerDataTypeINS_8protocol5param14ExecuteO
 11399              		.align	2
 11400              		.type	_ZGVZN6uavcan22GlobalDataTypeRegistry16registerDataTypeINS_8protocol5param14ExecuteOpcode_EE
 11401              		.size	_ZGVZN6uavcan22GlobalDataTypeRegistry16registerDataTypeINS_8protocol5param14ExecuteOpcode_EE
 11402              	_ZGVZN6uavcan22GlobalDataTypeRegistry16registerDataTypeINS_8protocol5param14ExecuteOpcode_EEENS0_18
 11403 0000 00000000 		.space	4
 11404              		.weak	_ZGVZN6uavcan22GlobalDataTypeRegistry16registerDataTypeINS_8protocol5param7GetSet_EEENS0_18R
 11405              		.section	.bss._ZGVZN6uavcan22GlobalDataTypeRegistry16registerDataTypeINS_8protocol5param7GetSet_EE
 11406              		.align	2
 11407              		.type	_ZGVZN6uavcan22GlobalDataTypeRegistry16registerDataTypeINS_8protocol5param7GetSet_EEENS0_18R
 11408              		.size	_ZGVZN6uavcan22GlobalDataTypeRegistry16registerDataTypeINS_8protocol5param7GetSet_EEENS0_18R
 11409              	_ZGVZN6uavcan22GlobalDataTypeRegistry16registerDataTypeINS_8protocol5param7GetSet_EEENS0_18Registra
ARM GAS  /tmp/ccFEREDd.s 			page 202


 11410 0000 00000000 		.space	4
 11411              		.weak	_ZGVZN6uavcan22GlobalDataTypeRegistry16registerDataTypeINS_8protocol15GlobalTimeSync_ILi0EEE
 11412              		.section	.bss._ZGVZN6uavcan22GlobalDataTypeRegistry16registerDataTypeINS_8protocol15GlobalTimeSync
 11413              		.align	2
 11414              		.type	_ZGVZN6uavcan22GlobalDataTypeRegistry16registerDataTypeINS_8protocol15GlobalTimeSync_ILi0EEE
 11415              		.size	_ZGVZN6uavcan22GlobalDataTypeRegistry16registerDataTypeINS_8protocol15GlobalTimeSync_ILi0EEE
 11416              	_ZGVZN6uavcan22GlobalDataTypeRegistry16registerDataTypeINS_8protocol15GlobalTimeSync_ILi0EEEEENS0_1
 11417 0000 00000000 		.space	4
 11418              		.weak	_ZGVZN6uavcan22GlobalDataTypeRegistry16registerDataTypeINS_8protocol18GetTransportStats_EEEN
 11419              		.section	.bss._ZGVZN6uavcan22GlobalDataTypeRegistry16registerDataTypeINS_8protocol18GetTransportSt
 11420              		.align	2
 11421              		.type	_ZGVZN6uavcan22GlobalDataTypeRegistry16registerDataTypeINS_8protocol18GetTransportStats_EEEN
 11422              		.size	_ZGVZN6uavcan22GlobalDataTypeRegistry16registerDataTypeINS_8protocol18GetTransportStats_EEEN
 11423              	_ZGVZN6uavcan22GlobalDataTypeRegistry16registerDataTypeINS_8protocol18GetTransportStats_EEENS0_18Re
 11424 0000 00000000 		.space	4
 11425              		.weak	_ZGVZN6uavcan22GlobalDataTypeRegistry16registerDataTypeINS_8protocol12RestartNode_EEENS0_18R
 11426              		.section	.bss._ZGVZN6uavcan22GlobalDataTypeRegistry16registerDataTypeINS_8protocol12RestartNode_EE
 11427              		.align	2
 11428              		.type	_ZGVZN6uavcan22GlobalDataTypeRegistry16registerDataTypeINS_8protocol12RestartNode_EEENS0_18R
 11429              		.size	_ZGVZN6uavcan22GlobalDataTypeRegistry16registerDataTypeINS_8protocol12RestartNode_EEENS0_18R
 11430              	_ZGVZN6uavcan22GlobalDataTypeRegistry16registerDataTypeINS_8protocol12RestartNode_EEENS0_18Registra
 11431 0000 00000000 		.space	4
 11432              		.weak	_ZGVZN6uavcan22GlobalDataTypeRegistry16registerDataTypeINS_8protocol5debug11LogMessage_ILi0E
 11433              		.section	.bss._ZGVZN6uavcan22GlobalDataTypeRegistry16registerDataTypeINS_8protocol5debug11LogMessa
 11434              		.align	2
 11435              		.type	_ZGVZN6uavcan22GlobalDataTypeRegistry16registerDataTypeINS_8protocol5debug11LogMessage_ILi0E
 11436              		.size	_ZGVZN6uavcan22GlobalDataTypeRegistry16registerDataTypeINS_8protocol5debug11LogMessage_ILi0E
 11437              	_ZGVZN6uavcan22GlobalDataTypeRegistry16registerDataTypeINS_8protocol5debug11LogMessage_ILi0EEEEENS0
 11438 0000 00000000 		.space	4
 11439              		.weak	_ZGVZN6uavcan22GlobalDataTypeRegistry16registerDataTypeINS_8protocol16GetDataTypeInfo_EEENS0
 11440              		.section	.bss._ZGVZN6uavcan22GlobalDataTypeRegistry16registerDataTypeINS_8protocol16GetDataTypeInf
 11441              		.align	2
 11442              		.type	_ZGVZN6uavcan22GlobalDataTypeRegistry16registerDataTypeINS_8protocol16GetDataTypeInfo_EEENS0
 11443              		.size	_ZGVZN6uavcan22GlobalDataTypeRegistry16registerDataTypeINS_8protocol16GetDataTypeInfo_EEENS0
 11444              	_ZGVZN6uavcan22GlobalDataTypeRegistry16registerDataTypeINS_8protocol16GetDataTypeInfo_EEENS0_18Regi
 11445 0000 00000000 		.space	4
 11446              		.weak	_ZGVZN6uavcan22GlobalDataTypeRegistry16registerDataTypeINS_8protocol12GetNodeInfo_EEENS0_18R
 11447              		.section	.bss._ZGVZN6uavcan22GlobalDataTypeRegistry16registerDataTypeINS_8protocol12GetNodeInfo_EE
 11448              		.align	2
 11449              		.type	_ZGVZN6uavcan22GlobalDataTypeRegistry16registerDataTypeINS_8protocol12GetNodeInfo_EEENS0_18R
 11450              		.size	_ZGVZN6uavcan22GlobalDataTypeRegistry16registerDataTypeINS_8protocol12GetNodeInfo_EEENS0_18R
 11451              	_ZGVZN6uavcan22GlobalDataTypeRegistry16registerDataTypeINS_8protocol12GetNodeInfo_EEENS0_18Registra
 11452 0000 00000000 		.space	4
 11453              		.weak	_ZGVZN6uavcan22GlobalDataTypeRegistry16registerDataTypeINS_8protocol11NodeStatus_ILi0EEEEENS
 11454              		.section	.bss._ZGVZN6uavcan22GlobalDataTypeRegistry16registerDataTypeINS_8protocol11NodeStatus_ILi
 11455              		.align	2
 11456              		.type	_ZGVZN6uavcan22GlobalDataTypeRegistry16registerDataTypeINS_8protocol11NodeStatus_ILi0EEEEENS
 11457              		.size	_ZGVZN6uavcan22GlobalDataTypeRegistry16registerDataTypeINS_8protocol11NodeStatus_ILi0EEEEENS
 11458              	_ZGVZN6uavcan22GlobalDataTypeRegistry16registerDataTypeINS_8protocol11NodeStatus_ILi0EEEEENS0_18Reg
 11459 0000 00000000 		.space	4
 11460              		.section	.bss._ZGVZN4node12_GLOBAL__N_117getTimeSyncMasterEvE6master,"aw",%nobits
 11461              		.align	2
 11462              		.set	.LANCHOR15,. + 0
 11463              		.type	_ZGVZN4node12_GLOBAL__N_117getTimeSyncMasterEvE6master, %object
 11464              		.size	_ZGVZN4node12_GLOBAL__N_117getTimeSyncMasterEvE6master, 4
 11465              	_ZGVZN4node12_GLOBAL__N_117getTimeSyncMasterEvE6master:
 11466 0000 00000000 		.space	4
ARM GAS  /tmp/ccFEREDd.s 			page 203


 11467              		.section	.rodata._ZTVN4node12_GLOBAL__N_112ParamManagerE,"a",%progbits
 11468              		.align	3
 11469              		.type	_ZTVN4node12_GLOBAL__N_112ParamManagerE, %object
 11470              		.size	_ZTVN4node12_GLOBAL__N_112ParamManagerE, 40
 11471              	_ZTVN4node12_GLOBAL__N_112ParamManagerE:
 11472 0000 00000000 		.word	0
 11473 0004 00000000 		.word	0
 11474 0008 00000000 		.word	_ZN4node12_GLOBAL__N_112ParamManagerD1Ev
 11475 000c 00000000 		.word	_ZN4node12_GLOBAL__N_112ParamManagerD0Ev
 11476 0010 00000000 		.word	_ZNK4node12_GLOBAL__N_112ParamManager19getParamNameByIndexEtRN6uavcan5ArrayINS2_11IntegerSpe
 11477 0014 00000000 		.word	_ZN4node12_GLOBAL__N_112ParamManager16assignParamValueERKN6uavcan5ArrayINS2_11IntegerSpecILj
 11478 0018 00000000 		.word	_ZNK4node12_GLOBAL__N_112ParamManager14readParamValueERKN6uavcan5ArrayINS2_11IntegerSpecILj8
 11479 001c 00000000 		.word	_ZNK4node12_GLOBAL__N_112ParamManager22readParamDefaultMaxMinERKN6uavcan5ArrayINS2_11Integer
 11480 0020 00000000 		.word	_ZN4node12_GLOBAL__N_112ParamManager13saveAllParamsEv
 11481 0024 00000000 		.word	_ZN4node12_GLOBAL__N_112ParamManager14eraseAllParamsEv
 11482              		.section	.bss._ZN4node12_GLOBAL__N_111node_threadE,"aw",%nobits
 11483              		.align	3
 11484              		.set	.LANCHOR4,. + 0
 11485              		.type	_ZN4node12_GLOBAL__N_111node_threadE, %object
 11486              		.size	_ZN4node12_GLOBAL__N_111node_threadE, 3664
 11487              	_ZN4node12_GLOBAL__N_111node_threadE:
 11488 0000 00000000 		.space	3664
 11488      00000000 
 11488      00000000 
 11488      00000000 
 11488      00000000 
 11489              		.section	.bss._ZZNK4node12_GLOBAL__N_15._3454initEvE9tsm_timer,"aw",%nobits
 11490              		.align	3
 11491              		.set	.LANCHOR26,. + 0
 11492              		.type	_ZZNK4node12_GLOBAL__N_15._3454initEvE9tsm_timer, %object
 11493              		.size	_ZZNK4node12_GLOBAL__N_15._3454initEvE9tsm_timer, 48
 11494              	_ZZNK4node12_GLOBAL__N_15._3454initEvE9tsm_timer:
 11495 0000 00000000 		.space	48
 11495      00000000 
 11495      00000000 
 11495      00000000 
 11495      00000000 
 11496              		.section	.bss._ZZN4node12_GLOBAL__N_116getTimeSyncSlaveEvE2ts,"aw",%nobits
 11497              		.align	3
 11498              		.set	.LANCHOR9,. + 0
 11499              		.type	_ZZN4node12_GLOBAL__N_116getTimeSyncSlaveEvE2ts, %object
 11500              		.size	_ZZN4node12_GLOBAL__N_116getTimeSyncSlaveEvE2ts, 104
 11501              	_ZZN4node12_GLOBAL__N_116getTimeSyncSlaveEvE2ts:
 11502 0000 00000000 		.space	104
 11502      00000000 
 11502      00000000 
 11502      00000000 
 11502      00000000 
 11503              		.section	.bss._ZN4node12_GLOBAL__N_1L22param_node_status_prioE,"aw",%nobits
 11504              		.align	2
 11505              		.set	.LANCHOR16,. + 0
 11506              		.type	_ZN4node12_GLOBAL__N_1L22param_node_status_prioE, %object
 11507              		.size	_ZN4node12_GLOBAL__N_1L22param_node_status_prioE, 20
 11508              	_ZN4node12_GLOBAL__N_1L22param_node_status_prioE:
 11509 0000 00000000 		.space	20
 11509      00000000 
 11509      00000000 
ARM GAS  /tmp/ccFEREDd.s 			page 204


 11509      00000000 
 11509      00000000 
 11510              		.section	.data._ZN4node12_GLOBAL__N_123restart_request_handlerE,"aw",%progbits
 11511              		.align	2
 11512              		.set	.LANCHOR17,. + 0
 11513              		.type	_ZN4node12_GLOBAL__N_123restart_request_handlerE, %object
 11514              		.size	_ZN4node12_GLOBAL__N_123restart_request_handlerE, 4
 11515              	_ZN4node12_GLOBAL__N_123restart_request_handlerE:
 11516 0000 08000000 		.word	_ZTVN4node12_GLOBAL__N_121RestartRequestHandlerE+8
 11517              		.section	.bss._ZN4node12_GLOBAL__N_18comp_mgrE,"aw",%nobits
 11518              		.set	.LANCHOR3,. + 0
 11519              		.type	_ZN4node12_GLOBAL__N_18comp_mgrE, %object
 11520              		.size	_ZN4node12_GLOBAL__N_18comp_mgrE, 6
 11521              	_ZN4node12_GLOBAL__N_18comp_mgrE:
 11522 0000 00000000 		.space	6
 11522      0000
 11523              		.section	.rodata._ZZN12uavcan_stm3213CanInitHelperILj32EE4initIZNK4node12_GLOBAL__N_15._34510initC
 11524              		.align	2
 11525              		.set	.LANCHOR30,. + 0
 11526              		.type	_ZZN12uavcan_stm3213CanInitHelperILj32EE4initIZNK4node12_GLOBAL__N_15._34510initCanBusEvEUlv
 11527              		.size	_ZZN12uavcan_stm3213CanInitHelperILj32EE4initIZNK4node12_GLOBAL__N_15._34510initCanBusEvEUlv
 11528              	_ZZN12uavcan_stm3213CanInitHelperILj32EE4initIZNK4node12_GLOBAL__N_15._34510initCanBusEvEUlvE_EEiT_
 11529 0000 40420F00 		.word	1000000
 11530 0004 20A10700 		.word	500000
 11531 0008 90D00300 		.word	250000
 11532 000c 48E80100 		.word	125000
 11533              		.section	.rodata._ZTVN4node12_GLOBAL__N_121RestartRequestHandlerE,"a",%progbits
 11534              		.align	3
 11535              		.type	_ZTVN4node12_GLOBAL__N_121RestartRequestHandlerE, %object
 11536              		.size	_ZTVN4node12_GLOBAL__N_121RestartRequestHandlerE, 20
 11537              	_ZTVN4node12_GLOBAL__N_121RestartRequestHandlerE:
 11538 0000 00000000 		.word	0
 11539 0004 00000000 		.word	0
 11540 0008 00000000 		.word	_ZN4node12_GLOBAL__N_121RestartRequestHandlerD1Ev
 11541 000c 00000000 		.word	_ZN4node12_GLOBAL__N_121RestartRequestHandlerD0Ev
 11542 0010 00000000 		.word	_ZN4node12_GLOBAL__N_121RestartRequestHandler20handleRestartRequestEN6uavcan6NodeIDE
 11543              		.section	.bss._ZGVZN4node12_GLOBAL__N_128getBeginFirmwareUpdateServerEvE3srv,"aw",%nobits
 11544              		.align	2
 11545              		.set	.LANCHOR27,. + 0
 11546              		.type	_ZGVZN4node12_GLOBAL__N_128getBeginFirmwareUpdateServerEvE3srv, %object
 11547              		.size	_ZGVZN4node12_GLOBAL__N_128getBeginFirmwareUpdateServerEvE3srv, 4
 11548              	_ZGVZN4node12_GLOBAL__N_128getBeginFirmwareUpdateServerEvE3srv:
 11549 0000 00000000 		.space	4
 11550              		.section	.data._ZN4node12_GLOBAL__N_113param_managerE,"aw",%progbits
 11551              		.align	2
 11552              		.set	.LANCHOR22,. + 0
 11553              		.type	_ZN4node12_GLOBAL__N_113param_managerE, %object
 11554              		.size	_ZN4node12_GLOBAL__N_113param_managerE, 4
 11555              	_ZN4node12_GLOBAL__N_113param_managerE:
 11556 0000 08000000 		.word	_ZTVN4node12_GLOBAL__N_112ParamManagerE+8
 11557              		.section	.bss._ZZN4node12_GLOBAL__N_128getBeginFirmwareUpdateServerEvE3srv,"aw",%nobits
 11558              		.align	3
 11559              		.set	.LANCHOR28,. + 0
 11560              		.type	_ZZN4node12_GLOBAL__N_128getBeginFirmwareUpdateServerEvE3srv, %object
 11561              		.size	_ZZN4node12_GLOBAL__N_128getBeginFirmwareUpdateServerEvE3srv, 112
 11562              	_ZZN4node12_GLOBAL__N_128getBeginFirmwareUpdateServerEvE3srv:
 11563 0000 00000000 		.space	112
ARM GAS  /tmp/ccFEREDd.s 			page 205


 11563      00000000 
 11563      00000000 
 11563      00000000 
 11563      00000000 
 11564              		.section	.bss._ZN4node12_GLOBAL__N_123pending_restart_requestE,"aw",%nobits
 11565              		.set	.LANCHOR0,. + 0
 11566              		.type	_ZN4node12_GLOBAL__N_123pending_restart_requestE, %object
 11567              		.size	_ZN4node12_GLOBAL__N_123pending_restart_requestE, 1
 11568              	_ZN4node12_GLOBAL__N_123pending_restart_requestE:
 11569 0000 00       		.space	1
 11570              		.section	.rodata.str1.1,"aMS",%progbits,1
 11571              	.LC0:
 11572 0000 52657374 		.ascii	"Restart request from %i\012\000"
 11572      61727420 
 11572      72657175 
 11572      65737420 
 11572      66726F6D 
 11573              	.LC1:
 11574 0019 00       		.ascii	"\000"
 11575              	.LC2:
 11576 001a 4C617A79 		.ascii	"LazyConstructor<T>\000"
 11576      436F6E73 
 11576      74727563 
 11576      746F723C 
 11576      543E00
 11577              	.LC3:
 11578 002d 476C6F62 		.ascii	"GlobalTimeSyncMaster zero TX ts\000"
 11578      616C5469 
 11578      6D655379 
 11578      6E634D61 
 11578      73746572 
 11579              	.LC4:
 11580 004d 476C6F62 		.ascii	"GlobalTimeSyncMaster pub conflict\000"
 11580      616C5469 
 11580      6D655379 
 11580      6E634D61 
 11580      73746572 
 11581              	.LC5:
 11582 006f 42656769 		.ascii	"BeginFirmwareUpdate request from %d\012\000"
 11582      6E466972 
 11582      6D776172 
 11582      65557064 
 11582      61746520 
 11583              	.LC6:
 11584 0094 55415643 		.ascii	"UAVCAN spin failure: %i\012\000"
 11584      414E2073 
 11584      70696E20 
 11584      6661696C 
 11584      7572653A 
 11585              	.LC7:
 11586 00ad 75617663 		.ascii	"uavcan.protocol.GetNodeInfo\000"
 11586      616E2E70 
 11586      726F746F 
 11586      636F6C2E 
 11586      4765744E 
 11587              	.LC8:
 11588 00c9 75617663 		.ascii	"uavcan.protocol.GetDataTypeInfo\000"
ARM GAS  /tmp/ccFEREDd.s 			page 206


 11588      616E2E70 
 11588      726F746F 
 11588      636F6C2E 
 11588      47657444 
 11589              	.LC9:
 11590 00e9 636F6D2E 		.ascii	"com.zubax.gnss\000"
 11590      7A756261 
 11590      782E676E 
 11590      737300
 11591              	.LC10:
 11592 00f8 47697420 		.ascii	"Git commit hash: 0x%08x\012\000"
 11592      636F6D6D 
 11592      69742068 
 11592      6173683A 
 11592      20307825 
 11593              	.LC11:
 11594 0111 55444944 		.ascii	"UDID:\000"
 11594      3A00
 11595              	.LC12:
 11596 0117 20253032 		.ascii	" %02x\000"
 11596      7800
 11597              	.LC13:
 11598 011d 0A00     		.ascii	"\012\000"
 11599              	.LC14:
 11600 011f 41727261 		.ascii	"Array::operator=(const char*)\000"
 11600      793A3A6F 
 11600      70657261 
 11600      746F723D 
 11600      28636F6E 
 11601              	.LC15:
 11602 013d 75617663 		.ascii	"uavcan.protocol.debug.LogMessage\000"
 11602      616E2E70 
 11602      726F746F 
 11602      636F6C2E 
 11602      64656275 
 11603              	.LC16:
 11604 015e 75617663 		.ascii	"uavcan.protocol.GetTransportStats\000"
 11604      616E2E70 
 11604      726F746F 
 11604      636F6C2E 
 11604      47657454 
 11605              	.LC17:
 11606 0180 75617663 		.ascii	"uavcan.protocol.GlobalTimeSync\000"
 11606      616E2E70 
 11606      726F746F 
 11606      636F6C2E 
 11606      476C6F62 
 11607              	.LC18:
 11608 019f 75617663 		.ascii	"uavcan.protocol.file.BeginFirmwareUpdate\000"
 11608      616E2E70 
 11608      726F746F 
 11608      636F6C2E 
 11608      66696C65 
 11609              	.LC19:
 11610 01c8 75617663 		.ascii	"uavcan.protocol.RestartNode\000"
 11610      616E2E70 
 11610      726F746F 
ARM GAS  /tmp/ccFEREDd.s 			page 207


 11610      636F6C2E 
 11610      52657374 
 11611              	.LC20:
 11612 01e4 75617663 		.ascii	"uavcan.protocol.param.GetSet\000"
 11612      616E2E70 
 11612      726F746F 
 11612      636F6C2E 
 11612      70617261 
 11613              	.LC21:
 11614 0201 75617663 		.ascii	"uavcan.protocol.param.ExecuteOpcode\000"
 11614      616E2E70 
 11614      726F746F 
 11614      636F6C2E 
 11614      70617261 
 11615              	.LC22:
 11616 0225 53727620 		.ascii	"Srv serv clbk\000"
 11616      73657276 
 11616      20636C62 
 11616      6B00
 11617              	.LC23:
 11618 0233 53756220 		.ascii	"Sub clbk\000"
 11618      636C626B 
 11618      00
 11619              	.LC24:
 11620 023c 257300   		.ascii	"%s\000"
 11621              	.LC25:
 11622 023f 55415643 		.ascii	"UAVCAN\000"
 11622      414E00
 11623              	.LC26:
 11624 0246 5573696E 		.ascii	"Using static node ID %d\012\000"
 11624      67207374 
 11624      61746963 
 11624      206E6F64 
 11624      65204944 
 11625              	.LC27:
 11626 025f 57616974 		.ascii	"Waiting for dynamic node ID allocation...\012\000"
 11626      696E6720 
 11626      666F7220 
 11626      64796E61 
 11626      6D696320 
 11627              	.LC28:
 11628 028a 44796E61 		.ascii	"Dynamic node ID %d allocated by %d\012\000"
 11628      6D696320 
 11628      6E6F6465 
 11628      20494420 
 11628      25642061 
 11629              	.LC29:
 11630 02ae 54696D65 		.ascii	"Time sync enabled, period %f sec\012\000"
 11630      2073796E 
 11630      6320656E 
 11630      61626C65 
 11630      642C2070 
 11631              	.LC30:
 11632 02d0 54696D65 		.ascii	"Time sync disabled\012\000"
 11632      2073796E 
 11632      63206469 
 11632      7361626C 
ARM GAS  /tmp/ccFEREDd.s 			page 208


 11632      65640A00 
 11633              	.LC31:
 11634 02e4 55415643 		.ascii	"UAVCAN node started, ID %i\012\000"
 11634      414E206E 
 11634      6F646520 
 11634      73746172 
 11634      7465642C 
 11635              	.LC32:
 11636 0300 75617663 		.ascii	"uavcan\000"
 11636      616E00
 11637              	.LC33:
 11638 0307 43414E20 		.ascii	"CAN inited at %u bps\012\000"
 11638      696E6974 
 11638      65642061 
 11638      74202575 
 11638      20627073 
 11639              	.LC34:
 11640 031d 436F756C 		.ascii	"Could not init CAN; status: %d, autodetect: %d, bit"
 11640      64206E6F 
 11640      7420696E 
 11640      69742043 
 11640      414E3B20 
 11641 0350 72617465 		.ascii	"rate: %u\012\000"
 11641      3A202575 
 11641      0A00
 11642              	.LC35:
 11643 035a 55415643 		.ascii	"UAVCAN node init failed [%i], will retry\012\000"
 11643      414E206E 
 11643      6F646520 
 11643      696E6974 
 11643      20666169 
 11644              	.LC36:
 11645 0384 7A756261 		.ascii	"zubax_chibios//zubax_chibios/watchdog/watchdog.hpp:"
 11645      785F6368 
 11645      6962696F 
 11645      732F2F7A 
 11645      75626178 
 11646 03b7 333000   		.ascii	"30\000"
 11647              	.LC37:
 11648 03ba 55415643 		.ascii	"UAVCAN terminated\012\000"
 11648      414E2074 
 11648      65726D69 
 11648      6E617465 
 11648      640A00
 11649              	.LC38:
 11650 03cd 75617663 		.ascii	"uavcan.protocol.NodeStatus\000"
 11650      616E2E70 
 11650      726F746F 
 11650      636F6C2E 
 11650      4E6F6465 
 11651              	.LC39:
 11652 03e8 54797065 		.ascii	"Type reg failed\000"
 11652      20726567 
 11652      20666169 
 11652      6C656400 
 11653              	.LC40:
 11654 03f8 75617663 		.ascii	"uavcan.protocol.dynamic_node_id.Allocation\000"
ARM GAS  /tmp/ccFEREDd.s 			page 209


 11654      616E2E70 
 11654      726F746F 
 11654      636F6C2E 
 11654      64796E61 
 11655              	.LC41:
 11656 0423 75617663 		.ascii	"uavcan.bit_rate\000"
 11656      616E2E62 
 11656      69745F72 
 11656      61746500 
 11657              	.LC42:
 11658 0433 75617663 		.ascii	"uavcan.node_id\000"
 11658      616E2E6E 
 11658      6F64655F 
 11658      696400
 11659              	.LC43:
 11660 0442 75617663 		.ascii	"uavcan.pubp-time\000"
 11660      616E2E70 
 11660      7562702D 
 11660      74696D65 
 11660      00
 11661              	.LC44:
 11662 0453 75617663 		.ascii	"uavcan.prio-time\000"
 11662      616E2E70 
 11662      72696F2D 
 11662      74696D65 
 11662      00
 11663              	.LC45:
 11664 0464 75617663 		.ascii	"uavcan.pubp-stat\000"
 11664      616E2E70 
 11664      7562702D 
 11664      73746174 
 11664      00
 11665              	.LC46:
 11666 0475 75617663 		.ascii	"uavcan.prio-stat\000"
 11666      616E2E70 
 11666      72696F2D 
 11666      73746174 
 11666      00
 11667              		.section	.bss._ZZN4node12_GLOBAL__N_114getParamServerEvE6server,"aw",%nobits
 11668              		.align	3
 11669              		.set	.LANCHOR21,. + 0
 11670              		.type	_ZZN4node12_GLOBAL__N_114getParamServerEvE6server, %object
 11671              		.size	_ZZN4node12_GLOBAL__N_114getParamServerEvE6server, 248
 11672              	_ZZN4node12_GLOBAL__N_114getParamServerEvE6server:
 11673 0000 00000000 		.space	248
 11673      00000000 
 11673      00000000 
 11673      00000000 
 11673      00000000 
 11674              		.section	.bss._ZZN4node12_GLOBAL__N_117getTimeSyncMasterEvE6master,"aw",%nobits
 11675              		.align	3
 11676              		.set	.LANCHOR14,. + 0
 11677              		.type	_ZZN4node12_GLOBAL__N_117getTimeSyncMasterEvE6master, %object
 11678              		.size	_ZZN4node12_GLOBAL__N_117getTimeSyncMasterEvE6master, 248
 11679              	_ZZN4node12_GLOBAL__N_117getTimeSyncMasterEvE6master:
 11680 0000 00000000 		.space	248
 11680      00000000 
ARM GAS  /tmp/ccFEREDd.s 			page 210


 11680      00000000 
 11680      00000000 
 11680      00000000 
 11681              		.section	.bss._ZN4node12_GLOBAL__N_1L35param_node_status_pub_interval_usecE,"aw",%nobits
 11682              		.align	2
 11683              		.set	.LANCHOR18,. + 0
 11684              		.type	_ZN4node12_GLOBAL__N_1L35param_node_status_pub_interval_usecE, %object
 11685              		.size	_ZN4node12_GLOBAL__N_1L35param_node_status_pub_interval_usecE, 20
 11686              	_ZN4node12_GLOBAL__N_1L35param_node_status_pub_interval_usecE:
 11687 0000 00000000 		.space	20
 11687      00000000 
 11687      00000000 
 11687      00000000 
 11687      00000000 
 11688              		.section	.bss._ZN4node12_GLOBAL__N_17startedE,"aw",%nobits
 11689              		.set	.LANCHOR2,. + 0
 11690              		.type	_ZN4node12_GLOBAL__N_17startedE, %object
 11691              		.size	_ZN4node12_GLOBAL__N_17startedE, 1
 11692              	_ZN4node12_GLOBAL__N_17startedE:
 11693 0000 00       		.space	1
 11694              		.section	.bss._ZN4node12_GLOBAL__N_1L20param_time_sync_prioE,"aw",%nobits
 11695              		.align	2
 11696              		.set	.LANCHOR24,. + 0
 11697              		.type	_ZN4node12_GLOBAL__N_1L20param_time_sync_prioE, %object
 11698              		.size	_ZN4node12_GLOBAL__N_1L20param_time_sync_prioE, 20
 11699              	_ZN4node12_GLOBAL__N_1L20param_time_sync_prioE:
 11700 0000 00000000 		.space	20
 11700      00000000 
 11700      00000000 
 11700      00000000 
 11700      00000000 
 11701              		.section	.rodata._ZTVN4node12_GLOBAL__N_15._345E,"a",%progbits
 11702              		.align	3
 11703              		.set	.LANCHOR31,. + 0
 11704              		.type	_ZTVN4node12_GLOBAL__N_15._345E, %object
 11705              		.size	_ZTVN4node12_GLOBAL__N_15._345E, 20
 11706              	_ZTVN4node12_GLOBAL__N_15._345E:
 11707 0000 00000000 		.word	0
 11708 0004 00000000 		.word	0
 11709 0008 00000000 		.word	_ZN10chibios_rt15ThreadReference4stopEv
 11710 000c 00000000 		.word	_ZN4node12_GLOBAL__N_15._3454mainEv
 11711 0010 00000000 		.word	_ZN10chibios_rt16BaseStaticThreadILi3000EE5startEm
 11712              		.section	.bss._ZGVZNK4node12_GLOBAL__N_15._3454initEvE9tsm_timer,"aw",%nobits
 11713              		.align	2
 11714              		.set	.LANCHOR25,. + 0
 11715              		.type	_ZGVZNK4node12_GLOBAL__N_15._3454initEvE9tsm_timer, %object
 11716              		.size	_ZGVZNK4node12_GLOBAL__N_15._3454initEvE9tsm_timer, 4
 11717              	_ZGVZNK4node12_GLOBAL__N_15._3454initEvE9tsm_timer:
 11718 0000 00000000 		.space	4
 11719              		.section	.bss._ZN4node12_GLOBAL__N_1L27param_time_sync_period_usecE,"aw",%nobits
 11720              		.align	2
 11721              		.set	.LANCHOR23,. + 0
 11722              		.type	_ZN4node12_GLOBAL__N_1L27param_time_sync_period_usecE, %object
 11723              		.size	_ZN4node12_GLOBAL__N_1L27param_time_sync_period_usecE, 20
 11724              	_ZN4node12_GLOBAL__N_1L27param_time_sync_period_usecE:
 11725 0000 00000000 		.space	20
 11725      00000000 
ARM GAS  /tmp/ccFEREDd.s 			page 211


 11725      00000000 
 11725      00000000 
 11725      00000000 
 11726              		.section	.bss._ZN4node12_GLOBAL__N_13canE,"aw",%nobits
 11727              		.align	3
 11728              		.set	.LANCHOR7,. + 0
 11729              		.type	_ZN4node12_GLOBAL__N_13canE, %object
 11730              		.size	_ZN4node12_GLOBAL__N_13canE, 2352
 11731              	_ZN4node12_GLOBAL__N_13canE:
 11732 0000 00000000 		.space	2352
 11732      00000000 
 11732      00000000 
 11732      00000000 
 11732      00000000 
 11733              		.section	.bss._ZGVZN4node7getNodeEvE4node,"aw",%nobits
 11734              		.align	2
 11735              		.set	.LANCHOR5,. + 0
 11736              		.type	_ZGVZN4node7getNodeEvE4node, %object
 11737              		.size	_ZGVZN4node7getNodeEvE4node, 4
 11738              	_ZGVZN4node7getNodeEvE4node:
 11739 0000 00000000 		.space	4
 11740              		.section	.bss._ZZN4node12_GLOBAL__N_132handleBeginFirmwareUpdateRequestERKN6uavcan21ReceivedDataSt
 11741              		.set	.LANCHOR12,. + 0
 11742              		.type	_ZZN4node12_GLOBAL__N_132handleBeginFirmwareUpdateRequestERKN6uavcan21ReceivedDataStructureI
 11743              		.size	_ZZN4node12_GLOBAL__N_132handleBeginFirmwareUpdateRequestERKN6uavcan21ReceivedDataStructureI
 11744              	_ZZN4node12_GLOBAL__N_132handleBeginFirmwareUpdateRequestERKN6uavcan21ReceivedDataStructureINS1_8pr
 11745 0000 00       		.space	1
 11746              		.section	.bss._ZN4node12_GLOBAL__N_1L13param_node_idE,"aw",%nobits
 11747              		.align	2
 11748              		.set	.LANCHOR19,. + 0
 11749              		.type	_ZN4node12_GLOBAL__N_1L13param_node_idE, %object
 11750              		.size	_ZN4node12_GLOBAL__N_1L13param_node_idE, 20
 11751              	_ZN4node12_GLOBAL__N_1L13param_node_idE:
 11752 0000 00000000 		.space	20
 11752      00000000 
 11752      00000000 
 11752      00000000 
 11752      00000000 
 11753              		.section	.bss._ZN4node12_GLOBAL__N_117local_utc_updatedE,"aw",%nobits
 11754              		.set	.LANCHOR11,. + 0
 11755              		.type	_ZN4node12_GLOBAL__N_117local_utc_updatedE, %object
 11756              		.size	_ZN4node12_GLOBAL__N_117local_utc_updatedE, 1
 11757              	_ZN4node12_GLOBAL__N_117local_utc_updatedE:
 11758 0000 00       		.space	1
 11759              		.section	.bss._ZN4node12_GLOBAL__N_1L17param_can_bitrateE,"aw",%nobits
 11760              		.align	2
 11761              		.set	.LANCHOR29,. + 0
 11762              		.type	_ZN4node12_GLOBAL__N_1L17param_can_bitrateE, %object
 11763              		.size	_ZN4node12_GLOBAL__N_1L17param_can_bitrateE, 20
 11764              	_ZN4node12_GLOBAL__N_1L17param_can_bitrateE:
 11765 0000 00000000 		.space	20
 11765      00000000 
 11765      00000000 
 11765      00000000 
 11765      00000000 
 11766              		.section	.bss._ZN4node12_GLOBAL__N_124time_sync_master_enabledE,"aw",%nobits
 11767              		.set	.LANCHOR10,. + 0
ARM GAS  /tmp/ccFEREDd.s 			page 212


 11768              		.type	_ZN4node12_GLOBAL__N_124time_sync_master_enabledE, %object
 11769              		.size	_ZN4node12_GLOBAL__N_124time_sync_master_enabledE, 1
 11770              	_ZN4node12_GLOBAL__N_124time_sync_master_enabledE:
 11771 0000 00       		.space	1
 11772              		.section	.bss._ZGVZN4node12_GLOBAL__N_116getTimeSyncSlaveEvE2ts,"aw",%nobits
 11773              		.align	2
 11774              		.set	.LANCHOR8,. + 0
 11775              		.type	_ZGVZN4node12_GLOBAL__N_116getTimeSyncSlaveEvE2ts, %object
 11776              		.size	_ZGVZN4node12_GLOBAL__N_116getTimeSyncSlaveEvE2ts, 4
 11777              	_ZGVZN4node12_GLOBAL__N_116getTimeSyncSlaveEvE2ts:
 11778 0000 00000000 		.space	4
 11779              		.section	.bss._ZN4node12_GLOBAL__N_110node_mutexE,"aw",%nobits
 11780              		.align	2
 11781              		.set	.LANCHOR1,. + 0
 11782              		.type	_ZN4node12_GLOBAL__N_110node_mutexE, %object
 11783              		.size	_ZN4node12_GLOBAL__N_110node_mutexE, 16
 11784              	_ZN4node12_GLOBAL__N_110node_mutexE:
 11785 0000 00000000 		.space	16
 11785      00000000 
 11785      00000000 
 11785      00000000 
 11786              		.section	.bss._ZN4node12_GLOBAL__N_123active_can_bus_bit_rateE,"aw",%nobits
 11787              		.align	2
 11788              		.set	.LANCHOR13,. + 0
 11789              		.type	_ZN4node12_GLOBAL__N_123active_can_bus_bit_rateE, %object
 11790              		.size	_ZN4node12_GLOBAL__N_123active_can_bus_bit_rateE, 4
 11791              	_ZN4node12_GLOBAL__N_123active_can_bus_bit_rateE:
 11792 0000 00000000 		.space	4
 11793              		.section	.bss._ZGVZN4node12_GLOBAL__N_114getParamServerEvE6server,"aw",%nobits
 11794              		.align	2
 11795              		.set	.LANCHOR20,. + 0
 11796              		.type	_ZGVZN4node12_GLOBAL__N_114getParamServerEvE6server, %object
 11797              		.size	_ZGVZN4node12_GLOBAL__N_114getParamServerEvE6server, 4
 11798              	_ZGVZN4node12_GLOBAL__N_114getParamServerEvE6server:
 11799 0000 00000000 		.space	4
 11800              		.section	.bss._ZZN4node7getNodeEvE4node,"aw",%nobits
 11801              		.align	3
 11802              		.set	.LANCHOR6,. + 0
 11803              		.type	_ZZN4node7getNodeEvE4node, %object
 11804              		.size	_ZZN4node7getNodeEvE4node, 8608
 11805              	_ZZN4node7getNodeEvE4node:
 11806 0000 00000000 		.space	8608
 11806      00000000 
 11806      00000000 
 11806      00000000 
 11806      00000000 
 11807              		.hidden	__dso_handle
 11808              		.ident	"GCC: (15:4.9.3+svn231177-1) 4.9.3 20150529 (prerelease)"
ARM GAS  /tmp/ccFEREDd.s 			page 213


DEFINED SYMBOLS
                            *ABS*:0000000000000000 node.cpp
     /tmp/ccFEREDd.s:16     .text._ZNK6uavcan10ICanDriver8getIfaceEh:0000000000000000 $t
     /tmp/ccFEREDd.s:21     .text._ZNK6uavcan10ICanDriver8getIfaceEh:0000000000000000 _ZNK6uavcan10ICanDriver8getIfaceEh
     /tmp/ccFEREDd.s:30     .text._ZNK6uavcan13IParamManager22readParamDefaultMaxMinERKNS_5ArrayINS_11IntegerSpecILj8ELNS_10SignednessE0ELNS_8CastModeE0EEELNS_9ArrayModeE1ELj92EEERNS_8protocol5param6Value_ILi0EEERNSB_13NumericValue_ILi0EEESH_:0000000000000000 $t
     /tmp/ccFEREDd.s:35     .text._ZNK6uavcan13IParamManager22readParamDefaultMaxMinERKNS_5ArrayINS_11IntegerSpecILj8ELNS_10SignednessE0ELNS_8CastModeE0EEELNS_9ArrayModeE1ELj92EEERNS_8protocol5param6Value_ILi0EEERNSB_13NumericValue_ILi0EEESH_:0000000000000000 _ZNK6uavcan13IParamManager22readParamDefaultMaxMinERKNS_5ArrayINS_11IntegerSpecILj8ELNS_10SignednessE0ELNS_8CastModeE0EEELNS_9ArrayModeE1ELj92EEERNS_8protocol5param6Value_ILi0EEERNSB_13NumericValue_ILi0EEESH_
     /tmp/ccFEREDd.s:42     .text._ZN6uavcan13PoolAllocatorILj7168ELh56EcED2Ev:0000000000000000 $t
     /tmp/ccFEREDd.s:47     .text._ZN6uavcan13PoolAllocatorILj7168ELh56EcED2Ev:0000000000000000 _ZN6uavcan13PoolAllocatorILj7168ELh56EcED2Ev
     /tmp/ccFEREDd.s:47     .text._ZN6uavcan13PoolAllocatorILj7168ELh56EcED2Ev:0000000000000000 _ZN6uavcan13PoolAllocatorILj7168ELh56EcED1Ev
     /tmp/ccFEREDd.s:56     .text._ZN6uavcan22GlobalDataTypeRegistry5EntryD2Ev:0000000000000000 $t
     /tmp/ccFEREDd.s:61     .text._ZN6uavcan22GlobalDataTypeRegistry5EntryD2Ev:0000000000000000 _ZN6uavcan22GlobalDataTypeRegistry5EntryD2Ev
     /tmp/ccFEREDd.s:61     .text._ZN6uavcan22GlobalDataTypeRegistry5EntryD2Ev:0000000000000000 _ZN6uavcan22GlobalDataTypeRegistry5EntryD1Ev
     /tmp/ccFEREDd.s:70     .text._ZNSt17_Function_handlerIFvRKN6uavcan10TimerEventEEPS4_E9_M_invokeERKSt9_Any_dataS3_:0000000000000000 $t
     /tmp/ccFEREDd.s:75     .text._ZNSt17_Function_handlerIFvRKN6uavcan10TimerEventEEPS4_E9_M_invokeERKSt9_Any_dataS3_:0000000000000000 _ZNSt17_Function_handlerIFvRKN6uavcan10TimerEventEEPS4_E9_M_invokeERKSt9_Any_dataS3_
     /tmp/ccFEREDd.s:84     .text._ZNSt14_Function_base13_Base_managerIPFvRKN6uavcan10TimerEventEEE10_M_managerERSt9_Any_dataRKS8_St18_Manager_operation:0000000000000000 $t
     /tmp/ccFEREDd.s:89     .text._ZNSt14_Function_base13_Base_managerIPFvRKN6uavcan10TimerEventEEE10_M_managerERSt9_Any_dataRKS8_St18_Manager_operation:0000000000000000 _ZNSt14_Function_base13_Base_managerIPFvRKN6uavcan10TimerEventEEE10_M_managerERSt9_Any_dataRKS8_St18_Manager_operation
     /tmp/ccFEREDd.s:110    .text._ZN6uavcan20StaticTransferBufferILt123EED2Ev:0000000000000000 $t
     /tmp/ccFEREDd.s:115    .text._ZN6uavcan20StaticTransferBufferILt123EED2Ev:0000000000000000 _ZN6uavcan20StaticTransferBufferILt123EED2Ev
     /tmp/ccFEREDd.s:115    .text._ZN6uavcan20StaticTransferBufferILt123EED2Ev:0000000000000000 _ZN6uavcan20StaticTransferBufferILt123EED1Ev
     /tmp/ccFEREDd.s:124    .text._ZN6uavcan20StaticTransferBufferILt7EED2Ev:0000000000000000 $t
     /tmp/ccFEREDd.s:129    .text._ZN6uavcan20StaticTransferBufferILt7EED2Ev:0000000000000000 _ZN6uavcan20StaticTransferBufferILt7EED2Ev
     /tmp/ccFEREDd.s:129    .text._ZN6uavcan20StaticTransferBufferILt7EED2Ev:0000000000000000 _ZN6uavcan20StaticTransferBufferILt7EED1Ev
     /tmp/ccFEREDd.s:138    .text._ZN4node12_GLOBAL__N_121RestartRequestHandlerD2Ev:0000000000000000 $t
     /tmp/ccFEREDd.s:142    .text._ZN4node12_GLOBAL__N_121RestartRequestHandlerD2Ev:0000000000000000 _ZN4node12_GLOBAL__N_121RestartRequestHandlerD2Ev
     /tmp/ccFEREDd.s:142    .text._ZN4node12_GLOBAL__N_121RestartRequestHandlerD2Ev:0000000000000000 _ZN4node12_GLOBAL__N_121RestartRequestHandlerD1Ev
     /tmp/ccFEREDd.s:150    .text._ZN4node12_GLOBAL__N_112ParamManagerD2Ev:0000000000000000 $t
     /tmp/ccFEREDd.s:154    .text._ZN4node12_GLOBAL__N_112ParamManagerD2Ev:0000000000000000 _ZN4node12_GLOBAL__N_112ParamManagerD2Ev
     /tmp/ccFEREDd.s:154    .text._ZN4node12_GLOBAL__N_112ParamManagerD2Ev:0000000000000000 _ZN4node12_GLOBAL__N_112ParamManagerD1Ev
     /tmp/ccFEREDd.s:162    .text._ZN4node12_GLOBAL__N_15._345D2Ev:0000000000000000 $t
     /tmp/ccFEREDd.s:166    .text._ZN4node12_GLOBAL__N_15._345D2Ev:0000000000000000 _ZN4node12_GLOBAL__N_15._345D2Ev
     /tmp/ccFEREDd.s:166    .text._ZN4node12_GLOBAL__N_15._345D2Ev:0000000000000000 _ZN4node12_GLOBAL__N_15._345D1Ev
     /tmp/ccFEREDd.s:174    .text._ZN6uavcan4NodeILj7168EE12getAllocatorEv:0000000000000000 $t
     /tmp/ccFEREDd.s:179    .text._ZN6uavcan4NodeILj7168EE12getAllocatorEv:0000000000000000 _ZN6uavcan4NodeILj7168EE12getAllocatorEv
     /tmp/ccFEREDd.s:187    .text._ZN6uavcan4NodeILj7168EE12getSchedulerEv:0000000000000000 $t
     /tmp/ccFEREDd.s:192    .text._ZN6uavcan4NodeILj7168EE12getSchedulerEv:0000000000000000 _ZN6uavcan4NodeILj7168EE12getSchedulerEv
     /tmp/ccFEREDd.s:201    .text._ZNK6uavcan4NodeILj7168EE12getSchedulerEv:0000000000000000 $t
     /tmp/ccFEREDd.s:206    .text._ZNK6uavcan4NodeILj7168EE12getSchedulerEv:0000000000000000 _ZNK6uavcan4NodeILj7168EE12getSchedulerEv
     /tmp/ccFEREDd.s:215    .text._ZN6uavcan13PoolAllocatorILj7168ELh56EcE8allocateEj:0000000000000000 $t
     /tmp/ccFEREDd.s:220    .text._ZN6uavcan13PoolAllocatorILj7168ELh56EcE8allocateEj:0000000000000000 _ZN6uavcan13PoolAllocatorILj7168ELh56EcE8allocateEj
     /tmp/ccFEREDd.s:249    .text._ZN6uavcan13PoolAllocatorILj7168ELh56EcE10deallocateEPKv:0000000000000000 $t
     /tmp/ccFEREDd.s:254    .text._ZN6uavcan13PoolAllocatorILj7168ELh56EcE10deallocateEPKv:0000000000000000 _ZN6uavcan13PoolAllocatorILj7168ELh56EcE10deallocateEPKv
     /tmp/ccFEREDd.s:270    .text._ZNK6uavcan13PoolAllocatorILj7168ELh56EcE16getBlockCapacityEv:0000000000000000 $t
     /tmp/ccFEREDd.s:275    .text._ZNK6uavcan13PoolAllocatorILj7168ELh56EcE16getBlockCapacityEv:0000000000000000 _ZNK6uavcan13PoolAllocatorILj7168ELh56EcE16getBlockCapacityEv
     /tmp/ccFEREDd.s:283    .text._ZN6uavcan17GenericSubscriberINS_8protocol18GetTransportStats_ENS2_8Request_ILi0EEENS_16TransferListenerEE17TransferForwarder22handleIncomingTransferERNS_16IncomingTransferE:0000000000000000 $t
     /tmp/ccFEREDd.s:288    .text._ZN6uavcan17GenericSubscriberINS_8protocol18GetTransportStats_ENS2_8Request_ILi0EEENS_16TransferListenerEE17TransferForwarder22handleIncomingTransferERNS_16IncomingTransferE:0000000000000000 _ZN6uavcan17GenericSubscriberINS_8protocol18GetTransportStats_ENS2_8Request_ILi0EEENS_16TransferListenerEE17TransferForwarder22handleIncomingTransferERNS_16IncomingTransferE
     /tmp/ccFEREDd.s:309    .text._ZN6uavcan20StaticTransferBufferILt129EED2Ev:0000000000000000 $t
     /tmp/ccFEREDd.s:314    .text._ZN6uavcan20StaticTransferBufferILt129EED2Ev:0000000000000000 _ZN6uavcan20StaticTransferBufferILt129EED2Ev
     /tmp/ccFEREDd.s:314    .text._ZN6uavcan20StaticTransferBufferILt129EED2Ev:0000000000000000 _ZN6uavcan20StaticTransferBufferILt129EED1Ev
     /tmp/ccFEREDd.s:323    .text._ZN6uavcan20StaticTransferBufferILt371EED2Ev:0000000000000000 $t
     /tmp/ccFEREDd.s:328    .text._ZN6uavcan20StaticTransferBufferILt371EED2Ev:0000000000000000 _ZN6uavcan20StaticTransferBufferILt371EED2Ev
     /tmp/ccFEREDd.s:328    .text._ZN6uavcan20StaticTransferBufferILt371EED2Ev:0000000000000000 _ZN6uavcan20StaticTransferBufferILt371EED1Ev
     /tmp/ccFEREDd.s:337    .text._ZN6uavcan20StaticTransferBufferILt73EED2Ev:0000000000000000 $t
     /tmp/ccFEREDd.s:342    .text._ZN6uavcan20StaticTransferBufferILt73EED2Ev:0000000000000000 _ZN6uavcan20StaticTransferBufferILt73EED2Ev
     /tmp/ccFEREDd.s:342    .text._ZN6uavcan20StaticTransferBufferILt73EED2Ev:0000000000000000 _ZN6uavcan20StaticTransferBufferILt73EED1Ev
     /tmp/ccFEREDd.s:351    .text._ZN6uavcan20StaticTransferBufferILt1EED2Ev:0000000000000000 $t
     /tmp/ccFEREDd.s:356    .text._ZN6uavcan20StaticTransferBufferILt1EED2Ev:0000000000000000 _ZN6uavcan20StaticTransferBufferILt1EED2Ev
     /tmp/ccFEREDd.s:356    .text._ZN6uavcan20StaticTransferBufferILt1EED2Ev:0000000000000000 _ZN6uavcan20StaticTransferBufferILt1EED1Ev
ARM GAS  /tmp/ccFEREDd.s 			page 214


     /tmp/ccFEREDd.s:365    .text._ZN6uavcan20StaticTransferBufferILt93EED2Ev:0000000000000000 $t
     /tmp/ccFEREDd.s:370    .text._ZN6uavcan20StaticTransferBufferILt93EED2Ev:0000000000000000 _ZN6uavcan20StaticTransferBufferILt93EED2Ev
     /tmp/ccFEREDd.s:370    .text._ZN6uavcan20StaticTransferBufferILt93EED2Ev:0000000000000000 _ZN6uavcan20StaticTransferBufferILt93EED1Ev
     /tmp/ccFEREDd.s:379    .text._ZN6uavcan20StaticTransferBufferILt377EED2Ev:0000000000000000 $t
     /tmp/ccFEREDd.s:384    .text._ZN6uavcan20StaticTransferBufferILt377EED2Ev:0000000000000000 _ZN6uavcan20StaticTransferBufferILt377EED2Ev
     /tmp/ccFEREDd.s:384    .text._ZN6uavcan20StaticTransferBufferILt377EED2Ev:0000000000000000 _ZN6uavcan20StaticTransferBufferILt377EED1Ev
     /tmp/ccFEREDd.s:393    .text._ZN6uavcan20StaticTransferBufferILt123EED0Ev:0000000000000000 $t
     /tmp/ccFEREDd.s:398    .text._ZN6uavcan20StaticTransferBufferILt123EED0Ev:0000000000000000 _ZN6uavcan20StaticTransferBufferILt123EED0Ev
     /tmp/ccFEREDd.s:408    .text._ZN6uavcan20StaticTransferBufferILt73EED0Ev:0000000000000000 $t
     /tmp/ccFEREDd.s:413    .text._ZN6uavcan20StaticTransferBufferILt73EED0Ev:0000000000000000 _ZN6uavcan20StaticTransferBufferILt73EED0Ev
     /tmp/ccFEREDd.s:423    .text._ZN6uavcan20StaticTransferBufferILt1EED0Ev:0000000000000000 $t
     /tmp/ccFEREDd.s:428    .text._ZN6uavcan20StaticTransferBufferILt1EED0Ev:0000000000000000 _ZN6uavcan20StaticTransferBufferILt1EED0Ev
     /tmp/ccFEREDd.s:438    .text._ZN6uavcan20StaticTransferBufferILt93EED0Ev:0000000000000000 $t
     /tmp/ccFEREDd.s:443    .text._ZN6uavcan20StaticTransferBufferILt93EED0Ev:0000000000000000 _ZN6uavcan20StaticTransferBufferILt93EED0Ev
     /tmp/ccFEREDd.s:453    .text._ZN6uavcan20StaticTransferBufferILt377EED0Ev:0000000000000000 $t
     /tmp/ccFEREDd.s:458    .text._ZN6uavcan20StaticTransferBufferILt377EED0Ev:0000000000000000 _ZN6uavcan20StaticTransferBufferILt377EED0Ev
     /tmp/ccFEREDd.s:468    .text._ZN6uavcan20StaticTransferBufferILt7EED0Ev:0000000000000000 $t
     /tmp/ccFEREDd.s:473    .text._ZN6uavcan20StaticTransferBufferILt7EED0Ev:0000000000000000 _ZN6uavcan20StaticTransferBufferILt7EED0Ev
     /tmp/ccFEREDd.s:483    .text._ZN6uavcan20StaticTransferBufferILt371EED0Ev:0000000000000000 $t
     /tmp/ccFEREDd.s:488    .text._ZN6uavcan20StaticTransferBufferILt371EED0Ev:0000000000000000 _ZN6uavcan20StaticTransferBufferILt371EED0Ev
     /tmp/ccFEREDd.s:498    .text._ZN6uavcan20StaticTransferBufferILt129EED0Ev:0000000000000000 $t
     /tmp/ccFEREDd.s:503    .text._ZN6uavcan20StaticTransferBufferILt129EED0Ev:0000000000000000 _ZN6uavcan20StaticTransferBufferILt129EED0Ev
     /tmp/ccFEREDd.s:513    .text._ZN6uavcan13PoolAllocatorILj7168ELh56EcED0Ev:0000000000000000 $t
     /tmp/ccFEREDd.s:518    .text._ZN6uavcan13PoolAllocatorILj7168ELh56EcED0Ev:0000000000000000 _ZN6uavcan13PoolAllocatorILj7168ELh56EcED0Ev
     /tmp/ccFEREDd.s:528    .text._ZN4node12_GLOBAL__N_121RestartRequestHandlerD0Ev:0000000000000000 $t
     /tmp/ccFEREDd.s:532    .text._ZN4node12_GLOBAL__N_121RestartRequestHandlerD0Ev:0000000000000000 _ZN4node12_GLOBAL__N_121RestartRequestHandlerD0Ev
     /tmp/ccFEREDd.s:542    .text._ZN4node12_GLOBAL__N_112ParamManagerD0Ev:0000000000000000 $t
     /tmp/ccFEREDd.s:546    .text._ZN4node12_GLOBAL__N_112ParamManagerD0Ev:0000000000000000 _ZN4node12_GLOBAL__N_112ParamManagerD0Ev
     /tmp/ccFEREDd.s:556    .text._ZN6uavcan17GenericSubscriberINS_8protocol18GetTransportStats_ENS2_8Request_ILi0EEENS_16TransferListenerEE17TransferForwarderD2Ev:0000000000000000 $t
     /tmp/ccFEREDd.s:561    .text._ZN6uavcan17GenericSubscriberINS_8protocol18GetTransportStats_ENS2_8Request_ILi0EEENS_16TransferListenerEE17TransferForwarderD2Ev:0000000000000000 _ZN6uavcan17GenericSubscriberINS_8protocol18GetTransportStats_ENS2_8Request_ILi0EEENS_16TransferListenerEE17TransferForwarderD2Ev
     /tmp/ccFEREDd.s:574    .text._ZN6uavcan17GenericSubscriberINS_8protocol18GetTransportStats_ENS2_8Request_ILi0EEENS_16TransferListenerEE17TransferForwarderD2Ev:0000000000000010 $d
     /tmp/ccFEREDd.s:11122  .rodata._ZTVN6uavcan17GenericSubscriberINS_8protocol18GetTransportStats_ENS2_8Request_ILi0EEENS_16TransferListenerEE17TransferForwarderE:0000000000000000 _ZTVN6uavcan17GenericSubscriberINS_8protocol18GetTransportStats_ENS2_8Request_ILi0EEENS_16TransferListenerEE17TransferForwarderE
     /tmp/ccFEREDd.s:561    .text._ZN6uavcan17GenericSubscriberINS_8protocol18GetTransportStats_ENS2_8Request_ILi0EEENS_16TransferListenerEE17TransferForwarderD2Ev:0000000000000000 _ZN6uavcan17GenericSubscriberINS_8protocol18GetTransportStats_ENS2_8Request_ILi0EEENS_16TransferListenerEE17TransferForwarderD1Ev
     /tmp/ccFEREDd.s:579    .text._ZN6uavcan17GenericSubscriberINS_8protocol18GetTransportStats_ENS2_8Request_ILi0EEENS_16TransferListenerEE17TransferForwarderD0Ev:0000000000000000 $t
     /tmp/ccFEREDd.s:584    .text._ZN6uavcan17GenericSubscriberINS_8protocol18GetTransportStats_ENS2_8Request_ILi0EEENS_16TransferListenerEE17TransferForwarderD0Ev:0000000000000000 _ZN6uavcan17GenericSubscriberINS_8protocol18GetTransportStats_ENS2_8Request_ILi0EEENS_16TransferListenerEE17TransferForwarderD0Ev
     /tmp/ccFEREDd.s:596    .text._ZN6uavcan17GenericSubscriberINS_8protocol12RestartNode_ENS2_8Request_ILi0EEENS_16TransferListenerEE17TransferForwarderD2Ev:0000000000000000 $t
     /tmp/ccFEREDd.s:601    .text._ZN6uavcan17GenericSubscriberINS_8protocol12RestartNode_ENS2_8Request_ILi0EEENS_16TransferListenerEE17TransferForwarderD2Ev:0000000000000000 _ZN6uavcan17GenericSubscriberINS_8protocol12RestartNode_ENS2_8Request_ILi0EEENS_16TransferListenerEE17TransferForwarderD2Ev
     /tmp/ccFEREDd.s:614    .text._ZN6uavcan17GenericSubscriberINS_8protocol12RestartNode_ENS2_8Request_ILi0EEENS_16TransferListenerEE17TransferForwarderD2Ev:0000000000000010 $d
     /tmp/ccFEREDd.s:11088  .rodata._ZTVN6uavcan17GenericSubscriberINS_8protocol12RestartNode_ENS2_8Request_ILi0EEENS_16TransferListenerEE17TransferForwarderE:0000000000000000 _ZTVN6uavcan17GenericSubscriberINS_8protocol12RestartNode_ENS2_8Request_ILi0EEENS_16TransferListenerEE17TransferForwarderE
     /tmp/ccFEREDd.s:601    .text._ZN6uavcan17GenericSubscriberINS_8protocol12RestartNode_ENS2_8Request_ILi0EEENS_16TransferListenerEE17TransferForwarderD2Ev:0000000000000000 _ZN6uavcan17GenericSubscriberINS_8protocol12RestartNode_ENS2_8Request_ILi0EEENS_16TransferListenerEE17TransferForwarderD1Ev
     /tmp/ccFEREDd.s:619    .text._ZN6uavcan17GenericSubscriberINS_8protocol12RestartNode_ENS2_8Request_ILi0EEENS_16TransferListenerEE17TransferForwarderD0Ev:0000000000000000 $t
     /tmp/ccFEREDd.s:624    .text._ZN6uavcan17GenericSubscriberINS_8protocol12RestartNode_ENS2_8Request_ILi0EEENS_16TransferListenerEE17TransferForwarderD0Ev:0000000000000000 _ZN6uavcan17GenericSubscriberINS_8protocol12RestartNode_ENS2_8Request_ILi0EEENS_16TransferListenerEE17TransferForwarderD0Ev
     /tmp/ccFEREDd.s:636    .text._ZN6uavcan17GenericSubscriberINS_8protocol16GetDataTypeInfo_ENS2_8Request_ILi0EEENS_16TransferListenerEE17TransferForwarderD2Ev:0000000000000000 $t
     /tmp/ccFEREDd.s:641    .text._ZN6uavcan17GenericSubscriberINS_8protocol16GetDataTypeInfo_ENS2_8Request_ILi0EEENS_16TransferListenerEE17TransferForwarderD2Ev:0000000000000000 _ZN6uavcan17GenericSubscriberINS_8protocol16GetDataTypeInfo_ENS2_8Request_ILi0EEENS_16TransferListenerEE17TransferForwarderD2Ev
     /tmp/ccFEREDd.s:654    .text._ZN6uavcan17GenericSubscriberINS_8protocol16GetDataTypeInfo_ENS2_8Request_ILi0EEENS_16TransferListenerEE17TransferForwarderD2Ev:0000000000000010 $d
     /tmp/ccFEREDd.s:11054  .rodata._ZTVN6uavcan17GenericSubscriberINS_8protocol16GetDataTypeInfo_ENS2_8Request_ILi0EEENS_16TransferListenerEE17TransferForwarderE:0000000000000000 _ZTVN6uavcan17GenericSubscriberINS_8protocol16GetDataTypeInfo_ENS2_8Request_ILi0EEENS_16TransferListenerEE17TransferForwarderE
     /tmp/ccFEREDd.s:641    .text._ZN6uavcan17GenericSubscriberINS_8protocol16GetDataTypeInfo_ENS2_8Request_ILi0EEENS_16TransferListenerEE17TransferForwarderD2Ev:0000000000000000 _ZN6uavcan17GenericSubscriberINS_8protocol16GetDataTypeInfo_ENS2_8Request_ILi0EEENS_16TransferListenerEE17TransferForwarderD1Ev
     /tmp/ccFEREDd.s:659    .text._ZN6uavcan17GenericSubscriberINS_8protocol16GetDataTypeInfo_ENS2_8Request_ILi0EEENS_16TransferListenerEE17TransferForwarderD0Ev:0000000000000000 $t
     /tmp/ccFEREDd.s:664    .text._ZN6uavcan17GenericSubscriberINS_8protocol16GetDataTypeInfo_ENS2_8Request_ILi0EEENS_16TransferListenerEE17TransferForwarderD0Ev:0000000000000000 _ZN6uavcan17GenericSubscriberINS_8protocol16GetDataTypeInfo_ENS2_8Request_ILi0EEENS_16TransferListenerEE17TransferForwarderD0Ev
     /tmp/ccFEREDd.s:676    .text._ZN6uavcan17GenericSubscriberINS_8protocol15GlobalTimeSync_ILi0EEES3_NS_16TransferListenerEE17TransferForwarderD2Ev:0000000000000000 $t
     /tmp/ccFEREDd.s:681    .text._ZN6uavcan17GenericSubscriberINS_8protocol15GlobalTimeSync_ILi0EEES3_NS_16TransferListenerEE17TransferForwarderD2Ev:0000000000000000 _ZN6uavcan17GenericSubscriberINS_8protocol15GlobalTimeSync_ILi0EEES3_NS_16TransferListenerEE17TransferForwarderD2Ev
     /tmp/ccFEREDd.s:694    .text._ZN6uavcan17GenericSubscriberINS_8protocol15GlobalTimeSync_ILi0EEES3_NS_16TransferListenerEE17TransferForwarderD2Ev:0000000000000010 $d
     /tmp/ccFEREDd.s:11167  .rodata._ZTVN6uavcan17GenericSubscriberINS_8protocol15GlobalTimeSync_ILi0EEES3_NS_16TransferListenerEE17TransferForwarderE:0000000000000000 _ZTVN6uavcan17GenericSubscriberINS_8protocol15GlobalTimeSync_ILi0EEES3_NS_16TransferListenerEE17TransferForwarderE
     /tmp/ccFEREDd.s:681    .text._ZN6uavcan17GenericSubscriberINS_8protocol15GlobalTimeSync_ILi0EEES3_NS_16TransferListenerEE17TransferForwarderD2Ev:0000000000000000 _ZN6uavcan17GenericSubscriberINS_8protocol15GlobalTimeSync_ILi0EEES3_NS_16TransferListenerEE17TransferForwarderD1Ev
     /tmp/ccFEREDd.s:699    .text._ZN6uavcan17GenericSubscriberINS_8protocol15GlobalTimeSync_ILi0EEES3_NS_16TransferListenerEE17TransferForwarderD0Ev:0000000000000000 $t
     /tmp/ccFEREDd.s:704    .text._ZN6uavcan17GenericSubscriberINS_8protocol15GlobalTimeSync_ILi0EEES3_NS_16TransferListenerEE17TransferForwarderD0Ev:0000000000000000 _ZN6uavcan17GenericSubscriberINS_8protocol15GlobalTimeSync_ILi0EEES3_NS_16TransferListenerEE17TransferForwarderD0Ev
     /tmp/ccFEREDd.s:716    .text._ZN6uavcan17GenericSubscriberINS_8protocol5param14ExecuteOpcode_ENS3_8Request_ILi0EEENS_16TransferListenerEE17TransferForwarderD2Ev:0000000000000000 $t
ARM GAS  /tmp/ccFEREDd.s 			page 215


     /tmp/ccFEREDd.s:721    .text._ZN6uavcan17GenericSubscriberINS_8protocol5param14ExecuteOpcode_ENS3_8Request_ILi0EEENS_16TransferListenerEE17TransferForwarderD2Ev:0000000000000000 _ZN6uavcan17GenericSubscriberINS_8protocol5param14ExecuteOpcode_ENS3_8Request_ILi0EEENS_16TransferListenerEE17TransferForwarderD2Ev
     /tmp/ccFEREDd.s:734    .text._ZN6uavcan17GenericSubscriberINS_8protocol5param14ExecuteOpcode_ENS3_8Request_ILi0EEENS_16TransferListenerEE17TransferForwarderD2Ev:0000000000000010 $d
     /tmp/ccFEREDd.s:11235  .rodata._ZTVN6uavcan17GenericSubscriberINS_8protocol5param14ExecuteOpcode_ENS3_8Request_ILi0EEENS_16TransferListenerEE17TransferForwarderE:0000000000000000 _ZTVN6uavcan17GenericSubscriberINS_8protocol5param14ExecuteOpcode_ENS3_8Request_ILi0EEENS_16TransferListenerEE17TransferForwarderE
     /tmp/ccFEREDd.s:721    .text._ZN6uavcan17GenericSubscriberINS_8protocol5param14ExecuteOpcode_ENS3_8Request_ILi0EEENS_16TransferListenerEE17TransferForwarderD2Ev:0000000000000000 _ZN6uavcan17GenericSubscriberINS_8protocol5param14ExecuteOpcode_ENS3_8Request_ILi0EEENS_16TransferListenerEE17TransferForwarderD1Ev
     /tmp/ccFEREDd.s:739    .text._ZN6uavcan17GenericSubscriberINS_8protocol5param14ExecuteOpcode_ENS3_8Request_ILi0EEENS_16TransferListenerEE17TransferForwarderD0Ev:0000000000000000 $t
     /tmp/ccFEREDd.s:744    .text._ZN6uavcan17GenericSubscriberINS_8protocol5param14ExecuteOpcode_ENS3_8Request_ILi0EEENS_16TransferListenerEE17TransferForwarderD0Ev:0000000000000000 _ZN6uavcan17GenericSubscriberINS_8protocol5param14ExecuteOpcode_ENS3_8Request_ILi0EEENS_16TransferListenerEE17TransferForwarderD0Ev
     /tmp/ccFEREDd.s:756    .text._ZN6uavcan17GenericSubscriberINS_8protocol5param7GetSet_ENS3_8Request_ILi0EEENS_16TransferListenerEE17TransferForwarderD2Ev:0000000000000000 $t
     /tmp/ccFEREDd.s:761    .text._ZN6uavcan17GenericSubscriberINS_8protocol5param7GetSet_ENS3_8Request_ILi0EEENS_16TransferListenerEE17TransferForwarderD2Ev:0000000000000000 _ZN6uavcan17GenericSubscriberINS_8protocol5param7GetSet_ENS3_8Request_ILi0EEENS_16TransferListenerEE17TransferForwarderD2Ev
     /tmp/ccFEREDd.s:774    .text._ZN6uavcan17GenericSubscriberINS_8protocol5param7GetSet_ENS3_8Request_ILi0EEENS_16TransferListenerEE17TransferForwarderD2Ev:0000000000000010 $d
     /tmp/ccFEREDd.s:11201  .rodata._ZTVN6uavcan17GenericSubscriberINS_8protocol5param7GetSet_ENS3_8Request_ILi0EEENS_16TransferListenerEE17TransferForwarderE:0000000000000000 _ZTVN6uavcan17GenericSubscriberINS_8protocol5param7GetSet_ENS3_8Request_ILi0EEENS_16TransferListenerEE17TransferForwarderE
     /tmp/ccFEREDd.s:761    .text._ZN6uavcan17GenericSubscriberINS_8protocol5param7GetSet_ENS3_8Request_ILi0EEENS_16TransferListenerEE17TransferForwarderD2Ev:0000000000000000 _ZN6uavcan17GenericSubscriberINS_8protocol5param7GetSet_ENS3_8Request_ILi0EEENS_16TransferListenerEE17TransferForwarderD1Ev
     /tmp/ccFEREDd.s:779    .text._ZN6uavcan17GenericSubscriberINS_8protocol5param7GetSet_ENS3_8Request_ILi0EEENS_16TransferListenerEE17TransferForwarderD0Ev:0000000000000000 $t
     /tmp/ccFEREDd.s:784    .text._ZN6uavcan17GenericSubscriberINS_8protocol5param7GetSet_ENS3_8Request_ILi0EEENS_16TransferListenerEE17TransferForwarderD0Ev:0000000000000000 _ZN6uavcan17GenericSubscriberINS_8protocol5param7GetSet_ENS3_8Request_ILi0EEENS_16TransferListenerEE17TransferForwarderD0Ev
     /tmp/ccFEREDd.s:796    .text._ZN6uavcan17GenericSubscriberINS_8protocol4file20BeginFirmwareUpdate_ENS3_8Request_ILi0EEENS_16TransferListenerEE17TransferForwarderD2Ev:0000000000000000 $t
     /tmp/ccFEREDd.s:801    .text._ZN6uavcan17GenericSubscriberINS_8protocol4file20BeginFirmwareUpdate_ENS3_8Request_ILi0EEENS_16TransferListenerEE17TransferForwarderD2Ev:0000000000000000 _ZN6uavcan17GenericSubscriberINS_8protocol4file20BeginFirmwareUpdate_ENS3_8Request_ILi0EEENS_16TransferListenerEE17TransferForwarderD2Ev
     /tmp/ccFEREDd.s:814    .text._ZN6uavcan17GenericSubscriberINS_8protocol4file20BeginFirmwareUpdate_ENS3_8Request_ILi0EEENS_16TransferListenerEE17TransferForwarderD2Ev:0000000000000010 $d
     /tmp/ccFEREDd.s:11318  .rodata._ZTVN6uavcan17GenericSubscriberINS_8protocol4file20BeginFirmwareUpdate_ENS3_8Request_ILi0EEENS_16TransferListenerEE17TransferForwarderE:0000000000000000 _ZTVN6uavcan17GenericSubscriberINS_8protocol4file20BeginFirmwareUpdate_ENS3_8Request_ILi0EEENS_16TransferListenerEE17TransferForwarderE
     /tmp/ccFEREDd.s:801    .text._ZN6uavcan17GenericSubscriberINS_8protocol4file20BeginFirmwareUpdate_ENS3_8Request_ILi0EEENS_16TransferListenerEE17TransferForwarderD2Ev:0000000000000000 _ZN6uavcan17GenericSubscriberINS_8protocol4file20BeginFirmwareUpdate_ENS3_8Request_ILi0EEENS_16TransferListenerEE17TransferForwarderD1Ev
     /tmp/ccFEREDd.s:819    .text._ZN6uavcan17GenericSubscriberINS_8protocol4file20BeginFirmwareUpdate_ENS3_8Request_ILi0EEENS_16TransferListenerEE17TransferForwarderD0Ev:0000000000000000 $t
     /tmp/ccFEREDd.s:824    .text._ZN6uavcan17GenericSubscriberINS_8protocol4file20BeginFirmwareUpdate_ENS3_8Request_ILi0EEENS_16TransferListenerEE17TransferForwarderD0Ev:0000000000000000 _ZN6uavcan17GenericSubscriberINS_8protocol4file20BeginFirmwareUpdate_ENS3_8Request_ILi0EEENS_16TransferListenerEE17TransferForwarderD0Ev
     /tmp/ccFEREDd.s:836    .text._ZN10chibios_rt16BaseStaticThreadILi3000EE5startEm:0000000000000000 $t
     /tmp/ccFEREDd.s:841    .text._ZN10chibios_rt16BaseStaticThreadILi3000EE5startEm:0000000000000000 _ZN10chibios_rt16BaseStaticThreadILi3000EE5startEm
     /tmp/ccFEREDd.s:863    .text._ZN10chibios_rt16BaseStaticThreadILi3000EE5startEm:0000000000000024 $d
     /tmp/ccFEREDd.s:867    .text._ZN4node12_GLOBAL__N_121RestartRequestHandler20handleRestartRequestEN6uavcan6NodeIDE:0000000000000000 $t
     /tmp/ccFEREDd.s:871    .text._ZN4node12_GLOBAL__N_121RestartRequestHandler20handleRestartRequestEN6uavcan6NodeIDE:0000000000000000 _ZN4node12_GLOBAL__N_121RestartRequestHandler20handleRestartRequestEN6uavcan6NodeIDE
     /tmp/ccFEREDd.s:885    .text._ZN4node12_GLOBAL__N_121RestartRequestHandler20handleRestartRequestEN6uavcan6NodeIDE:0000000000000014 $d
     /tmp/ccFEREDd.s:889    .text._ZN6uavcan19TimerEventForwarderISt8functionIFvRKNS_10TimerEventEEEE16handleTimerEventES4_:0000000000000000 $t
     /tmp/ccFEREDd.s:894    .text._ZN6uavcan19TimerEventForwarderISt8functionIFvRKNS_10TimerEventEEEE16handleTimerEventES4_:0000000000000000 _ZN6uavcan19TimerEventForwarderISt8functionIFvRKNS_10TimerEventEEEE16handleTimerEventES4_
     /tmp/ccFEREDd.s:908    .text._ZN4node12_GLOBAL__N_112ParamManager14eraseAllParamsEv:0000000000000000 $t
     /tmp/ccFEREDd.s:912    .text._ZN4node12_GLOBAL__N_112ParamManager14eraseAllParamsEv:0000000000000000 _ZN4node12_GLOBAL__N_112ParamManager14eraseAllParamsEv
     /tmp/ccFEREDd.s:919    .text._ZN4node12_GLOBAL__N_112ParamManager13saveAllParamsEv:0000000000000000 $t
     /tmp/ccFEREDd.s:923    .text._ZN4node12_GLOBAL__N_112ParamManager13saveAllParamsEv:0000000000000000 _ZN4node12_GLOBAL__N_112ParamManager13saveAllParamsEv
     /tmp/ccFEREDd.s:931    .text._ZN4node12_GLOBAL__N_112ParamManager16assignParamValueERKN6uavcan5ArrayINS2_11IntegerSpecILj8ELNS2_10SignednessE0ELNS2_8CastModeE0EEELNS2_9ArrayModeE1ELj92EEERKNS2_8protocol5param6Value_ILi0EEE:0000000000000000 $t
     /tmp/ccFEREDd.s:935    .text._ZN4node12_GLOBAL__N_112ParamManager16assignParamValueERKN6uavcan5ArrayINS2_11IntegerSpecILj8ELNS2_10SignednessE0ELNS2_8CastModeE0EEELNS2_9ArrayModeE1ELj92EEERKNS2_8protocol5param6Value_ILi0EEE:0000000000000000 _ZN4node12_GLOBAL__N_112ParamManager16assignParamValueERKN6uavcan5ArrayINS2_11IntegerSpecILj8ELNS2_10SignednessE0ELNS2_8CastModeE0EEELNS2_9ArrayModeE1ELj92EEERKNS2_8protocol5param6Value_ILi0EEE
     /tmp/ccFEREDd.s:973    .text._ZN6uavcan11ParamServer19handleExecuteOpcodeERKNS_8protocol5param14ExecuteOpcode_8Request_ILi0EEERNS3_9Response_ILi0EEE:0000000000000000 $t
     /tmp/ccFEREDd.s:978    .text._ZN6uavcan11ParamServer19handleExecuteOpcodeERKNS_8protocol5param14ExecuteOpcode_8Request_ILi0EEERNS3_9Response_ILi0EEE:0000000000000000 _ZN6uavcan11ParamServer19handleExecuteOpcodeERKNS_8protocol5param14ExecuteOpcode_8Request_ILi0EEERNS3_9Response_ILi0EEE
     /tmp/ccFEREDd.s:1007   .text._ZN6uavcan19TransferPerfCounter8addErrorEv.isra.6:0000000000000000 $t
     /tmp/ccFEREDd.s:1011   .text._ZN6uavcan19TransferPerfCounter8addErrorEv.isra.6:0000000000000000 _ZN6uavcan19TransferPerfCounter8addErrorEv.isra.6
     /tmp/ccFEREDd.s:1023   .text._ZNK4node12_GLOBAL__N_112ParamManager7convertEf14ConfigDataTypeRN6uavcan8protocol5param13NumericValue_ILi0EEE.isra.33:0000000000000000 $t
     /tmp/ccFEREDd.s:1027   .text._ZNK4node12_GLOBAL__N_112ParamManager7convertEf14ConfigDataTypeRN6uavcan8protocol5param13NumericValue_ILi0EEE.isra.33:0000000000000000 _ZNK4node12_GLOBAL__N_112ParamManager7convertEf14ConfigDataTypeRN6uavcan8protocol5param13NumericValue_ILi0EEE.isra.33
     /tmp/ccFEREDd.s:1054   .text._ZNK13zubax_chibios6config9_internal5ParamIjE3getEv.isra.54:0000000000000000 $t
     /tmp/ccFEREDd.s:1058   .text._ZNK13zubax_chibios6config9_internal5ParamIjE3getEv.isra.54:0000000000000000 _ZNK13zubax_chibios6config9_internal5ParamIjE3getEv.isra.54
     /tmp/ccFEREDd.s:1067   .text._ZNK6uavcan20RestartRequestServer17handleRestartNodeERKNS_21ReceivedDataStructureINS_8protocol12RestartNode_8Request_ILi0EEEEERNS3_9Response_ILi0EEE:0000000000000000 $t
     /tmp/ccFEREDd.s:1072   .text._ZNK6uavcan20RestartRequestServer17handleRestartNodeERKNS_21ReceivedDataStructureINS_8protocol12RestartNode_8Request_ILi0EEEEERNS3_9Response_ILi0EEE:0000000000000000 _ZNK6uavcan20RestartRequestServer17handleRestartNodeERKNS_21ReceivedDataStructureINS_8protocol12RestartNode_8Request_ILi0EEEEERNS3_9Response_ILi0EEE
     /tmp/ccFEREDd.s:1104   .text._ZNK6uavcan20RestartRequestServer17handleRestartNodeERKNS_21ReceivedDataStructureINS_8protocol12RestartNode_8Request_ILi0EEEEERNS3_9Response_ILi0EEE:0000000000000038 $d
     /tmp/ccFEREDd.s:1108   .text._ZN6uavcan11ParamServer12handleGetSetERKNS_8protocol5param7GetSet_8Request_ILi0EEERNS3_9Response_ILi0EEE:0000000000000000 $t
     /tmp/ccFEREDd.s:1113   .text._ZN6uavcan11ParamServer12handleGetSetERKNS_8protocol5param7GetSet_8Request_ILi0EEERNS3_9Response_ILi0EEE:0000000000000000 _ZN6uavcan11ParamServer12handleGetSetERKNS_8protocol5param7GetSet_8Request_ILi0EEERNS3_9Response_ILi0EEE
     /tmp/ccFEREDd.s:1173   .text._ZN6uavcan11IntegerSpecILj7ELNS_10SignednessE0ELNS_8CastModeE0EE6encodeEhRNS_11ScalarCodecENS_25TailArrayOptimizationModeE.isra.203:0000000000000000 $t
     /tmp/ccFEREDd.s:1177   .text._ZN6uavcan11IntegerSpecILj7ELNS_10SignednessE0ELNS_8CastModeE0EE6encodeEhRNS_11ScalarCodecENS_25TailArrayOptimizationModeE.isra.203:0000000000000000 _ZN6uavcan11IntegerSpecILj7ELNS_10SignednessE0ELNS_8CastModeE0EE6encodeEhRNS_11ScalarCodecENS_25TailArrayOptimizationModeE.isra.203
     /tmp/ccFEREDd.s:1196   .text._ZN6uavcan11IntegerSpecILj8ELNS_10SignednessE0ELNS_8CastModeE0EE6encodeEhRNS_11ScalarCodecENS_25TailArrayOptimizationModeE.isra.204:0000000000000000 $t
     /tmp/ccFEREDd.s:1200   .text._ZN6uavcan11IntegerSpecILj8ELNS_10SignednessE0ELNS_8CastModeE0EE6encodeEhRNS_11ScalarCodecENS_25TailArrayOptimizationModeE.isra.204:0000000000000000 _ZN6uavcan11IntegerSpecILj8ELNS_10SignednessE0ELNS_8CastModeE0EE6encodeEhRNS_11ScalarCodecENS_25TailArrayOptimizationModeE.isra.204
     /tmp/ccFEREDd.s:1215   .text._ZN6uavcan11IntegerSpecILj48ELNS_10SignednessE0ELNS_8CastModeE0EE6encodeEyRNS_11ScalarCodecENS_25TailArrayOptimizationModeE.isra.323:0000000000000000 $t
     /tmp/ccFEREDd.s:1219   .text._ZN6uavcan11IntegerSpecILj48ELNS_10SignednessE0ELNS_8CastModeE0EE6encodeEyRNS_11ScalarCodecENS_25TailArrayOptimizationModeE.isra.323:0000000000000000 _ZN6uavcan11IntegerSpecILj48ELNS_10SignednessE0ELNS_8CastModeE0EE6encodeEyRNS_11ScalarCodecENS_25TailArrayOptimizationModeE.isra.323
     /tmp/ccFEREDd.s:1247   .text._ZNK4node12_GLOBAL__N_112ParamManager7convertEf14ConfigDataTypeRN6uavcan8protocol5param6Value_ILi0EEE.isra.59:0000000000000000 $t
     /tmp/ccFEREDd.s:1251   .text._ZNK4node12_GLOBAL__N_112ParamManager7convertEf14ConfigDataTypeRN6uavcan8protocol5param6Value_ILi0EEE.isra.59:0000000000000000 _ZNK4node12_GLOBAL__N_112ParamManager7convertEf14ConfigDataTypeRN6uavcan8protocol5param6Value_ILi0EEE.isra.59
     /tmp/ccFEREDd.s:1335   .text._ZNK4node12_GLOBAL__N_112ParamManager7convertEf14ConfigDataTypeRN6uavcan8protocol5param6Value_ILi0EEE.isra.59:00000000000000b4 $d
     /tmp/ccFEREDd.s:1339   .text._ZNK4node12_GLOBAL__N_112ParamManager14readParamValueERKN6uavcan5ArrayINS2_11IntegerSpecILj8ELNS2_10SignednessE0ELNS2_8CastModeE0EEELNS2_9ArrayModeE1ELj92EEERNS2_8protocol5param6Value_ILi0EEE:0000000000000000 $t
ARM GAS  /tmp/ccFEREDd.s 			page 216


     /tmp/ccFEREDd.s:1343   .text._ZNK4node12_GLOBAL__N_112ParamManager14readParamValueERKN6uavcan5ArrayINS2_11IntegerSpecILj8ELNS2_10SignednessE0ELNS2_8CastModeE0EEELNS2_9ArrayModeE1ELj92EEERNS2_8protocol5param6Value_ILi0EEE:0000000000000000 _ZNK4node12_GLOBAL__N_112ParamManager14readParamValueERKN6uavcan5ArrayINS2_11IntegerSpecILj8ELNS2_10SignednessE0ELNS2_8CastModeE0EEELNS2_9ArrayModeE1ELj92EEERNS2_8protocol5param6Value_ILi0EEE
     /tmp/ccFEREDd.s:1374   .text._ZNK4node12_GLOBAL__N_112ParamManager22readParamDefaultMaxMinERKN6uavcan5ArrayINS2_11IntegerSpecILj8ELNS2_10SignednessE0ELNS2_8CastModeE0EEELNS2_9ArrayModeE1ELj92EEERNS2_8protocol5param6Value_ILi0EEERNSD_13NumericValue_ILi0EEESJ_:0000000000000000 $t
     /tmp/ccFEREDd.s:1378   .text._ZNK4node12_GLOBAL__N_112ParamManager22readParamDefaultMaxMinERKN6uavcan5ArrayINS2_11IntegerSpecILj8ELNS2_10SignednessE0ELNS2_8CastModeE0EEELNS2_9ArrayModeE1ELj92EEERNS2_8protocol5param6Value_ILi0EEERNSD_13NumericValue_ILi0EEESJ_:0000000000000000 _ZNK4node12_GLOBAL__N_112ParamManager22readParamDefaultMaxMinERKN6uavcan5ArrayINS2_11IntegerSpecILj8ELNS2_10SignednessE0ELNS2_8CastModeE0EEELNS2_9ArrayModeE1ELj92EEERNS2_8protocol5param6Value_ILi0EEERNSD_13NumericValue_ILi0EEESJ_
     /tmp/ccFEREDd.s:1412   .text._ZNK6uavcan5ArrayINS_11IntegerSpecILj8ELNS_10SignednessE0ELNS_8CastModeE0EEELNS_9ArrayModeE1ELj80EE10encodeImplERNS_11ScalarCodecENS_25TailArrayOptimizationModeENS_11BooleanTypeILb1EEE.isra.329:0000000000000000 $t
     /tmp/ccFEREDd.s:1416   .text._ZNK6uavcan5ArrayINS_11IntegerSpecILj8ELNS_10SignednessE0ELNS_8CastModeE0EEELNS_9ArrayModeE1ELj80EE10encodeImplERNS_11ScalarCodecENS_25TailArrayOptimizationModeENS_11BooleanTypeILb1EEE.isra.329:0000000000000000 _ZNK6uavcan5ArrayINS_11IntegerSpecILj8ELNS_10SignednessE0ELNS_8CastModeE0EEELNS_9ArrayModeE1ELj80EE10encodeImplERNS_11ScalarCodecENS_25TailArrayOptimizationModeENS_11BooleanTypeILb1EEE.isra.329
     /tmp/ccFEREDd.s:1454   .text._ZN6uavcan8snprintfEPcjPKcz:0000000000000000 $t
     /tmp/ccFEREDd.s:1459   .text._ZN6uavcan8snprintfEPcjPKcz:0000000000000000 _ZN6uavcan8snprintfEPcjPKcz
     /tmp/ccFEREDd.s:1475   .text._ZN6uavcan22GlobalDataTypeRegistry5EntryC2Ev:0000000000000000 $t
     /tmp/ccFEREDd.s:1480   .text._ZN6uavcan22GlobalDataTypeRegistry5EntryC2Ev:0000000000000000 _ZN6uavcan22GlobalDataTypeRegistry5EntryC2Ev
     /tmp/ccFEREDd.s:1498   .text._ZN6uavcan22GlobalDataTypeRegistry5EntryC2Ev:000000000000001c $d
     /tmp/ccFEREDd.s:1480   .text._ZN6uavcan22GlobalDataTypeRegistry5EntryC2Ev:0000000000000000 _ZN6uavcan22GlobalDataTypeRegistry5EntryC1Ev
     /tmp/ccFEREDd.s:1503   .text._ZN6uavcan16TransferListenerC2ERNS_19TransferPerfCounterERKNS_18DataTypeDescriptorEtRNS_14IPoolAllocatorE:0000000000000000 $t
     /tmp/ccFEREDd.s:1508   .text._ZN6uavcan16TransferListenerC2ERNS_19TransferPerfCounterERKNS_18DataTypeDescriptorEtRNS_14IPoolAllocatorE:0000000000000000 _ZN6uavcan16TransferListenerC2ERNS_19TransferPerfCounterERKNS_18DataTypeDescriptorEtRNS_14IPoolAllocatorE
     /tmp/ccFEREDd.s:1534   .text._ZN6uavcan16TransferListenerC2ERNS_19TransferPerfCounterERKNS_18DataTypeDescriptorEtRNS_14IPoolAllocatorE:000000000000002c $d
     /tmp/ccFEREDd.s:1508   .text._ZN6uavcan16TransferListenerC2ERNS_19TransferPerfCounterERKNS_18DataTypeDescriptorEtRNS_14IPoolAllocatorE:0000000000000000 _ZN6uavcan16TransferListenerC1ERNS_19TransferPerfCounterERKNS_18DataTypeDescriptorEtRNS_14IPoolAllocatorE
     /tmp/ccFEREDd.s:1539   .text._ZN6uavcan5INode13getDispatcherEv:0000000000000000 $t
     /tmp/ccFEREDd.s:1544   .text._ZN6uavcan5INode13getDispatcherEv:0000000000000000 _ZN6uavcan5INode13getDispatcherEv
     /tmp/ccFEREDd.s:1555   .text._ZNK6uavcan22TransportStatsProvider23handleGetTransportStatsERKNS_8protocol18GetTransportStats_8Request_ILi0EEERNS2_9Response_ILi0EEE:0000000000000000 $t
     /tmp/ccFEREDd.s:1560   .text._ZNK6uavcan22TransportStatsProvider23handleGetTransportStatsERKNS_8protocol18GetTransportStats_8Request_ILi0EEERNS2_9Response_ILi0EEE:0000000000000000 _ZNK6uavcan22TransportStatsProvider23handleGetTransportStatsERKNS_8protocol18GetTransportStats_8Request_ILi0EEERNS2_9Response_ILi0EEE
     /tmp/ccFEREDd.s:1619   .text._ZN6uavcan13ServiceServerINS_8protocol16GetDataTypeInfo_ENS_12MethodBinderIPNS_20DataTypeInfoProviderEMS4_FvRKNS2_8Request_ILi0EEERNS2_9Response_ILi0EEEEEEE24handleReceivedDataStructERNS_21ReceivedDataStructureIS7_EE.part.332:0000000000000000 $t
     /tmp/ccFEREDd.s:1623   .text._ZN6uavcan13ServiceServerINS_8protocol16GetDataTypeInfo_ENS_12MethodBinderIPNS_20DataTypeInfoProviderEMS4_FvRKNS2_8Request_ILi0EEERNS2_9Response_ILi0EEEEEEE24handleReceivedDataStructERNS_21ReceivedDataStructureIS7_EE.part.332:0000000000000000 _ZN6uavcan13ServiceServerINS_8protocol16GetDataTypeInfo_ENS_12MethodBinderIPNS_20DataTypeInfoProviderEMS4_FvRKNS2_8Request_ILi0EEERNS2_9Response_ILi0EEEEEEE24handleReceivedDataStructERNS_21ReceivedDataStructureIS7_EE.part.332
     /tmp/ccFEREDd.s:1638   .text._ZN6uavcan17GenericSubscriberINS_8protocol16GetDataTypeInfo_ENS2_8Request_ILi0EEENS_16TransferListenerEE22handleIncomingTransferERNS_16IncomingTransferE.part.335:0000000000000000 $t
     /tmp/ccFEREDd.s:1642   .text._ZN6uavcan17GenericSubscriberINS_8protocol16GetDataTypeInfo_ENS2_8Request_ILi0EEENS_16TransferListenerEE22handleIncomingTransferERNS_16IncomingTransferE.part.335:0000000000000000 _ZN6uavcan17GenericSubscriberINS_8protocol16GetDataTypeInfo_ENS2_8Request_ILi0EEENS_16TransferListenerEE22handleIncomingTransferERNS_16IncomingTransferE.part.335
     /tmp/ccFEREDd.s:1656   .text._ZN6uavcan13ServiceServerINS_8protocol4file20BeginFirmwareUpdate_EPFvRKNS_21ReceivedDataStructureINS3_8Request_ILi0EEEEERNS3_9Response_ILi0EEEEE24handleReceivedDataStructERS7_.part.339:0000000000000000 $t
     /tmp/ccFEREDd.s:1660   .text._ZN6uavcan13ServiceServerINS_8protocol4file20BeginFirmwareUpdate_EPFvRKNS_21ReceivedDataStructureINS3_8Request_ILi0EEEEERNS3_9Response_ILi0EEEEE24handleReceivedDataStructERS7_.part.339:0000000000000000 _ZN6uavcan13ServiceServerINS_8protocol4file20BeginFirmwareUpdate_EPFvRKNS_21ReceivedDataStructureINS3_8Request_ILi0EEEEERNS3_9Response_ILi0EEEEE24handleReceivedDataStructERS7_.part.339
     /tmp/ccFEREDd.s:1675   .text._ZN6uavcan17GenericSubscriberINS_8protocol4file20BeginFirmwareUpdate_ENS3_8Request_ILi0EEENS_16TransferListenerEE22handleIncomingTransferERNS_16IncomingTransferE.part.341:0000000000000000 $t
     /tmp/ccFEREDd.s:1679   .text._ZN6uavcan17GenericSubscriberINS_8protocol4file20BeginFirmwareUpdate_ENS3_8Request_ILi0EEENS_16TransferListenerEE22handleIncomingTransferERNS_16IncomingTransferE.part.341:0000000000000000 _ZN6uavcan17GenericSubscriberINS_8protocol4file20BeginFirmwareUpdate_ENS3_8Request_ILi0EEENS_16TransferListenerEE22handleIncomingTransferERNS_16IncomingTransferE.part.341
     /tmp/ccFEREDd.s:1693   .text._ZN6uavcan13ServiceServerINS_8protocol5param7GetSet_ENS_12MethodBinderIPNS_11ParamServerEMS5_FvRKNS3_8Request_ILi0EEERNS3_9Response_ILi0EEEEEEE24handleReceivedDataStructERNS_21ReceivedDataStructureIS8_EE.part.352:0000000000000000 $t
     /tmp/ccFEREDd.s:1697   .text._ZN6uavcan13ServiceServerINS_8protocol5param7GetSet_ENS_12MethodBinderIPNS_11ParamServerEMS5_FvRKNS3_8Request_ILi0EEERNS3_9Response_ILi0EEEEEEE24handleReceivedDataStructERNS_21ReceivedDataStructureIS8_EE.part.352:0000000000000000 _ZN6uavcan13ServiceServerINS_8protocol5param7GetSet_ENS_12MethodBinderIPNS_11ParamServerEMS5_FvRKNS3_8Request_ILi0EEERNS3_9Response_ILi0EEEEEEE24handleReceivedDataStructERNS_21ReceivedDataStructureIS8_EE.part.352
     /tmp/ccFEREDd.s:1712   .text._ZN6uavcan17GenericSubscriberINS_8protocol5param7GetSet_ENS3_8Request_ILi0EEENS_16TransferListenerEE22handleIncomingTransferERNS_16IncomingTransferE.part.355:0000000000000000 $t
     /tmp/ccFEREDd.s:1716   .text._ZN6uavcan17GenericSubscriberINS_8protocol5param7GetSet_ENS3_8Request_ILi0EEENS_16TransferListenerEE22handleIncomingTransferERNS_16IncomingTransferE.part.355:0000000000000000 _ZN6uavcan17GenericSubscriberINS_8protocol5param7GetSet_ENS3_8Request_ILi0EEENS_16TransferListenerEE22handleIncomingTransferERNS_16IncomingTransferE.part.355
     /tmp/ccFEREDd.s:1730   .text._ZN6uavcan13ServiceServerINS_8protocol18GetTransportStats_ENS_12MethodBinderIPKNS_22TransportStatsProviderEMS4_KFvRKNS2_8Request_ILi0EEERNS2_9Response_ILi0EEEEEEE24handleReceivedDataStructERNS_21ReceivedDataStructureIS8_EE.part.362:0000000000000000 $t
     /tmp/ccFEREDd.s:1734   .text._ZN6uavcan13ServiceServerINS_8protocol18GetTransportStats_ENS_12MethodBinderIPKNS_22TransportStatsProviderEMS4_KFvRKNS2_8Request_ILi0EEERNS2_9Response_ILi0EEEEEEE24handleReceivedDataStructERNS_21ReceivedDataStructureIS8_EE.part.362:0000000000000000 _ZN6uavcan13ServiceServerINS_8protocol18GetTransportStats_ENS_12MethodBinderIPKNS_22TransportStatsProviderEMS4_KFvRKNS2_8Request_ILi0EEERNS2_9Response_ILi0EEEEEEE24handleReceivedDataStructERNS_21ReceivedDataStructureIS8_EE.part.362
     /tmp/ccFEREDd.s:1749   .text._ZN6uavcan13ServiceServerINS_8protocol12GetNodeInfo_ENS_12MethodBinderIPNS_18NodeStatusProviderEMS4_FvRKNS2_8Request_ILi0EEERNS2_9Response_ILi0EEEEEEE24handleReceivedDataStructERNS_21ReceivedDataStructureIS7_EE.part.372:0000000000000000 $t
     /tmp/ccFEREDd.s:1753   .text._ZN6uavcan13ServiceServerINS_8protocol12GetNodeInfo_ENS_12MethodBinderIPNS_18NodeStatusProviderEMS4_FvRKNS2_8Request_ILi0EEERNS2_9Response_ILi0EEEEEEE24handleReceivedDataStructERNS_21ReceivedDataStructureIS7_EE.part.372:0000000000000000 _ZN6uavcan13ServiceServerINS_8protocol12GetNodeInfo_ENS_12MethodBinderIPNS_18NodeStatusProviderEMS4_FvRKNS2_8Request_ILi0EEERNS2_9Response_ILi0EEEEEEE24handleReceivedDataStructERNS_21ReceivedDataStructureIS7_EE.part.372
     /tmp/ccFEREDd.s:1768   .text._ZN6uavcan5INode14getSystemClockEv:0000000000000000 $t
     /tmp/ccFEREDd.s:1773   .text._ZN6uavcan5INode14getSystemClockEv:0000000000000000 _ZN6uavcan5INode14getSystemClockEv
     /tmp/ccFEREDd.s:1784   .text._ZNK6uavcan5INode16getMonotonicTimeEv:0000000000000000 $t
     /tmp/ccFEREDd.s:1789   .text._ZNK6uavcan5INode16getMonotonicTimeEv:0000000000000000 _ZNK6uavcan5INode16getMonotonicTimeEv
     /tmp/ccFEREDd.s:1807   .text._ZNK6uavcan5INode9getNodeIDEv:0000000000000000 $t
     /tmp/ccFEREDd.s:1812   .text._ZNK6uavcan5INode9getNodeIDEv:0000000000000000 _ZNK6uavcan5INode9getNodeIDEv
     /tmp/ccFEREDd.s:1823   .text._ZN6uavcan20GlobalTimeSyncMaster19handleLoopbackFrameERKNS_7RxFrameE:0000000000000000 $t
     /tmp/ccFEREDd.s:1828   .text._ZN6uavcan20GlobalTimeSyncMaster19handleLoopbackFrameERKNS_7RxFrameE:0000000000000000 _ZN6uavcan20GlobalTimeSyncMaster19handleLoopbackFrameERKNS_7RxFrameE
     /tmp/ccFEREDd.s:1896   .text._ZN6uavcan20GlobalTimeSyncMaster19handleLoopbackFrameERKNS_7RxFrameE:0000000000000094 $d
     /tmp/ccFEREDd.s:1901   .text._ZN6uavcan5INode9setNodeIDENS_6NodeIDE:0000000000000000 $t
     /tmp/ccFEREDd.s:1906   .text._ZN6uavcan5INode9setNodeIDENS_6NodeIDE:0000000000000000 _ZN6uavcan5INode9setNodeIDENS_6NodeIDE
     /tmp/ccFEREDd.s:1920   .text._ZN6uavcan20GenericPublisherBaseC2ERNS_5INodeENS_17MonotonicDurationES3_:0000000000000000 $t
     /tmp/ccFEREDd.s:1925   .text._ZN6uavcan20GenericPublisherBaseC2ERNS_5INodeENS_17MonotonicDurationES3_:0000000000000000 _ZN6uavcan20GenericPublisherBaseC2ERNS_5INodeENS_17MonotonicDurationES3_
     /tmp/ccFEREDd.s:1966   .text._ZN6uavcan20GenericPublisherBaseC2ERNS_5INodeENS_17MonotonicDurationES3_:000000000000005c $d
     /tmp/ccFEREDd.s:1925   .text._ZN6uavcan20GenericPublisherBaseC2ERNS_5INodeENS_17MonotonicDurationES3_:0000000000000000 _ZN6uavcan20GenericPublisherBaseC1ERNS_5INodeENS_17MonotonicDurationES3_
     /tmp/ccFEREDd.s:1971   .text._ZNSt14_Function_baseD2Ev:0000000000000000 $t
     /tmp/ccFEREDd.s:1976   .text._ZNSt14_Function_baseD2Ev:0000000000000000 _ZNSt14_Function_baseD2Ev
     /tmp/ccFEREDd.s:1976   .text._ZNSt14_Function_baseD2Ev:0000000000000000 _ZNSt14_Function_baseD1Ev
     /tmp/ccFEREDd.s:1993   .text._ZN6uavcan19TimerEventForwarderISt8functionIFvRKNS_10TimerEventEEEED2Ev:0000000000000000 $t
     /tmp/ccFEREDd.s:1998   .text._ZN6uavcan19TimerEventForwarderISt8functionIFvRKNS_10TimerEventEEEED2Ev:0000000000000000 _ZN6uavcan19TimerEventForwarderISt8functionIFvRKNS_10TimerEventEEEED2Ev
     /tmp/ccFEREDd.s:2015   .text._ZN6uavcan19TimerEventForwarderISt8functionIFvRKNS_10TimerEventEEEED2Ev:000000000000001c $d
     /tmp/ccFEREDd.s:11352  .rodata._ZTVN6uavcan19TimerEventForwarderISt8functionIFvRKNS_10TimerEventEEEEE:0000000000000000 _ZTVN6uavcan19TimerEventForwarderISt8functionIFvRKNS_10TimerEventEEEEE
ARM GAS  /tmp/ccFEREDd.s 			page 217


     /tmp/ccFEREDd.s:11021  .rodata._ZTVN6uavcan15DeadlineHandlerE:0000000000000000 _ZTVN6uavcan15DeadlineHandlerE
     /tmp/ccFEREDd.s:1998   .text._ZN6uavcan19TimerEventForwarderISt8functionIFvRKNS_10TimerEventEEEED2Ev:0000000000000000 _ZN6uavcan19TimerEventForwarderISt8functionIFvRKNS_10TimerEventEEEED1Ev
     /tmp/ccFEREDd.s:2021   .text._ZN6uavcan19TimerEventForwarderISt8functionIFvRKNS_10TimerEventEEEED0Ev:0000000000000000 $t
     /tmp/ccFEREDd.s:2026   .text._ZN6uavcan19TimerEventForwarderISt8functionIFvRKNS_10TimerEventEEEED0Ev:0000000000000000 _ZN6uavcan19TimerEventForwarderISt8functionIFvRKNS_10TimerEventEEEED0Ev
     /tmp/ccFEREDd.s:2038   .text._ZN6uavcan9TimerBaseC2ERNS_5INodeE:0000000000000000 $t
     /tmp/ccFEREDd.s:2043   .text._ZN6uavcan9TimerBaseC2ERNS_5INodeE:0000000000000000 _ZN6uavcan9TimerBaseC2ERNS_5INodeE
     /tmp/ccFEREDd.s:2068   .text._ZN6uavcan9TimerBaseC2ERNS_5INodeE:0000000000000030 $d
     /tmp/ccFEREDd.s:2043   .text._ZN6uavcan9TimerBaseC2ERNS_5INodeE:0000000000000000 _ZN6uavcan9TimerBaseC1ERNS_5INodeE
     /tmp/ccFEREDd.s:2073   .text._ZN6uavcan6LoggerC2ERNS_5INodeE:0000000000000000 $t
     /tmp/ccFEREDd.s:2078   .text._ZN6uavcan6LoggerC2ERNS_5INodeE:0000000000000000 _ZN6uavcan6LoggerC2ERNS_5INodeE
     /tmp/ccFEREDd.s:2112   .text._ZN6uavcan6LoggerC2ERNS_5INodeE:000000000000004c $d
     /tmp/ccFEREDd.s:2078   .text._ZN6uavcan6LoggerC2ERNS_5INodeE:0000000000000000 _ZN6uavcan6LoggerC1ERNS_5INodeE
     /tmp/ccFEREDd.s:2119   .text._ZN12uavcan_stm3211MutexLockerD2Ev:0000000000000000 $t
     /tmp/ccFEREDd.s:2124   .text._ZN12uavcan_stm3211MutexLockerD2Ev:0000000000000000 _ZN12uavcan_stm3211MutexLockerD2Ev
     /tmp/ccFEREDd.s:2124   .text._ZN12uavcan_stm3211MutexLockerD2Ev:0000000000000000 _ZN12uavcan_stm3211MutexLockerD1Ev
     /tmp/ccFEREDd.s:2137   .text._ZN6uavcan19GlobalTimeSyncSlave13adjustFromMsgERKNS_21ReceivedDataStructureINS_8protocol15GlobalTimeSync_ILi0EEEEE:0000000000000000 $t
     /tmp/ccFEREDd.s:2142   .text._ZN6uavcan19GlobalTimeSyncSlave13adjustFromMsgERKNS_21ReceivedDataStructureINS_8protocol15GlobalTimeSync_ILi0EEEEE:0000000000000000 _ZN6uavcan19GlobalTimeSyncSlave13adjustFromMsgERKNS_21ReceivedDataStructureINS_8protocol15GlobalTimeSync_ILi0EEEEE
     /tmp/ccFEREDd.s:2180   .text._ZN6uavcan19GlobalTimeSyncSlave13updateFromMsgERKNS_21ReceivedDataStructureINS_8protocol15GlobalTimeSync_ILi0EEEEE:0000000000000000 $t
     /tmp/ccFEREDd.s:2185   .text._ZN6uavcan19GlobalTimeSyncSlave13updateFromMsgERKNS_21ReceivedDataStructureINS_8protocol15GlobalTimeSync_ILi0EEEEE:0000000000000000 _ZN6uavcan19GlobalTimeSyncSlave13updateFromMsgERKNS_21ReceivedDataStructureINS_8protocol15GlobalTimeSync_ILi0EEEEE
     /tmp/ccFEREDd.s:2228   .text._ZN4node4LockC2Ev:0000000000000000 $t
     /tmp/ccFEREDd.s:2233   .text._ZN4node4LockC2Ev:0000000000000000 _ZN4node4LockC2Ev
     /tmp/ccFEREDd.s:2246   .text._ZN4node4LockC2Ev:0000000000000010 $d
     /tmp/ccFEREDd.s:2233   .text._ZN4node4LockC2Ev:0000000000000000 _ZN4node4LockC1Ev
     /tmp/ccFEREDd.s:2251   .text._ZN4node9isStartedEv:0000000000000000 $t
     /tmp/ccFEREDd.s:2256   .text._ZN4node9isStartedEv:0000000000000000 _ZN4node9isStartedEv
     /tmp/ccFEREDd.s:2266   .text._ZN4node9isStartedEv:0000000000000008 $d
     /tmp/ccFEREDd.s:2269   .text._ZN4node24hasPendingRestartRequestEv:0000000000000000 $t
     /tmp/ccFEREDd.s:2274   .text._ZN4node24hasPendingRestartRequestEv:0000000000000000 _ZN4node24hasPendingRestartRequestEv
     /tmp/ccFEREDd.s:2284   .text._ZN4node24hasPendingRestartRequestEv:0000000000000008 $d
     /tmp/ccFEREDd.s:2287   .text._ZN4node18setComponentHealthENS_11ComponentIDEh:0000000000000000 $t
     /tmp/ccFEREDd.s:2292   .text._ZN4node18setComponentHealthENS_11ComponentIDEh:0000000000000000 _ZN4node18setComponentHealthENS_11ComponentIDEh
     /tmp/ccFEREDd.s:2311   .text._ZN4node18setComponentHealthENS_11ComponentIDEh:000000000000001c $d
     /tmp/ccFEREDd.s:2314   .text._ZN4node24markComponentInitializedENS_11ComponentIDE:0000000000000000 $t
     /tmp/ccFEREDd.s:2319   .text._ZN4node24markComponentInitializedENS_11ComponentIDE:0000000000000000 _ZN4node24markComponentInitializedENS_11ComponentIDE
     /tmp/ccFEREDd.s:2337   .text._ZN4node24markComponentInitializedENS_11ComponentIDE:000000000000001c $d
     /tmp/ccFEREDd.s:2340   .text._ZN4node4initEv:0000000000000000 $t
     /tmp/ccFEREDd.s:2345   .text._ZN4node4initEv:0000000000000000 _ZN4node4initEv
     /tmp/ccFEREDd.s:2359   .text._ZN4node4initEv:0000000000000014 $d
     /tmp/ccFEREDd.s:2362   .text._ZN6uavcan4fillIPhhEEvT_S2_RKT0_:0000000000000000 $t
     /tmp/ccFEREDd.s:2367   .text._ZN6uavcan4fillIPhhEEvT_S2_RKT0_:0000000000000000 _ZN6uavcan4fillIPhhEEvT_S2_RKT0_
     /tmp/ccFEREDd.s:2381   .text._ZN6uavcan8CanFrameC2Ev:0000000000000000 $t
     /tmp/ccFEREDd.s:2386   .text._ZN6uavcan8CanFrameC2Ev:0000000000000000 _ZN6uavcan8CanFrameC2Ev
     /tmp/ccFEREDd.s:2386   .text._ZN6uavcan8CanFrameC2Ev:0000000000000000 _ZN6uavcan8CanFrameC1Ev
     /tmp/ccFEREDd.s:2407   .text._ZN6uavcan20GlobalTimeSyncMasterD2Ev:0000000000000000 $t
     /tmp/ccFEREDd.s:2412   .text._ZN6uavcan20GlobalTimeSyncMasterD2Ev:0000000000000000 _ZN6uavcan20GlobalTimeSyncMasterD2Ev
     /tmp/ccFEREDd.s:2445   .text._ZN6uavcan20GlobalTimeSyncMasterD2Ev:000000000000003c $d
     /tmp/ccFEREDd.s:11156  .rodata._ZTVN6uavcan20GlobalTimeSyncMasterE:0000000000000000 _ZTVN6uavcan20GlobalTimeSyncMasterE
     /tmp/ccFEREDd.s:11010  .rodata._ZTVN6uavcan25LoopbackFrameListenerBaseE:0000000000000000 _ZTVN6uavcan25LoopbackFrameListenerBaseE
     /tmp/ccFEREDd.s:2412   .text._ZN6uavcan20GlobalTimeSyncMasterD2Ev:0000000000000000 _ZN6uavcan20GlobalTimeSyncMasterD1Ev
     /tmp/ccFEREDd.s:2451   .text._ZN6uavcan20GlobalTimeSyncMasterD0Ev:0000000000000000 $t
     /tmp/ccFEREDd.s:2456   .text._ZN6uavcan20GlobalTimeSyncMasterD0Ev:0000000000000000 _ZN6uavcan20GlobalTimeSyncMasterD0Ev
     /tmp/ccFEREDd.s:2468   .text._ZN6uavcan19DynamicNodeIDClientC2ERNS_5INodeE:0000000000000000 $t
     /tmp/ccFEREDd.s:2473   .text._ZN6uavcan19DynamicNodeIDClientC2ERNS_5INodeE:0000000000000000 _ZN6uavcan19DynamicNodeIDClientC2ERNS_5INodeE
     /tmp/ccFEREDd.s:2522   .text._ZN6uavcan19DynamicNodeIDClientC2ERNS_5INodeE:0000000000000078 $d
     /tmp/ccFEREDd.s:11269  .rodata._ZTVN6uavcan17GenericSubscriberINS_8protocol15dynamic_node_id11Allocation_ILi0EEES4_NS_16TransferListenerEEE:0000000000000000 _ZTVN6uavcan17GenericSubscriberINS_8protocol15dynamic_node_id11Allocation_ILi0EEES4_NS_16TransferListenerEEE
     /tmp/ccFEREDd.s:11280  .rodata._ZTVN6uavcan10SubscriberINS_8protocol15dynamic_node_id11Allocation_ILi0EEENS_12MethodBinderIPNS_19DynamicNodeIDClientEMS6_FvRKNS_21ReceivedDataStructureIS4_EEEEEEE:0000000000000000 _ZTVN6uavcan10SubscriberINS_8protocol15dynamic_node_id11Allocation_ILi0EEENS_12MethodBinderIPNS_19DynamicNodeIDClientEMS6_FvRKNS_21ReceivedDataStructureIS4_EEEEEEE
     /tmp/ccFEREDd.s:2473   .text._ZN6uavcan19DynamicNodeIDClientC2ERNS_5INodeE:0000000000000000 _ZN6uavcan19DynamicNodeIDClientC1ERNS_5INodeE
ARM GAS  /tmp/ccFEREDd.s 			page 218


     /tmp/ccFEREDd.s:2531   .text._ZNK6uavcan8TimeBaseINS_13MonotonicTimeENS_17MonotonicDurationEEplERKS2_:0000000000000000 $t
     /tmp/ccFEREDd.s:2536   .text._ZNK6uavcan8TimeBaseINS_13MonotonicTimeENS_17MonotonicDurationEEplERKS2_:0000000000000000 _ZNK6uavcan8TimeBaseINS_13MonotonicTimeENS_17MonotonicDurationEEplERKS2_
     /tmp/ccFEREDd.s:2572   .text._ZN6uavcan8protocol12GetNodeInfo_9Response_ILi0EEC2Ev:0000000000000000 $t
     /tmp/ccFEREDd.s:2577   .text._ZN6uavcan8protocol12GetNodeInfo_9Response_ILi0EEC2Ev:0000000000000000 _ZN6uavcan8protocol12GetNodeInfo_9Response_ILi0EEC2Ev
     /tmp/ccFEREDd.s:2577   .text._ZN6uavcan8protocol12GetNodeInfo_9Response_ILi0EEC2Ev:0000000000000000 _ZN6uavcan8protocol12GetNodeInfo_9Response_ILi0EEC1Ev
     /tmp/ccFEREDd.s:2612   .text._ZN6uavcan18NodeStatusProviderC2ERNS_5INodeE:0000000000000000 $t
     /tmp/ccFEREDd.s:2617   .text._ZN6uavcan18NodeStatusProviderC2ERNS_5INodeE:0000000000000000 _ZN6uavcan18NodeStatusProviderC2ERNS_5INodeE
     /tmp/ccFEREDd.s:2678   .text._ZN6uavcan18NodeStatusProviderC2ERNS_5INodeE:00000000000000a4 $d
     /tmp/ccFEREDd.s:11032  .rodata._ZTVN6uavcan17GenericSubscriberINS_8protocol12GetNodeInfo_ENS2_8Request_ILi0EEENS_16TransferListenerEEE:0000000000000000 _ZTVN6uavcan17GenericSubscriberINS_8protocol12GetNodeInfo_ENS2_8Request_ILi0EEENS_16TransferListenerEEE
     /tmp/ccFEREDd.s:11043  .rodata._ZTVN6uavcan13ServiceServerINS_8protocol12GetNodeInfo_ENS_12MethodBinderIPNS_18NodeStatusProviderEMS4_FvRKNS2_8Request_ILi0EEERNS2_9Response_ILi0EEEEEEEE:0000000000000000 _ZTVN6uavcan13ServiceServerINS_8protocol12GetNodeInfo_ENS_12MethodBinderIPNS_18NodeStatusProviderEMS4_FvRKNS2_8Request_ILi0EEERNS2_9Response_ILi0EEEEEEEE
     /tmp/ccFEREDd.s:2617   .text._ZN6uavcan18NodeStatusProviderC2ERNS_5INodeE:0000000000000000 _ZN6uavcan18NodeStatusProviderC1ERNS_5INodeE
     /tmp/ccFEREDd.s:2688   .text._ZN6uavcan8protocol13DataTypeKind_ILi0EE23extendDataTypeSignatureERNS_17DataTypeSignatureE:0000000000000000 $t
     /tmp/ccFEREDd.s:2693   .text._ZN6uavcan8protocol13DataTypeKind_ILi0EE23extendDataTypeSignatureERNS_17DataTypeSignatureE:0000000000000000 _ZN6uavcan8protocol13DataTypeKind_ILi0EE23extendDataTypeSignatureERNS_17DataTypeSignatureE
     /tmp/ccFEREDd.s:2704   .text._ZN6uavcan8protocol13DataTypeKind_ILi0EE23extendDataTypeSignatureERNS_17DataTypeSignatureE:0000000000000010 $d
     /tmp/ccFEREDd.s:2708   .text._ZNK6uavcan8TimeBaseINS_13MonotonicTimeENS_17MonotonicDurationEEmiERKS1_:0000000000000000 $t
     /tmp/ccFEREDd.s:2713   .text._ZNK6uavcan8TimeBaseINS_13MonotonicTimeENS_17MonotonicDurationEEmiERKS1_:0000000000000000 _ZNK6uavcan8TimeBaseINS_13MonotonicTimeENS_17MonotonicDurationEEmiERKS1_
     /tmp/ccFEREDd.s:2725   .text._ZNK6uavcan19GlobalTimeSyncSlave8isActiveEv:0000000000000000 $t
     /tmp/ccFEREDd.s:2730   .text._ZNK6uavcan19GlobalTimeSyncSlave8isActiveEv:0000000000000000 _ZNK6uavcan19GlobalTimeSyncSlave8isActiveEv
     /tmp/ccFEREDd.s:2767   .text._ZNK6uavcan19GlobalTimeSyncSlave8isActiveEv:0000000000000048 $d
     /tmp/ccFEREDd.s:2771   .text._ZN6uavcan19GlobalTimeSyncSlave10processMsgERKNS_21ReceivedDataStructureINS_8protocol15GlobalTimeSync_ILi0EEEEE:0000000000000000 $t
     /tmp/ccFEREDd.s:2776   .text._ZN6uavcan19GlobalTimeSyncSlave10processMsgERKNS_21ReceivedDataStructureINS_8protocol15GlobalTimeSync_ILi0EEEEE:0000000000000000 _ZN6uavcan19GlobalTimeSyncSlave10processMsgERKNS_21ReceivedDataStructureINS_8protocol15GlobalTimeSync_ILi0EEEEE
     /tmp/ccFEREDd.s:2887   .text._ZN6uavcan19GlobalTimeSyncSlave10processMsgERKNS_21ReceivedDataStructureINS_8protocol15GlobalTimeSync_ILi0EEEEE:00000000000000e0 $d
     /tmp/ccFEREDd.s:2892   .text._ZN6uavcan19GlobalTimeSyncSlave20handleGlobalTimeSyncERKNS_21ReceivedDataStructureINS_8protocol15GlobalTimeSync_ILi0EEEEE:0000000000000000 $t
     /tmp/ccFEREDd.s:2897   .text._ZN6uavcan19GlobalTimeSyncSlave20handleGlobalTimeSyncERKNS_21ReceivedDataStructureINS_8protocol15GlobalTimeSync_ILi0EEEEE:0000000000000000 _ZN6uavcan19GlobalTimeSyncSlave20handleGlobalTimeSyncERKNS_21ReceivedDataStructureINS_8protocol15GlobalTimeSync_ILi0EEEEE
     /tmp/ccFEREDd.s:2911   .text._ZN12uavcan_stm328CanIfaceD2Ev:0000000000000000 $t
     /tmp/ccFEREDd.s:2916   .text._ZN12uavcan_stm328CanIfaceD2Ev:0000000000000000 _ZN12uavcan_stm328CanIfaceD2Ev
     /tmp/ccFEREDd.s:2934   .text._ZN12uavcan_stm328CanIfaceD2Ev:0000000000000018 $d
     /tmp/ccFEREDd.s:2916   .text._ZN12uavcan_stm328CanIfaceD2Ev:0000000000000000 _ZN12uavcan_stm328CanIfaceD1Ev
     /tmp/ccFEREDd.s:2939   .text._ZN12uavcan_stm3213CanInitHelperILj32EED2Ev:0000000000000000 $t
     /tmp/ccFEREDd.s:2944   .text._ZN12uavcan_stm3213CanInitHelperILj32EED2Ev:0000000000000000 _ZN12uavcan_stm3213CanInitHelperILj32EED2Ev
     /tmp/ccFEREDd.s:2960   .text._ZN12uavcan_stm3213CanInitHelperILj32EED2Ev:0000000000000020 $d
     /tmp/ccFEREDd.s:2944   .text._ZN12uavcan_stm3213CanInitHelperILj32EED2Ev:0000000000000000 _ZN12uavcan_stm3213CanInitHelperILj32EED1Ev
     /tmp/ccFEREDd.s:2965   .text._ZN12uavcan_stm328CanIfaceD0Ev:0000000000000000 $t
     /tmp/ccFEREDd.s:2970   .text._ZN12uavcan_stm328CanIfaceD0Ev:0000000000000000 _ZN12uavcan_stm328CanIfaceD0Ev
     /tmp/ccFEREDd.s:2982   .text._ZN6uavcan4NodeILj7168EEC2ERNS_10ICanDriverERNS_12ISystemClockE:0000000000000000 $t
     /tmp/ccFEREDd.s:2987   .text._ZN6uavcan4NodeILj7168EEC2ERNS_10ICanDriverERNS_12ISystemClockE:0000000000000000 _ZN6uavcan4NodeILj7168EEC2ERNS_10ICanDriverERNS_12ISystemClockE
     /tmp/ccFEREDd.s:3201   .text._ZN6uavcan4NodeILj7168EEC2ERNS_10ICanDriverERNS_12ISystemClockE:0000000000000268 $d
     /tmp/ccFEREDd.s:11304  .rodata._ZTVN6uavcan4NodeILj7168EEE:0000000000000000 _ZTVN6uavcan4NodeILj7168EEE
     /tmp/ccFEREDd.s:11291  .rodata._ZTVN6uavcan13PoolAllocatorILj7168ELh56EcEE:0000000000000000 _ZTVN6uavcan13PoolAllocatorILj7168ELh56EcEE
     /tmp/ccFEREDd.s:11066  .rodata._ZTVN6uavcan17GenericSubscriberINS_8protocol16GetDataTypeInfo_ENS2_8Request_ILi0EEENS_16TransferListenerEEE:0000000000000000 _ZTVN6uavcan17GenericSubscriberINS_8protocol16GetDataTypeInfo_ENS2_8Request_ILi0EEENS_16TransferListenerEEE
     /tmp/ccFEREDd.s:11077  .rodata._ZTVN6uavcan13ServiceServerINS_8protocol16GetDataTypeInfo_ENS_12MethodBinderIPNS_20DataTypeInfoProviderEMS4_FvRKNS2_8Request_ILi0EEERNS2_9Response_ILi0EEEEEEEE:0000000000000000 _ZTVN6uavcan13ServiceServerINS_8protocol16GetDataTypeInfo_ENS_12MethodBinderIPNS_20DataTypeInfoProviderEMS4_FvRKNS2_8Request_ILi0EEERNS2_9Response_ILi0EEEEEEEE
     /tmp/ccFEREDd.s:11100  .rodata._ZTVN6uavcan17GenericSubscriberINS_8protocol12RestartNode_ENS2_8Request_ILi0EEENS_16TransferListenerEEE:0000000000000000 _ZTVN6uavcan17GenericSubscriberINS_8protocol12RestartNode_ENS2_8Request_ILi0EEENS_16TransferListenerEEE
     /tmp/ccFEREDd.s:11111  .rodata._ZTVN6uavcan13ServiceServerINS_8protocol12RestartNode_ENS_12MethodBinderIPKNS_20RestartRequestServerEMS4_KFvRKNS_21ReceivedDataStructureINS2_8Request_ILi0EEEEERNS2_9Response_ILi0EEEEEEEE:0000000000000000 _ZTVN6uavcan13ServiceServerINS_8protocol12RestartNode_ENS_12MethodBinderIPKNS_20RestartRequestServerEMS4_KFvRKNS_21ReceivedDataStructureINS2_8Request_ILi0EEEEERNS2_9Response_ILi0EEEEEEEE
     /tmp/ccFEREDd.s:11134  .rodata._ZTVN6uavcan17GenericSubscriberINS_8protocol18GetTransportStats_ENS2_8Request_ILi0EEENS_16TransferListenerEEE:0000000000000000 _ZTVN6uavcan17GenericSubscriberINS_8protocol18GetTransportStats_ENS2_8Request_ILi0EEENS_16TransferListenerEEE
     /tmp/ccFEREDd.s:11145  .rodata._ZTVN6uavcan13ServiceServerINS_8protocol18GetTransportStats_ENS_12MethodBinderIPKNS_22TransportStatsProviderEMS4_KFvRKNS2_8Request_ILi0EEERNS2_9Response_ILi0EEEEEEEE:0000000000000000 _ZTVN6uavcan13ServiceServerINS_8protocol18GetTransportStats_ENS_12MethodBinderIPKNS_22TransportStatsProviderEMS4_KFvRKNS2_8Request_ILi0EEERNS2_9Response_ILi0EEEEEEEE
     /tmp/ccFEREDd.s:2987   .text._ZN6uavcan4NodeILj7168EEC2ERNS_10ICanDriverERNS_12ISystemClockE:0000000000000000 _ZN6uavcan4NodeILj7168EEC1ERNS_10ICanDriverERNS_12ISystemClockE
     /tmp/ccFEREDd.s:3216   .text._ZN4node7getNodeEv:0000000000000000 $t
     /tmp/ccFEREDd.s:3221   .text._ZN4node7getNodeEv:0000000000000000 _ZN4node7getNodeEv
     /tmp/ccFEREDd.s:3246   .text._ZN4node7getNodeEv:000000000000002c $d
     /tmp/ccFEREDd.s:6226   .text._ZN6uavcan4NodeILj7168EED2Ev:0000000000000000 _ZN6uavcan4NodeILj7168EED1Ev
     /tmp/ccFEREDd.s:3253   .text._ZN4node12_GLOBAL__N_116getTimeSyncSlaveEv:0000000000000000 $t
     /tmp/ccFEREDd.s:3257   .text._ZN4node12_GLOBAL__N_116getTimeSyncSlaveEv:0000000000000000 _ZN4node12_GLOBAL__N_116getTimeSyncSlaveEv
     /tmp/ccFEREDd.s:3307   .text._ZN4node12_GLOBAL__N_116getTimeSyncSlaveEv:0000000000000074 $d
     /tmp/ccFEREDd.s:11179  .rodata._ZTVN6uavcan17GenericSubscriberINS_8protocol15GlobalTimeSync_ILi0EEES3_NS_16TransferListenerEEE:0000000000000000 _ZTVN6uavcan17GenericSubscriberINS_8protocol15GlobalTimeSync_ILi0EEES3_NS_16TransferListenerEEE
     /tmp/ccFEREDd.s:11190  .rodata._ZTVN6uavcan10SubscriberINS_8protocol15GlobalTimeSync_ILi0EEENS_12MethodBinderIPNS_19GlobalTimeSyncSlaveEMS5_FvRKNS_21ReceivedDataStructureIS3_EEEEEEE:0000000000000000 _ZTVN6uavcan10SubscriberINS_8protocol15GlobalTimeSync_ILi0EEENS_12MethodBinderIPNS_19GlobalTimeSyncSlaveEMS5_FvRKNS_21ReceivedDataStructureIS3_EEEEEEE
     /tmp/ccFEREDd.s:4809   .text._ZN6uavcan19GlobalTimeSyncSlaveD2Ev:0000000000000000 _ZN6uavcan19GlobalTimeSyncSlaveD1Ev
     /tmp/ccFEREDd.s:3315   .text._ZN4node12_GLOBAL__N_123isLocalUtcSourceEnabledEv:0000000000000000 $t
ARM GAS  /tmp/ccFEREDd.s 			page 219


     /tmp/ccFEREDd.s:3319   .text._ZN4node12_GLOBAL__N_123isLocalUtcSourceEnabledEv:0000000000000000 _ZN4node12_GLOBAL__N_123isLocalUtcSourceEnabledEv
     /tmp/ccFEREDd.s:3349   .text._ZN4node28adjustUtcTimeFromLocalSourceERKN6uavcan11UtcDurationE:0000000000000000 $t
     /tmp/ccFEREDd.s:3354   .text._ZN4node28adjustUtcTimeFromLocalSourceERKN6uavcan11UtcDurationE:0000000000000000 _ZN4node28adjustUtcTimeFromLocalSourceERKN6uavcan11UtcDurationE
     /tmp/ccFEREDd.s:3388   .text._ZN4node28adjustUtcTimeFromLocalSourceERKN6uavcan11UtcDurationE:0000000000000044 $d
     /tmp/ccFEREDd.s:3392   .text._ZN4node12_GLOBAL__N_132handleBeginFirmwareUpdateRequestERKN6uavcan21ReceivedDataStructureINS1_8protocol4file20BeginFirmwareUpdate_8Request_ILi0EEEEERNS5_9Response_ILi0EEE:0000000000000000 $t
     /tmp/ccFEREDd.s:3396   .text._ZN4node12_GLOBAL__N_132handleBeginFirmwareUpdateRequestERKN6uavcan21ReceivedDataStructureINS1_8protocol4file20BeginFirmwareUpdate_8Request_ILi0EEEEERNS5_9Response_ILi0EEE:0000000000000000 _ZN4node12_GLOBAL__N_132handleBeginFirmwareUpdateRequestERKN6uavcan21ReceivedDataStructureINS1_8protocol4file20BeginFirmwareUpdate_8Request_ILi0EEEEERNS5_9Response_ILi0EEE
     /tmp/ccFEREDd.s:3432   .text._ZN4node12_GLOBAL__N_132handleBeginFirmwareUpdateRequestERKN6uavcan21ReceivedDataStructureINS1_8protocol4file20BeginFirmwareUpdate_8Request_ILi0EEEEERNS5_9Response_ILi0EEE:0000000000000040 $d
     /tmp/ccFEREDd.s:3438   .text._ZN4node12_GLOBAL__N_117getTimeSyncMasterEv.part.122:0000000000000000 $t
     /tmp/ccFEREDd.s:3442   .text._ZN4node12_GLOBAL__N_117getTimeSyncMasterEv.part.122:0000000000000000 _ZN4node12_GLOBAL__N_117getTimeSyncMasterEv.part.122
     /tmp/ccFEREDd.s:3491   .text._ZN4node12_GLOBAL__N_117getTimeSyncMasterEv.part.122:0000000000000068 $d
     /tmp/ccFEREDd.s:3498   .text._ZNK4node12_GLOBAL__N_15._3458spinOnceEv:0000000000000000 $t
     /tmp/ccFEREDd.s:3502   .text._ZNK4node12_GLOBAL__N_15._3458spinOnceEv:0000000000000000 _ZNK4node12_GLOBAL__N_15._3458spinOnceEv
     /tmp/ccFEREDd.s:3595   .text._ZNK4node12_GLOBAL__N_15._3458spinOnceEv:00000000000000e0 $d
     /tmp/ccFEREDd.s:3600   .text._ZN6uavcan22GlobalDataTypeRegistry16registerDataTypeINS_8protocol12GetNodeInfo_EEENS0_18RegistrationResultENS_10DataTypeIDE:0000000000000000 $t
     /tmp/ccFEREDd.s:3605   .text._ZN6uavcan22GlobalDataTypeRegistry16registerDataTypeINS_8protocol12GetNodeInfo_EEENS0_18RegistrationResultENS_10DataTypeIDE:0000000000000000 _ZN6uavcan22GlobalDataTypeRegistry16registerDataTypeINS_8protocol12GetNodeInfo_EEENS0_18RegistrationResultENS_10DataTypeIDE
     /tmp/ccFEREDd.s:3680   .text._ZN6uavcan22GlobalDataTypeRegistry16registerDataTypeINS_8protocol12GetNodeInfo_EEENS0_18RegistrationResultENS_10DataTypeIDE:00000000000000b0 $d
     /tmp/ccFEREDd.s:11451  .bss._ZGVZN6uavcan22GlobalDataTypeRegistry16registerDataTypeINS_8protocol12GetNodeInfo_EEENS0_18RegistrationResultENS_10DataTypeIDEE5entry:0000000000000000 _ZGVZN6uavcan22GlobalDataTypeRegistry16registerDataTypeINS_8protocol12GetNodeInfo_EEENS0_18RegistrationResultENS_10DataTypeIDEE5entry
     /tmp/ccFEREDd.s:10924  .bss._ZZN6uavcan22GlobalDataTypeRegistry16registerDataTypeINS_8protocol12GetNodeInfo_EEENS0_18RegistrationResultENS_10DataTypeIDEE5entry:0000000000000000 _ZZN6uavcan22GlobalDataTypeRegistry16registerDataTypeINS_8protocol12GetNodeInfo_EEENS0_18RegistrationResultENS_10DataTypeIDEE5entry
     /tmp/ccFEREDd.s:3695   .text._ZN6uavcan17GenericSubscriberINS_8protocol12GetNodeInfo_ENS2_8Request_ILi0EEENS_16TransferListenerEED2Ev:0000000000000000 $t
     /tmp/ccFEREDd.s:3700   .text._ZN6uavcan17GenericSubscriberINS_8protocol12GetNodeInfo_ENS2_8Request_ILi0EEENS_16TransferListenerEED2Ev:0000000000000000 _ZN6uavcan17GenericSubscriberINS_8protocol12GetNodeInfo_ENS2_8Request_ILi0EEENS_16TransferListenerEED2Ev
     /tmp/ccFEREDd.s:3729   .text._ZN6uavcan17GenericSubscriberINS_8protocol12GetNodeInfo_ENS2_8Request_ILi0EEENS_16TransferListenerEED2Ev:0000000000000038 $d
     /tmp/ccFEREDd.s:3700   .text._ZN6uavcan17GenericSubscriberINS_8protocol12GetNodeInfo_ENS2_8Request_ILi0EEENS_16TransferListenerEED2Ev:0000000000000000 _ZN6uavcan17GenericSubscriberINS_8protocol12GetNodeInfo_ENS2_8Request_ILi0EEENS_16TransferListenerEED1Ev
     /tmp/ccFEREDd.s:3734   .text._ZN6uavcan13ServiceServerINS_8protocol12GetNodeInfo_ENS_12MethodBinderIPNS_18NodeStatusProviderEMS4_FvRKNS2_8Request_ILi0EEERNS2_9Response_ILi0EEEEEEED2Ev:0000000000000000 $t
     /tmp/ccFEREDd.s:3739   .text._ZN6uavcan13ServiceServerINS_8protocol12GetNodeInfo_ENS_12MethodBinderIPNS_18NodeStatusProviderEMS4_FvRKNS2_8Request_ILi0EEERNS2_9Response_ILi0EEEEEEED2Ev:0000000000000000 _ZN6uavcan13ServiceServerINS_8protocol12GetNodeInfo_ENS_12MethodBinderIPNS_18NodeStatusProviderEMS4_FvRKNS2_8Request_ILi0EEERNS2_9Response_ILi0EEEEEEED2Ev
     /tmp/ccFEREDd.s:3752   .text._ZN6uavcan13ServiceServerINS_8protocol12GetNodeInfo_ENS_12MethodBinderIPNS_18NodeStatusProviderEMS4_FvRKNS2_8Request_ILi0EEERNS2_9Response_ILi0EEEEEEED2Ev:0000000000000010 $d
     /tmp/ccFEREDd.s:3739   .text._ZN6uavcan13ServiceServerINS_8protocol12GetNodeInfo_ENS_12MethodBinderIPNS_18NodeStatusProviderEMS4_FvRKNS2_8Request_ILi0EEERNS2_9Response_ILi0EEEEEEED2Ev:0000000000000000 _ZN6uavcan13ServiceServerINS_8protocol12GetNodeInfo_ENS_12MethodBinderIPNS_18NodeStatusProviderEMS4_FvRKNS2_8Request_ILi0EEERNS2_9Response_ILi0EEEEEEED1Ev
     /tmp/ccFEREDd.s:3757   .text._ZN6uavcan18NodeStatusProviderD2Ev:0000000000000000 $t
     /tmp/ccFEREDd.s:3762   .text._ZN6uavcan18NodeStatusProviderD2Ev:0000000000000000 _ZN6uavcan18NodeStatusProviderD2Ev
     /tmp/ccFEREDd.s:3779   .text._ZN6uavcan18NodeStatusProviderD2Ev:000000000000001c $d
     /tmp/ccFEREDd.s:3762   .text._ZN6uavcan18NodeStatusProviderD2Ev:0000000000000000 _ZN6uavcan18NodeStatusProviderD1Ev
     /tmp/ccFEREDd.s:3785   .text._ZN6uavcan18NodeStatusProviderD0Ev:0000000000000000 $t
     /tmp/ccFEREDd.s:3790   .text._ZN6uavcan18NodeStatusProviderD0Ev:0000000000000000 _ZN6uavcan18NodeStatusProviderD0Ev
     /tmp/ccFEREDd.s:3802   .text._ZN6uavcan13ServiceServerINS_8protocol12GetNodeInfo_ENS_12MethodBinderIPNS_18NodeStatusProviderEMS4_FvRKNS2_8Request_ILi0EEERNS2_9Response_ILi0EEEEEEED0Ev:0000000000000000 $t
     /tmp/ccFEREDd.s:3807   .text._ZN6uavcan13ServiceServerINS_8protocol12GetNodeInfo_ENS_12MethodBinderIPNS_18NodeStatusProviderEMS4_FvRKNS2_8Request_ILi0EEERNS2_9Response_ILi0EEEEEEED0Ev:0000000000000000 _ZN6uavcan13ServiceServerINS_8protocol12GetNodeInfo_ENS_12MethodBinderIPNS_18NodeStatusProviderEMS4_FvRKNS2_8Request_ILi0EEERNS2_9Response_ILi0EEEEEEED0Ev
     /tmp/ccFEREDd.s:3819   .text._ZN6uavcan17GenericSubscriberINS_8protocol12GetNodeInfo_ENS2_8Request_ILi0EEENS_16TransferListenerEED0Ev:0000000000000000 $t
     /tmp/ccFEREDd.s:3824   .text._ZN6uavcan17GenericSubscriberINS_8protocol12GetNodeInfo_ENS2_8Request_ILi0EEENS_16TransferListenerEED0Ev:0000000000000000 _ZN6uavcan17GenericSubscriberINS_8protocol12GetNodeInfo_ENS2_8Request_ILi0EEENS_16TransferListenerEED0Ev
     /tmp/ccFEREDd.s:3836   .text._ZN6uavcan22GlobalDataTypeRegistry16registerDataTypeINS_8protocol16GetDataTypeInfo_EEENS0_18RegistrationResultENS_10DataTypeIDE:0000000000000000 $t
     /tmp/ccFEREDd.s:3841   .text._ZN6uavcan22GlobalDataTypeRegistry16registerDataTypeINS_8protocol16GetDataTypeInfo_EEENS0_18RegistrationResultENS_10DataTypeIDE:0000000000000000 _ZN6uavcan22GlobalDataTypeRegistry16registerDataTypeINS_8protocol16GetDataTypeInfo_EEENS0_18RegistrationResultENS_10DataTypeIDE
     /tmp/ccFEREDd.s:3907   .text._ZN6uavcan22GlobalDataTypeRegistry16registerDataTypeINS_8protocol16GetDataTypeInfo_EEENS0_18RegistrationResultENS_10DataTypeIDE:0000000000000090 $d
     /tmp/ccFEREDd.s:11444  .bss._ZGVZN6uavcan22GlobalDataTypeRegistry16registerDataTypeINS_8protocol16GetDataTypeInfo_EEENS0_18RegistrationResultENS_10DataTypeIDEE5entry:0000000000000000 _ZGVZN6uavcan22GlobalDataTypeRegistry16registerDataTypeINS_8protocol16GetDataTypeInfo_EEENS0_18RegistrationResultENS_10DataTypeIDEE5entry
     /tmp/ccFEREDd.s:10917  .bss._ZZN6uavcan22GlobalDataTypeRegistry16registerDataTypeINS_8protocol16GetDataTypeInfo_EEENS0_18RegistrationResultENS_10DataTypeIDEE5entry:0000000000000000 _ZZN6uavcan22GlobalDataTypeRegistry16registerDataTypeINS_8protocol16GetDataTypeInfo_EEENS0_18RegistrationResultENS_10DataTypeIDEE5entry
     /tmp/ccFEREDd.s:3916   .text._ZN6uavcan5ArrayINS_11IntegerSpecILj8ELNS_10SignednessE0ELNS_8CastModeE0EEELNS_9ArrayModeE1ELj80EE9push_backERKh:0000000000000000 $t
     /tmp/ccFEREDd.s:3921   .text._ZN6uavcan5ArrayINS_11IntegerSpecILj8ELNS_10SignednessE0ELNS_8CastModeE0EEELNS_9ArrayModeE1ELj80EE9push_backERKh:0000000000000000 _ZN6uavcan5ArrayINS_11IntegerSpecILj8ELNS_10SignednessE0ELNS_8CastModeE0EEELNS_9ArrayModeE1ELj80EE9push_backERKh
     /tmp/ccFEREDd.s:3945   .text._ZN4node12_GLOBAL__N_113configureNodeEv:0000000000000000 $t
     /tmp/ccFEREDd.s:3949   .text._ZN4node12_GLOBAL__N_113configureNodeEv:0000000000000000 _ZN4node12_GLOBAL__N_113configureNodeEv
     /tmp/ccFEREDd.s:4024   .text._ZN4node12_GLOBAL__N_113configureNodeEv:00000000000000b8 $d
     /tmp/ccFEREDd.s:4032   .text._ZN6uavcan20DataTypeInfoProvider28handleGetDataTypeInfoRequestERKNS_8protocol16GetDataTypeInfo_8Request_ILi0EEERNS2_9Response_ILi0EEE:0000000000000000 $t
     /tmp/ccFEREDd.s:4037   .text._ZN6uavcan20DataTypeInfoProvider28handleGetDataTypeInfoRequestERKNS_8protocol16GetDataTypeInfo_8Request_ILi0EEERNS2_9Response_ILi0EEE:0000000000000000 _ZN6uavcan20DataTypeInfoProvider28handleGetDataTypeInfoRequestERKNS_8protocol16GetDataTypeInfo_8Request_ILi0EEERNS2_9Response_ILi0EEE
     /tmp/ccFEREDd.s:4137   .text._ZN6uavcan20DataTypeInfoProvider28handleGetDataTypeInfoRequestERKNS_8protocol16GetDataTypeInfo_8Request_ILi0EEERNS2_9Response_ILi0EEE:00000000000000d4 $d
     /tmp/ccFEREDd.s:4140   .text._ZN6uavcan17GenericSubscriberINS_8protocol16GetDataTypeInfo_ENS2_8Request_ILi0EEENS_16TransferListenerEED2Ev:0000000000000000 $t
     /tmp/ccFEREDd.s:4145   .text._ZN6uavcan17GenericSubscriberINS_8protocol16GetDataTypeInfo_ENS2_8Request_ILi0EEENS_16TransferListenerEED2Ev:0000000000000000 _ZN6uavcan17GenericSubscriberINS_8protocol16GetDataTypeInfo_ENS2_8Request_ILi0EEENS_16TransferListenerEED2Ev
     /tmp/ccFEREDd.s:4174   .text._ZN6uavcan17GenericSubscriberINS_8protocol16GetDataTypeInfo_ENS2_8Request_ILi0EEENS_16TransferListenerEED2Ev:0000000000000038 $d
     /tmp/ccFEREDd.s:4145   .text._ZN6uavcan17GenericSubscriberINS_8protocol16GetDataTypeInfo_ENS2_8Request_ILi0EEENS_16TransferListenerEED2Ev:0000000000000000 _ZN6uavcan17GenericSubscriberINS_8protocol16GetDataTypeInfo_ENS2_8Request_ILi0EEENS_16TransferListenerEED1Ev
     /tmp/ccFEREDd.s:4179   .text._ZN6uavcan13ServiceServerINS_8protocol16GetDataTypeInfo_ENS_12MethodBinderIPNS_20DataTypeInfoProviderEMS4_FvRKNS2_8Request_ILi0EEERNS2_9Response_ILi0EEEEEEED2Ev:0000000000000000 $t
     /tmp/ccFEREDd.s:4184   .text._ZN6uavcan13ServiceServerINS_8protocol16GetDataTypeInfo_ENS_12MethodBinderIPNS_20DataTypeInfoProviderEMS4_FvRKNS2_8Request_ILi0EEERNS2_9Response_ILi0EEEEEEED2Ev:0000000000000000 _ZN6uavcan13ServiceServerINS_8protocol16GetDataTypeInfo_ENS_12MethodBinderIPNS_20DataTypeInfoProviderEMS4_FvRKNS2_8Request_ILi0EEERNS2_9Response_ILi0EEEEEEED2Ev
     /tmp/ccFEREDd.s:4197   .text._ZN6uavcan13ServiceServerINS_8protocol16GetDataTypeInfo_ENS_12MethodBinderIPNS_20DataTypeInfoProviderEMS4_FvRKNS2_8Request_ILi0EEERNS2_9Response_ILi0EEEEEEED2Ev:0000000000000010 $d
     /tmp/ccFEREDd.s:4184   .text._ZN6uavcan13ServiceServerINS_8protocol16GetDataTypeInfo_ENS_12MethodBinderIPNS_20DataTypeInfoProviderEMS4_FvRKNS2_8Request_ILi0EEERNS2_9Response_ILi0EEEEEEED2Ev:0000000000000000 _ZN6uavcan13ServiceServerINS_8protocol16GetDataTypeInfo_ENS_12MethodBinderIPNS_20DataTypeInfoProviderEMS4_FvRKNS2_8Request_ILi0EEERNS2_9Response_ILi0EEEEEEED1Ev
ARM GAS  /tmp/ccFEREDd.s 			page 220


     /tmp/ccFEREDd.s:4202   .text._ZN6uavcan13ServiceServerINS_8protocol16GetDataTypeInfo_ENS_12MethodBinderIPNS_20DataTypeInfoProviderEMS4_FvRKNS2_8Request_ILi0EEERNS2_9Response_ILi0EEEEEEED0Ev:0000000000000000 $t
     /tmp/ccFEREDd.s:4207   .text._ZN6uavcan13ServiceServerINS_8protocol16GetDataTypeInfo_ENS_12MethodBinderIPNS_20DataTypeInfoProviderEMS4_FvRKNS2_8Request_ILi0EEERNS2_9Response_ILi0EEEEEEED0Ev:0000000000000000 _ZN6uavcan13ServiceServerINS_8protocol16GetDataTypeInfo_ENS_12MethodBinderIPNS_20DataTypeInfoProviderEMS4_FvRKNS2_8Request_ILi0EEERNS2_9Response_ILi0EEEEEEED0Ev
     /tmp/ccFEREDd.s:4219   .text._ZN6uavcan17GenericSubscriberINS_8protocol16GetDataTypeInfo_ENS2_8Request_ILi0EEENS_16TransferListenerEED0Ev:0000000000000000 $t
     /tmp/ccFEREDd.s:4224   .text._ZN6uavcan17GenericSubscriberINS_8protocol16GetDataTypeInfo_ENS2_8Request_ILi0EEENS_16TransferListenerEED0Ev:0000000000000000 _ZN6uavcan17GenericSubscriberINS_8protocol16GetDataTypeInfo_ENS2_8Request_ILi0EEENS_16TransferListenerEED0Ev
     /tmp/ccFEREDd.s:4236   .text._ZN6uavcan22GlobalDataTypeRegistry16registerDataTypeINS_8protocol5debug11LogMessage_ILi0EEEEENS0_18RegistrationResultENS_10DataTypeIDE:0000000000000000 $t
     /tmp/ccFEREDd.s:4241   .text._ZN6uavcan22GlobalDataTypeRegistry16registerDataTypeINS_8protocol5debug11LogMessage_ILi0EEEEENS0_18RegistrationResultENS_10DataTypeIDE:0000000000000000 _ZN6uavcan22GlobalDataTypeRegistry16registerDataTypeINS_8protocol5debug11LogMessage_ILi0EEEEENS0_18RegistrationResultENS_10DataTypeIDE
     /tmp/ccFEREDd.s:4307   .text._ZN6uavcan22GlobalDataTypeRegistry16registerDataTypeINS_8protocol5debug11LogMessage_ILi0EEEEENS0_18RegistrationResultENS_10DataTypeIDE:0000000000000090 $d
     /tmp/ccFEREDd.s:11437  .bss._ZGVZN6uavcan22GlobalDataTypeRegistry16registerDataTypeINS_8protocol5debug11LogMessage_ILi0EEEEENS0_18RegistrationResultENS_10DataTypeIDEE5entry:0000000000000000 _ZGVZN6uavcan22GlobalDataTypeRegistry16registerDataTypeINS_8protocol5debug11LogMessage_ILi0EEEEENS0_18RegistrationResultENS_10DataTypeIDEE5entry
     /tmp/ccFEREDd.s:10910  .bss._ZZN6uavcan22GlobalDataTypeRegistry16registerDataTypeINS_8protocol5debug11LogMessage_ILi0EEEEENS0_18RegistrationResultENS_10DataTypeIDEE5entry:0000000000000000 _ZZN6uavcan22GlobalDataTypeRegistry16registerDataTypeINS_8protocol5debug11LogMessage_ILi0EEEEENS0_18RegistrationResultENS_10DataTypeIDEE5entry
     /tmp/ccFEREDd.s:4318   .text._ZN6uavcan16GenericPublisherINS_8protocol5debug11LogMessage_ILi0EEES4_E9checkInitEv:0000000000000000 $t
     /tmp/ccFEREDd.s:4323   .text._ZN6uavcan16GenericPublisherINS_8protocol5debug11LogMessage_ILi0EEES4_E9checkInitEv:0000000000000000 _ZN6uavcan16GenericPublisherINS_8protocol5debug11LogMessage_ILi0EEES4_E9checkInitEv
     /tmp/ccFEREDd.s:4342   .text._ZN6uavcan16GenericPublisherINS_8protocol5debug11LogMessage_ILi0EEES4_E9checkInitEv:0000000000000020 $d
     /tmp/ccFEREDd.s:4345   .text._ZN6uavcan17GenericSubscriberINS_8protocol12RestartNode_ENS2_8Request_ILi0EEENS_16TransferListenerEED2Ev:0000000000000000 $t
     /tmp/ccFEREDd.s:4350   .text._ZN6uavcan17GenericSubscriberINS_8protocol12RestartNode_ENS2_8Request_ILi0EEENS_16TransferListenerEED2Ev:0000000000000000 _ZN6uavcan17GenericSubscriberINS_8protocol12RestartNode_ENS2_8Request_ILi0EEENS_16TransferListenerEED2Ev
     /tmp/ccFEREDd.s:4379   .text._ZN6uavcan17GenericSubscriberINS_8protocol12RestartNode_ENS2_8Request_ILi0EEENS_16TransferListenerEED2Ev:0000000000000038 $d
     /tmp/ccFEREDd.s:4350   .text._ZN6uavcan17GenericSubscriberINS_8protocol12RestartNode_ENS2_8Request_ILi0EEENS_16TransferListenerEED2Ev:0000000000000000 _ZN6uavcan17GenericSubscriberINS_8protocol12RestartNode_ENS2_8Request_ILi0EEENS_16TransferListenerEED1Ev
     /tmp/ccFEREDd.s:4384   .text._ZN6uavcan13ServiceServerINS_8protocol12RestartNode_ENS_12MethodBinderIPKNS_20RestartRequestServerEMS4_KFvRKNS_21ReceivedDataStructureINS2_8Request_ILi0EEEEERNS2_9Response_ILi0EEEEEEED2Ev:0000000000000000 $t
     /tmp/ccFEREDd.s:4389   .text._ZN6uavcan13ServiceServerINS_8protocol12RestartNode_ENS_12MethodBinderIPKNS_20RestartRequestServerEMS4_KFvRKNS_21ReceivedDataStructureINS2_8Request_ILi0EEEEERNS2_9Response_ILi0EEEEEEED2Ev:0000000000000000 _ZN6uavcan13ServiceServerINS_8protocol12RestartNode_ENS_12MethodBinderIPKNS_20RestartRequestServerEMS4_KFvRKNS_21ReceivedDataStructureINS2_8Request_ILi0EEEEERNS2_9Response_ILi0EEEEEEED2Ev
     /tmp/ccFEREDd.s:4402   .text._ZN6uavcan13ServiceServerINS_8protocol12RestartNode_ENS_12MethodBinderIPKNS_20RestartRequestServerEMS4_KFvRKNS_21ReceivedDataStructureINS2_8Request_ILi0EEEEERNS2_9Response_ILi0EEEEEEED2Ev:0000000000000010 $d
     /tmp/ccFEREDd.s:4389   .text._ZN6uavcan13ServiceServerINS_8protocol12RestartNode_ENS_12MethodBinderIPKNS_20RestartRequestServerEMS4_KFvRKNS_21ReceivedDataStructureINS2_8Request_ILi0EEEEERNS2_9Response_ILi0EEEEEEED2Ev:0000000000000000 _ZN6uavcan13ServiceServerINS_8protocol12RestartNode_ENS_12MethodBinderIPKNS_20RestartRequestServerEMS4_KFvRKNS_21ReceivedDataStructureINS2_8Request_ILi0EEEEERNS2_9Response_ILi0EEEEEEED1Ev
     /tmp/ccFEREDd.s:4407   .text._ZN6uavcan13ServiceServerINS_8protocol12RestartNode_ENS_12MethodBinderIPKNS_20RestartRequestServerEMS4_KFvRKNS_21ReceivedDataStructureINS2_8Request_ILi0EEEEERNS2_9Response_ILi0EEEEEEED0Ev:0000000000000000 $t
     /tmp/ccFEREDd.s:4412   .text._ZN6uavcan13ServiceServerINS_8protocol12RestartNode_ENS_12MethodBinderIPKNS_20RestartRequestServerEMS4_KFvRKNS_21ReceivedDataStructureINS2_8Request_ILi0EEEEERNS2_9Response_ILi0EEEEEEED0Ev:0000000000000000 _ZN6uavcan13ServiceServerINS_8protocol12RestartNode_ENS_12MethodBinderIPKNS_20RestartRequestServerEMS4_KFvRKNS_21ReceivedDataStructureINS2_8Request_ILi0EEEEERNS2_9Response_ILi0EEEEEEED0Ev
     /tmp/ccFEREDd.s:4424   .text._ZN6uavcan17GenericSubscriberINS_8protocol12RestartNode_ENS2_8Request_ILi0EEENS_16TransferListenerEED0Ev:0000000000000000 $t
     /tmp/ccFEREDd.s:4429   .text._ZN6uavcan17GenericSubscriberINS_8protocol12RestartNode_ENS2_8Request_ILi0EEENS_16TransferListenerEED0Ev:0000000000000000 _ZN6uavcan17GenericSubscriberINS_8protocol12RestartNode_ENS2_8Request_ILi0EEENS_16TransferListenerEED0Ev
     /tmp/ccFEREDd.s:4441   .text._ZN6uavcan22GlobalDataTypeRegistry16registerDataTypeINS_8protocol18GetTransportStats_EEENS0_18RegistrationResultENS_10DataTypeIDE:0000000000000000 $t
     /tmp/ccFEREDd.s:4446   .text._ZN6uavcan22GlobalDataTypeRegistry16registerDataTypeINS_8protocol18GetTransportStats_EEENS0_18RegistrationResultENS_10DataTypeIDE:0000000000000000 _ZN6uavcan22GlobalDataTypeRegistry16registerDataTypeINS_8protocol18GetTransportStats_EEENS0_18RegistrationResultENS_10DataTypeIDE
     /tmp/ccFEREDd.s:4511   .text._ZN6uavcan22GlobalDataTypeRegistry16registerDataTypeINS_8protocol18GetTransportStats_EEENS0_18RegistrationResultENS_10DataTypeIDE:0000000000000090 $d
     /tmp/ccFEREDd.s:11423  .bss._ZGVZN6uavcan22GlobalDataTypeRegistry16registerDataTypeINS_8protocol18GetTransportStats_EEENS0_18RegistrationResultENS_10DataTypeIDEE5entry:0000000000000000 _ZGVZN6uavcan22GlobalDataTypeRegistry16registerDataTypeINS_8protocol18GetTransportStats_EEENS0_18RegistrationResultENS_10DataTypeIDEE5entry
     /tmp/ccFEREDd.s:10896  .bss._ZZN6uavcan22GlobalDataTypeRegistry16registerDataTypeINS_8protocol18GetTransportStats_EEENS0_18RegistrationResultENS_10DataTypeIDEE5entry:0000000000000000 _ZZN6uavcan22GlobalDataTypeRegistry16registerDataTypeINS_8protocol18GetTransportStats_EEENS0_18RegistrationResultENS_10DataTypeIDEE5entry
     /tmp/ccFEREDd.s:4522   .text._ZN6uavcan17GenericSubscriberINS_8protocol18GetTransportStats_ENS2_8Request_ILi0EEENS_16TransferListenerEED2Ev:0000000000000000 $t
     /tmp/ccFEREDd.s:4527   .text._ZN6uavcan17GenericSubscriberINS_8protocol18GetTransportStats_ENS2_8Request_ILi0EEENS_16TransferListenerEED2Ev:0000000000000000 _ZN6uavcan17GenericSubscriberINS_8protocol18GetTransportStats_ENS2_8Request_ILi0EEENS_16TransferListenerEED2Ev
     /tmp/ccFEREDd.s:4556   .text._ZN6uavcan17GenericSubscriberINS_8protocol18GetTransportStats_ENS2_8Request_ILi0EEENS_16TransferListenerEED2Ev:0000000000000038 $d
     /tmp/ccFEREDd.s:4527   .text._ZN6uavcan17GenericSubscriberINS_8protocol18GetTransportStats_ENS2_8Request_ILi0EEENS_16TransferListenerEED2Ev:0000000000000000 _ZN6uavcan17GenericSubscriberINS_8protocol18GetTransportStats_ENS2_8Request_ILi0EEENS_16TransferListenerEED1Ev
     /tmp/ccFEREDd.s:4561   .text._ZN6uavcan13ServiceServerINS_8protocol18GetTransportStats_ENS_12MethodBinderIPKNS_22TransportStatsProviderEMS4_KFvRKNS2_8Request_ILi0EEERNS2_9Response_ILi0EEEEEEED2Ev:0000000000000000 $t
     /tmp/ccFEREDd.s:4566   .text._ZN6uavcan13ServiceServerINS_8protocol18GetTransportStats_ENS_12MethodBinderIPKNS_22TransportStatsProviderEMS4_KFvRKNS2_8Request_ILi0EEERNS2_9Response_ILi0EEEEEEED2Ev:0000000000000000 _ZN6uavcan13ServiceServerINS_8protocol18GetTransportStats_ENS_12MethodBinderIPKNS_22TransportStatsProviderEMS4_KFvRKNS2_8Request_ILi0EEERNS2_9Response_ILi0EEEEEEED2Ev
     /tmp/ccFEREDd.s:4579   .text._ZN6uavcan13ServiceServerINS_8protocol18GetTransportStats_ENS_12MethodBinderIPKNS_22TransportStatsProviderEMS4_KFvRKNS2_8Request_ILi0EEERNS2_9Response_ILi0EEEEEEED2Ev:0000000000000010 $d
     /tmp/ccFEREDd.s:4566   .text._ZN6uavcan13ServiceServerINS_8protocol18GetTransportStats_ENS_12MethodBinderIPKNS_22TransportStatsProviderEMS4_KFvRKNS2_8Request_ILi0EEERNS2_9Response_ILi0EEEEEEED2Ev:0000000000000000 _ZN6uavcan13ServiceServerINS_8protocol18GetTransportStats_ENS_12MethodBinderIPKNS_22TransportStatsProviderEMS4_KFvRKNS2_8Request_ILi0EEERNS2_9Response_ILi0EEEEEEED1Ev
     /tmp/ccFEREDd.s:4584   .text._ZN6uavcan13ServiceServerINS_8protocol18GetTransportStats_ENS_12MethodBinderIPKNS_22TransportStatsProviderEMS4_KFvRKNS2_8Request_ILi0EEERNS2_9Response_ILi0EEEEEEED0Ev:0000000000000000 $t
     /tmp/ccFEREDd.s:4589   .text._ZN6uavcan13ServiceServerINS_8protocol18GetTransportStats_ENS_12MethodBinderIPKNS_22TransportStatsProviderEMS4_KFvRKNS2_8Request_ILi0EEERNS2_9Response_ILi0EEEEEEED0Ev:0000000000000000 _ZN6uavcan13ServiceServerINS_8protocol18GetTransportStats_ENS_12MethodBinderIPKNS_22TransportStatsProviderEMS4_KFvRKNS2_8Request_ILi0EEERNS2_9Response_ILi0EEEEEEED0Ev
     /tmp/ccFEREDd.s:4601   .text._ZN6uavcan17GenericSubscriberINS_8protocol18GetTransportStats_ENS2_8Request_ILi0EEENS_16TransferListenerEED0Ev:0000000000000000 $t
     /tmp/ccFEREDd.s:4606   .text._ZN6uavcan17GenericSubscriberINS_8protocol18GetTransportStats_ENS2_8Request_ILi0EEENS_16TransferListenerEED0Ev:0000000000000000 _ZN6uavcan17GenericSubscriberINS_8protocol18GetTransportStats_ENS2_8Request_ILi0EEENS_16TransferListenerEED0Ev
     /tmp/ccFEREDd.s:4618   .text._ZN6uavcan16GenericPublisherINS_8protocol15GlobalTimeSync_ILi0EEES3_E9checkInitEv:0000000000000000 $t
     /tmp/ccFEREDd.s:4623   .text._ZN6uavcan16GenericPublisherINS_8protocol15GlobalTimeSync_ILi0EEES3_E9checkInitEv:0000000000000000 _ZN6uavcan16GenericPublisherINS_8protocol15GlobalTimeSync_ILi0EEES3_E9checkInitEv
     /tmp/ccFEREDd.s:4642   .text._ZN6uavcan16GenericPublisherINS_8protocol15GlobalTimeSync_ILi0EEES3_E9checkInitEv:0000000000000020 $d
     /tmp/ccFEREDd.s:4645   .text._ZN6uavcan20GlobalTimeSyncMaster4initENS_16TransferPriorityE:0000000000000000 $t
     /tmp/ccFEREDd.s:4650   .text._ZN6uavcan20GlobalTimeSyncMaster4initENS_16TransferPriorityE:0000000000000000 _ZN6uavcan20GlobalTimeSyncMaster4initENS_16TransferPriorityE
     /tmp/ccFEREDd.s:4736   .text._ZN6uavcan20GlobalTimeSyncMaster4initENS_16TransferPriorityE:00000000000000c0 $d
     /tmp/ccFEREDd.s:4742   .text._ZN6uavcan17GenericSubscriberINS_8protocol15GlobalTimeSync_ILi0EEES3_NS_16TransferListenerEED2Ev:0000000000000000 $t
     /tmp/ccFEREDd.s:4747   .text._ZN6uavcan17GenericSubscriberINS_8protocol15GlobalTimeSync_ILi0EEES3_NS_16TransferListenerEED2Ev:0000000000000000 _ZN6uavcan17GenericSubscriberINS_8protocol15GlobalTimeSync_ILi0EEES3_NS_16TransferListenerEED2Ev
     /tmp/ccFEREDd.s:4776   .text._ZN6uavcan17GenericSubscriberINS_8protocol15GlobalTimeSync_ILi0EEES3_NS_16TransferListenerEED2Ev:0000000000000038 $d
     /tmp/ccFEREDd.s:4747   .text._ZN6uavcan17GenericSubscriberINS_8protocol15GlobalTimeSync_ILi0EEES3_NS_16TransferListenerEED2Ev:0000000000000000 _ZN6uavcan17GenericSubscriberINS_8protocol15GlobalTimeSync_ILi0EEES3_NS_16TransferListenerEED1Ev
     /tmp/ccFEREDd.s:4781   .text._ZN6uavcan10SubscriberINS_8protocol15GlobalTimeSync_ILi0EEENS_12MethodBinderIPNS_19GlobalTimeSyncSlaveEMS5_FvRKNS_21ReceivedDataStructureIS3_EEEEEED2Ev:0000000000000000 $t
     /tmp/ccFEREDd.s:4786   .text._ZN6uavcan10SubscriberINS_8protocol15GlobalTimeSync_ILi0EEENS_12MethodBinderIPNS_19GlobalTimeSyncSlaveEMS5_FvRKNS_21ReceivedDataStructureIS3_EEEEEED2Ev:0000000000000000 _ZN6uavcan10SubscriberINS_8protocol15GlobalTimeSync_ILi0EEENS_12MethodBinderIPNS_19GlobalTimeSyncSlaveEMS5_FvRKNS_21ReceivedDataStructureIS3_EEEEEED2Ev
     /tmp/ccFEREDd.s:4799   .text._ZN6uavcan10SubscriberINS_8protocol15GlobalTimeSync_ILi0EEENS_12MethodBinderIPNS_19GlobalTimeSyncSlaveEMS5_FvRKNS_21ReceivedDataStructureIS3_EEEEEED2Ev:0000000000000010 $d
     /tmp/ccFEREDd.s:4786   .text._ZN6uavcan10SubscriberINS_8protocol15GlobalTimeSync_ILi0EEENS_12MethodBinderIPNS_19GlobalTimeSyncSlaveEMS5_FvRKNS_21ReceivedDataStructureIS3_EEEEEED2Ev:0000000000000000 _ZN6uavcan10SubscriberINS_8protocol15GlobalTimeSync_ILi0EEENS_12MethodBinderIPNS_19GlobalTimeSyncSlaveEMS5_FvRKNS_21ReceivedDataStructureIS3_EEEEEED1Ev
     /tmp/ccFEREDd.s:4804   .text._ZN6uavcan19GlobalTimeSyncSlaveD2Ev:0000000000000000 $t
     /tmp/ccFEREDd.s:4809   .text._ZN6uavcan19GlobalTimeSyncSlaveD2Ev:0000000000000000 _ZN6uavcan19GlobalTimeSyncSlaveD2Ev
ARM GAS  /tmp/ccFEREDd.s 			page 221


     /tmp/ccFEREDd.s:4821   .text._ZN6uavcan10SubscriberINS_8protocol15GlobalTimeSync_ILi0EEENS_12MethodBinderIPNS_19GlobalTimeSyncSlaveEMS5_FvRKNS_21ReceivedDataStructureIS3_EEEEEED0Ev:0000000000000000 $t
     /tmp/ccFEREDd.s:4826   .text._ZN6uavcan10SubscriberINS_8protocol15GlobalTimeSync_ILi0EEENS_12MethodBinderIPNS_19GlobalTimeSyncSlaveEMS5_FvRKNS_21ReceivedDataStructureIS3_EEEEEED0Ev:0000000000000000 _ZN6uavcan10SubscriberINS_8protocol15GlobalTimeSync_ILi0EEENS_12MethodBinderIPNS_19GlobalTimeSyncSlaveEMS5_FvRKNS_21ReceivedDataStructureIS3_EEEEEED0Ev
     /tmp/ccFEREDd.s:4838   .text._ZN6uavcan17GenericSubscriberINS_8protocol15GlobalTimeSync_ILi0EEES3_NS_16TransferListenerEED0Ev:0000000000000000 $t
     /tmp/ccFEREDd.s:4843   .text._ZN6uavcan17GenericSubscriberINS_8protocol15GlobalTimeSync_ILi0EEES3_NS_16TransferListenerEED0Ev:0000000000000000 _ZN6uavcan17GenericSubscriberINS_8protocol15GlobalTimeSync_ILi0EEES3_NS_16TransferListenerEED0Ev
     /tmp/ccFEREDd.s:4855   .text._ZN6uavcan17GenericSubscriberINS_8protocol5param7GetSet_ENS3_8Request_ILi0EEENS_16TransferListenerEED2Ev:0000000000000000 $t
     /tmp/ccFEREDd.s:4860   .text._ZN6uavcan17GenericSubscriberINS_8protocol5param7GetSet_ENS3_8Request_ILi0EEENS_16TransferListenerEED2Ev:0000000000000000 _ZN6uavcan17GenericSubscriberINS_8protocol5param7GetSet_ENS3_8Request_ILi0EEENS_16TransferListenerEED2Ev
     /tmp/ccFEREDd.s:4889   .text._ZN6uavcan17GenericSubscriberINS_8protocol5param7GetSet_ENS3_8Request_ILi0EEENS_16TransferListenerEED2Ev:0000000000000038 $d
     /tmp/ccFEREDd.s:11213  .rodata._ZTVN6uavcan17GenericSubscriberINS_8protocol5param7GetSet_ENS3_8Request_ILi0EEENS_16TransferListenerEEE:0000000000000000 _ZTVN6uavcan17GenericSubscriberINS_8protocol5param7GetSet_ENS3_8Request_ILi0EEENS_16TransferListenerEEE
     /tmp/ccFEREDd.s:4860   .text._ZN6uavcan17GenericSubscriberINS_8protocol5param7GetSet_ENS3_8Request_ILi0EEENS_16TransferListenerEED2Ev:0000000000000000 _ZN6uavcan17GenericSubscriberINS_8protocol5param7GetSet_ENS3_8Request_ILi0EEENS_16TransferListenerEED1Ev
     /tmp/ccFEREDd.s:4894   .text._ZN6uavcan13ServiceServerINS_8protocol5param7GetSet_ENS_12MethodBinderIPNS_11ParamServerEMS5_FvRKNS3_8Request_ILi0EEERNS3_9Response_ILi0EEEEEEED2Ev:0000000000000000 $t
     /tmp/ccFEREDd.s:4899   .text._ZN6uavcan13ServiceServerINS_8protocol5param7GetSet_ENS_12MethodBinderIPNS_11ParamServerEMS5_FvRKNS3_8Request_ILi0EEERNS3_9Response_ILi0EEEEEEED2Ev:0000000000000000 _ZN6uavcan13ServiceServerINS_8protocol5param7GetSet_ENS_12MethodBinderIPNS_11ParamServerEMS5_FvRKNS3_8Request_ILi0EEERNS3_9Response_ILi0EEEEEEED2Ev
     /tmp/ccFEREDd.s:4912   .text._ZN6uavcan13ServiceServerINS_8protocol5param7GetSet_ENS_12MethodBinderIPNS_11ParamServerEMS5_FvRKNS3_8Request_ILi0EEERNS3_9Response_ILi0EEEEEEED2Ev:0000000000000010 $d
     /tmp/ccFEREDd.s:11224  .rodata._ZTVN6uavcan13ServiceServerINS_8protocol5param7GetSet_ENS_12MethodBinderIPNS_11ParamServerEMS5_FvRKNS3_8Request_ILi0EEERNS3_9Response_ILi0EEEEEEEE:0000000000000000 _ZTVN6uavcan13ServiceServerINS_8protocol5param7GetSet_ENS_12MethodBinderIPNS_11ParamServerEMS5_FvRKNS3_8Request_ILi0EEERNS3_9Response_ILi0EEEEEEEE
     /tmp/ccFEREDd.s:4899   .text._ZN6uavcan13ServiceServerINS_8protocol5param7GetSet_ENS_12MethodBinderIPNS_11ParamServerEMS5_FvRKNS3_8Request_ILi0EEERNS3_9Response_ILi0EEEEEEED2Ev:0000000000000000 _ZN6uavcan13ServiceServerINS_8protocol5param7GetSet_ENS_12MethodBinderIPNS_11ParamServerEMS5_FvRKNS3_8Request_ILi0EEERNS3_9Response_ILi0EEEEEEED1Ev
     /tmp/ccFEREDd.s:4917   .text._ZN6uavcan13ServiceServerINS_8protocol5param7GetSet_ENS_12MethodBinderIPNS_11ParamServerEMS5_FvRKNS3_8Request_ILi0EEERNS3_9Response_ILi0EEEEEEED0Ev:0000000000000000 $t
     /tmp/ccFEREDd.s:4922   .text._ZN6uavcan13ServiceServerINS_8protocol5param7GetSet_ENS_12MethodBinderIPNS_11ParamServerEMS5_FvRKNS3_8Request_ILi0EEERNS3_9Response_ILi0EEEEEEED0Ev:0000000000000000 _ZN6uavcan13ServiceServerINS_8protocol5param7GetSet_ENS_12MethodBinderIPNS_11ParamServerEMS5_FvRKNS3_8Request_ILi0EEERNS3_9Response_ILi0EEEEEEED0Ev
     /tmp/ccFEREDd.s:4934   .text._ZN6uavcan17GenericSubscriberINS_8protocol5param7GetSet_ENS3_8Request_ILi0EEENS_16TransferListenerEED0Ev:0000000000000000 $t
     /tmp/ccFEREDd.s:4939   .text._ZN6uavcan17GenericSubscriberINS_8protocol5param7GetSet_ENS3_8Request_ILi0EEENS_16TransferListenerEED0Ev:0000000000000000 _ZN6uavcan17GenericSubscriberINS_8protocol5param7GetSet_ENS3_8Request_ILi0EEENS_16TransferListenerEED0Ev
     /tmp/ccFEREDd.s:4951   .text._ZN6uavcan17GenericSubscriberINS_8protocol5param14ExecuteOpcode_ENS3_8Request_ILi0EEENS_16TransferListenerEED2Ev:0000000000000000 $t
     /tmp/ccFEREDd.s:4956   .text._ZN6uavcan17GenericSubscriberINS_8protocol5param14ExecuteOpcode_ENS3_8Request_ILi0EEENS_16TransferListenerEED2Ev:0000000000000000 _ZN6uavcan17GenericSubscriberINS_8protocol5param14ExecuteOpcode_ENS3_8Request_ILi0EEENS_16TransferListenerEED2Ev
     /tmp/ccFEREDd.s:4985   .text._ZN6uavcan17GenericSubscriberINS_8protocol5param14ExecuteOpcode_ENS3_8Request_ILi0EEENS_16TransferListenerEED2Ev:0000000000000038 $d
     /tmp/ccFEREDd.s:11247  .rodata._ZTVN6uavcan17GenericSubscriberINS_8protocol5param14ExecuteOpcode_ENS3_8Request_ILi0EEENS_16TransferListenerEEE:0000000000000000 _ZTVN6uavcan17GenericSubscriberINS_8protocol5param14ExecuteOpcode_ENS3_8Request_ILi0EEENS_16TransferListenerEEE
     /tmp/ccFEREDd.s:4956   .text._ZN6uavcan17GenericSubscriberINS_8protocol5param14ExecuteOpcode_ENS3_8Request_ILi0EEENS_16TransferListenerEED2Ev:0000000000000000 _ZN6uavcan17GenericSubscriberINS_8protocol5param14ExecuteOpcode_ENS3_8Request_ILi0EEENS_16TransferListenerEED1Ev
     /tmp/ccFEREDd.s:4990   .text._ZN6uavcan13ServiceServerINS_8protocol5param14ExecuteOpcode_ENS_12MethodBinderIPNS_11ParamServerEMS5_FvRKNS3_8Request_ILi0EEERNS3_9Response_ILi0EEEEEEED2Ev:0000000000000000 $t
     /tmp/ccFEREDd.s:4995   .text._ZN6uavcan13ServiceServerINS_8protocol5param14ExecuteOpcode_ENS_12MethodBinderIPNS_11ParamServerEMS5_FvRKNS3_8Request_ILi0EEERNS3_9Response_ILi0EEEEEEED2Ev:0000000000000000 _ZN6uavcan13ServiceServerINS_8protocol5param14ExecuteOpcode_ENS_12MethodBinderIPNS_11ParamServerEMS5_FvRKNS3_8Request_ILi0EEERNS3_9Response_ILi0EEEEEEED2Ev
     /tmp/ccFEREDd.s:5008   .text._ZN6uavcan13ServiceServerINS_8protocol5param14ExecuteOpcode_ENS_12MethodBinderIPNS_11ParamServerEMS5_FvRKNS3_8Request_ILi0EEERNS3_9Response_ILi0EEEEEEED2Ev:0000000000000010 $d
     /tmp/ccFEREDd.s:11258  .rodata._ZTVN6uavcan13ServiceServerINS_8protocol5param14ExecuteOpcode_ENS_12MethodBinderIPNS_11ParamServerEMS5_FvRKNS3_8Request_ILi0EEERNS3_9Response_ILi0EEEEEEEE:0000000000000000 _ZTVN6uavcan13ServiceServerINS_8protocol5param14ExecuteOpcode_ENS_12MethodBinderIPNS_11ParamServerEMS5_FvRKNS3_8Request_ILi0EEERNS3_9Response_ILi0EEEEEEEE
     /tmp/ccFEREDd.s:4995   .text._ZN6uavcan13ServiceServerINS_8protocol5param14ExecuteOpcode_ENS_12MethodBinderIPNS_11ParamServerEMS5_FvRKNS3_8Request_ILi0EEERNS3_9Response_ILi0EEEEEEED2Ev:0000000000000000 _ZN6uavcan13ServiceServerINS_8protocol5param14ExecuteOpcode_ENS_12MethodBinderIPNS_11ParamServerEMS5_FvRKNS3_8Request_ILi0EEERNS3_9Response_ILi0EEEEEEED1Ev
     /tmp/ccFEREDd.s:5013   .text._ZN6uavcan11ParamServerD2Ev:0000000000000000 $t
     /tmp/ccFEREDd.s:5018   .text._ZN6uavcan11ParamServerD2Ev:0000000000000000 _ZN6uavcan11ParamServerD2Ev
     /tmp/ccFEREDd.s:5018   .text._ZN6uavcan11ParamServerD2Ev:0000000000000000 _ZN6uavcan11ParamServerD1Ev
     /tmp/ccFEREDd.s:5033   .text._ZN6uavcan13ServiceServerINS_8protocol5param14ExecuteOpcode_ENS_12MethodBinderIPNS_11ParamServerEMS5_FvRKNS3_8Request_ILi0EEERNS3_9Response_ILi0EEEEEEED0Ev:0000000000000000 $t
     /tmp/ccFEREDd.s:5038   .text._ZN6uavcan13ServiceServerINS_8protocol5param14ExecuteOpcode_ENS_12MethodBinderIPNS_11ParamServerEMS5_FvRKNS3_8Request_ILi0EEERNS3_9Response_ILi0EEEEEEED0Ev:0000000000000000 _ZN6uavcan13ServiceServerINS_8protocol5param14ExecuteOpcode_ENS_12MethodBinderIPNS_11ParamServerEMS5_FvRKNS3_8Request_ILi0EEERNS3_9Response_ILi0EEEEEEED0Ev
     /tmp/ccFEREDd.s:5050   .text._ZN6uavcan17GenericSubscriberINS_8protocol5param14ExecuteOpcode_ENS3_8Request_ILi0EEENS_16TransferListenerEED0Ev:0000000000000000 $t
     /tmp/ccFEREDd.s:5055   .text._ZN6uavcan17GenericSubscriberINS_8protocol5param14ExecuteOpcode_ENS3_8Request_ILi0EEENS_16TransferListenerEED0Ev:0000000000000000 _ZN6uavcan17GenericSubscriberINS_8protocol5param14ExecuteOpcode_ENS3_8Request_ILi0EEENS_16TransferListenerEED0Ev
     /tmp/ccFEREDd.s:5067   .text._ZN6uavcan17GenericSubscriberINS_8protocol15dynamic_node_id11Allocation_ILi0EEES4_NS_16TransferListenerEED2Ev:0000000000000000 $t
     /tmp/ccFEREDd.s:5072   .text._ZN6uavcan17GenericSubscriberINS_8protocol15dynamic_node_id11Allocation_ILi0EEES4_NS_16TransferListenerEED2Ev:0000000000000000 _ZN6uavcan17GenericSubscriberINS_8protocol15dynamic_node_id11Allocation_ILi0EEES4_NS_16TransferListenerEED2Ev
     /tmp/ccFEREDd.s:5101   .text._ZN6uavcan17GenericSubscriberINS_8protocol15dynamic_node_id11Allocation_ILi0EEES4_NS_16TransferListenerEED2Ev:0000000000000038 $d
     /tmp/ccFEREDd.s:5072   .text._ZN6uavcan17GenericSubscriberINS_8protocol15dynamic_node_id11Allocation_ILi0EEES4_NS_16TransferListenerEED2Ev:0000000000000000 _ZN6uavcan17GenericSubscriberINS_8protocol15dynamic_node_id11Allocation_ILi0EEES4_NS_16TransferListenerEED1Ev
     /tmp/ccFEREDd.s:5106   .text._ZN6uavcan10SubscriberINS_8protocol15dynamic_node_id11Allocation_ILi0EEENS_12MethodBinderIPNS_19DynamicNodeIDClientEMS6_FvRKNS_21ReceivedDataStructureIS4_EEEEEED2Ev:0000000000000000 $t
     /tmp/ccFEREDd.s:5111   .text._ZN6uavcan10SubscriberINS_8protocol15dynamic_node_id11Allocation_ILi0EEENS_12MethodBinderIPNS_19DynamicNodeIDClientEMS6_FvRKNS_21ReceivedDataStructureIS4_EEEEEED2Ev:0000000000000000 _ZN6uavcan10SubscriberINS_8protocol15dynamic_node_id11Allocation_ILi0EEENS_12MethodBinderIPNS_19DynamicNodeIDClientEMS6_FvRKNS_21ReceivedDataStructureIS4_EEEEEED2Ev
     /tmp/ccFEREDd.s:5124   .text._ZN6uavcan10SubscriberINS_8protocol15dynamic_node_id11Allocation_ILi0EEENS_12MethodBinderIPNS_19DynamicNodeIDClientEMS6_FvRKNS_21ReceivedDataStructureIS4_EEEEEED2Ev:0000000000000010 $d
     /tmp/ccFEREDd.s:5111   .text._ZN6uavcan10SubscriberINS_8protocol15dynamic_node_id11Allocation_ILi0EEENS_12MethodBinderIPNS_19DynamicNodeIDClientEMS6_FvRKNS_21ReceivedDataStructureIS4_EEEEEED2Ev:0000000000000000 _ZN6uavcan10SubscriberINS_8protocol15dynamic_node_id11Allocation_ILi0EEENS_12MethodBinderIPNS_19DynamicNodeIDClientEMS6_FvRKNS_21ReceivedDataStructureIS4_EEEEEED1Ev
     /tmp/ccFEREDd.s:5129   .text._ZN6uavcan10SubscriberINS_8protocol15dynamic_node_id11Allocation_ILi0EEENS_12MethodBinderIPNS_19DynamicNodeIDClientEMS6_FvRKNS_21ReceivedDataStructureIS4_EEEEEED0Ev:0000000000000000 $t
     /tmp/ccFEREDd.s:5134   .text._ZN6uavcan10SubscriberINS_8protocol15dynamic_node_id11Allocation_ILi0EEENS_12MethodBinderIPNS_19DynamicNodeIDClientEMS6_FvRKNS_21ReceivedDataStructureIS4_EEEEEED0Ev:0000000000000000 _ZN6uavcan10SubscriberINS_8protocol15dynamic_node_id11Allocation_ILi0EEENS_12MethodBinderIPNS_19DynamicNodeIDClientEMS6_FvRKNS_21ReceivedDataStructureIS4_EEEEEED0Ev
     /tmp/ccFEREDd.s:5146   .text._ZN6uavcan17GenericSubscriberINS_8protocol15dynamic_node_id11Allocation_ILi0EEES4_NS_16TransferListenerEED0Ev:0000000000000000 $t
     /tmp/ccFEREDd.s:5151   .text._ZN6uavcan17GenericSubscriberINS_8protocol15dynamic_node_id11Allocation_ILi0EEES4_NS_16TransferListenerEED0Ev:0000000000000000 _ZN6uavcan17GenericSubscriberINS_8protocol15dynamic_node_id11Allocation_ILi0EEES4_NS_16TransferListenerEED0Ev
     /tmp/ccFEREDd.s:5163   .text._ZN6uavcan22GlobalDataTypeRegistry16registerDataTypeINS_8protocol4file20BeginFirmwareUpdate_EEENS0_18RegistrationResultENS_10DataTypeIDE:0000000000000000 $t
     /tmp/ccFEREDd.s:5168   .text._ZN6uavcan22GlobalDataTypeRegistry16registerDataTypeINS_8protocol4file20BeginFirmwareUpdate_EEENS0_18RegistrationResultENS_10DataTypeIDE:0000000000000000 _ZN6uavcan22GlobalDataTypeRegistry16registerDataTypeINS_8protocol4file20BeginFirmwareUpdate_EEENS0_18RegistrationResultENS_10DataTypeIDE
     /tmp/ccFEREDd.s:5233   .text._ZN6uavcan22GlobalDataTypeRegistry16registerDataTypeINS_8protocol4file20BeginFirmwareUpdate_EEENS0_18RegistrationResultENS_10DataTypeIDE:0000000000000090 $d
     /tmp/ccFEREDd.s:11388  .bss._ZGVZN6uavcan22GlobalDataTypeRegistry16registerDataTypeINS_8protocol4file20BeginFirmwareUpdate_EEENS0_18RegistrationResultENS_10DataTypeIDEE5entry:0000000000000000 _ZGVZN6uavcan22GlobalDataTypeRegistry16registerDataTypeINS_8protocol4file20BeginFirmwareUpdate_EEENS0_18RegistrationResultENS_10DataTypeIDEE5entry
     /tmp/ccFEREDd.s:10861  .bss._ZZN6uavcan22GlobalDataTypeRegistry16registerDataTypeINS_8protocol4file20BeginFirmwareUpdate_EEENS0_18RegistrationResultENS_10DataTypeIDEE5entry:0000000000000000 _ZZN6uavcan22GlobalDataTypeRegistry16registerDataTypeINS_8protocol4file20BeginFirmwareUpdate_EEENS0_18RegistrationResultENS_10DataTypeIDEE5entry
     /tmp/ccFEREDd.s:5244   .text._ZN12uavcan_stm329CanDriverC2ILj32EEERA2_AT__NS_9CanRxItemE:0000000000000000 $t
     /tmp/ccFEREDd.s:5249   .text._ZN12uavcan_stm329CanDriverC2ILj32EEERA2_AT__NS_9CanRxItemE:0000000000000000 _ZN12uavcan_stm329CanDriverC2ILj32EEERA2_AT__NS_9CanRxItemE
     /tmp/ccFEREDd.s:5337   .text._ZN12uavcan_stm329CanDriverC2ILj32EEERA2_AT__NS_9CanRxItemE:00000000000000e8 $d
     /tmp/ccFEREDd.s:5249   .text._ZN12uavcan_stm329CanDriverC2ILj32EEERA2_AT__NS_9CanRxItemE:0000000000000000 _ZN12uavcan_stm329CanDriverC1ILj32EEERA2_AT__NS_9CanRxItemE
     /tmp/ccFEREDd.s:5345   .text._ZN6uavcan5ArrayINS_11IntegerSpecILj8ELNS_10SignednessE0ELNS_8CastModeE0EEELNS_9ArrayModeE1ELj92EE9push_backERKh:0000000000000000 $t
ARM GAS  /tmp/ccFEREDd.s 			page 222


     /tmp/ccFEREDd.s:5350   .text._ZN6uavcan5ArrayINS_11IntegerSpecILj8ELNS_10SignednessE0ELNS_8CastModeE0EEELNS_9ArrayModeE1ELj92EE9push_backERKh:0000000000000000 _ZN6uavcan5ArrayINS_11IntegerSpecILj8ELNS_10SignednessE0ELNS_8CastModeE0EEELNS_9ArrayModeE1ELj92EE9push_backERKh
     /tmp/ccFEREDd.s:5374   .text._ZNK4node12_GLOBAL__N_112ParamManager19getParamNameByIndexEtRN6uavcan5ArrayINS2_11IntegerSpecILj8ELNS2_10SignednessE0ELNS2_8CastModeE0EEELNS2_9ArrayModeE1ELj92EEE:0000000000000000 $t
     /tmp/ccFEREDd.s:5378   .text._ZNK4node12_GLOBAL__N_112ParamManager19getParamNameByIndexEtRN6uavcan5ArrayINS2_11IntegerSpecILj8ELNS2_10SignednessE0ELNS2_8CastModeE0EEELNS2_9ArrayModeE1ELj92EEE:0000000000000000 _ZNK4node12_GLOBAL__N_112ParamManager19getParamNameByIndexEtRN6uavcan5ArrayINS2_11IntegerSpecILj8ELNS2_10SignednessE0ELNS2_8CastModeE0EEELNS2_9ArrayModeE1ELj92EEE
     /tmp/ccFEREDd.s:5403   .text._ZN6uavcan17GenericSubscriberINS_8protocol4file20BeginFirmwareUpdate_ENS3_8Request_ILi0EEENS_16TransferListenerEED2Ev:0000000000000000 $t
     /tmp/ccFEREDd.s:5408   .text._ZN6uavcan17GenericSubscriberINS_8protocol4file20BeginFirmwareUpdate_ENS3_8Request_ILi0EEENS_16TransferListenerEED2Ev:0000000000000000 _ZN6uavcan17GenericSubscriberINS_8protocol4file20BeginFirmwareUpdate_ENS3_8Request_ILi0EEENS_16TransferListenerEED2Ev
     /tmp/ccFEREDd.s:5437   .text._ZN6uavcan17GenericSubscriberINS_8protocol4file20BeginFirmwareUpdate_ENS3_8Request_ILi0EEENS_16TransferListenerEED2Ev:0000000000000038 $d
     /tmp/ccFEREDd.s:11330  .rodata._ZTVN6uavcan17GenericSubscriberINS_8protocol4file20BeginFirmwareUpdate_ENS3_8Request_ILi0EEENS_16TransferListenerEEE:0000000000000000 _ZTVN6uavcan17GenericSubscriberINS_8protocol4file20BeginFirmwareUpdate_ENS3_8Request_ILi0EEENS_16TransferListenerEEE
     /tmp/ccFEREDd.s:5408   .text._ZN6uavcan17GenericSubscriberINS_8protocol4file20BeginFirmwareUpdate_ENS3_8Request_ILi0EEENS_16TransferListenerEED2Ev:0000000000000000 _ZN6uavcan17GenericSubscriberINS_8protocol4file20BeginFirmwareUpdate_ENS3_8Request_ILi0EEENS_16TransferListenerEED1Ev
     /tmp/ccFEREDd.s:5442   .text._ZN6uavcan13ServiceServerINS_8protocol4file20BeginFirmwareUpdate_EPFvRKNS_21ReceivedDataStructureINS3_8Request_ILi0EEEEERNS3_9Response_ILi0EEEEED2Ev:0000000000000000 $t
     /tmp/ccFEREDd.s:5447   .text._ZN6uavcan13ServiceServerINS_8protocol4file20BeginFirmwareUpdate_EPFvRKNS_21ReceivedDataStructureINS3_8Request_ILi0EEEEERNS3_9Response_ILi0EEEEED2Ev:0000000000000000 _ZN6uavcan13ServiceServerINS_8protocol4file20BeginFirmwareUpdate_EPFvRKNS_21ReceivedDataStructureINS3_8Request_ILi0EEEEERNS3_9Response_ILi0EEEEED2Ev
     /tmp/ccFEREDd.s:5460   .text._ZN6uavcan13ServiceServerINS_8protocol4file20BeginFirmwareUpdate_EPFvRKNS_21ReceivedDataStructureINS3_8Request_ILi0EEEEERNS3_9Response_ILi0EEEEED2Ev:0000000000000010 $d
     /tmp/ccFEREDd.s:11341  .rodata._ZTVN6uavcan13ServiceServerINS_8protocol4file20BeginFirmwareUpdate_EPFvRKNS_21ReceivedDataStructureINS3_8Request_ILi0EEEEERNS3_9Response_ILi0EEEEEE:0000000000000000 _ZTVN6uavcan13ServiceServerINS_8protocol4file20BeginFirmwareUpdate_EPFvRKNS_21ReceivedDataStructureINS3_8Request_ILi0EEEEERNS3_9Response_ILi0EEEEEE
     /tmp/ccFEREDd.s:5447   .text._ZN6uavcan13ServiceServerINS_8protocol4file20BeginFirmwareUpdate_EPFvRKNS_21ReceivedDataStructureINS3_8Request_ILi0EEEEERNS3_9Response_ILi0EEEEED2Ev:0000000000000000 _ZN6uavcan13ServiceServerINS_8protocol4file20BeginFirmwareUpdate_EPFvRKNS_21ReceivedDataStructureINS3_8Request_ILi0EEEEERNS3_9Response_ILi0EEEEED1Ev
     /tmp/ccFEREDd.s:5465   .text._ZN6uavcan13ServiceServerINS_8protocol4file20BeginFirmwareUpdate_EPFvRKNS_21ReceivedDataStructureINS3_8Request_ILi0EEEEERNS3_9Response_ILi0EEEEED0Ev:0000000000000000 $t
     /tmp/ccFEREDd.s:5470   .text._ZN6uavcan13ServiceServerINS_8protocol4file20BeginFirmwareUpdate_EPFvRKNS_21ReceivedDataStructureINS3_8Request_ILi0EEEEERNS3_9Response_ILi0EEEEED0Ev:0000000000000000 _ZN6uavcan13ServiceServerINS_8protocol4file20BeginFirmwareUpdate_EPFvRKNS_21ReceivedDataStructureINS3_8Request_ILi0EEEEERNS3_9Response_ILi0EEEEED0Ev
     /tmp/ccFEREDd.s:5482   .text._ZN6uavcan17GenericSubscriberINS_8protocol4file20BeginFirmwareUpdate_ENS3_8Request_ILi0EEENS_16TransferListenerEED0Ev:0000000000000000 $t
     /tmp/ccFEREDd.s:5487   .text._ZN6uavcan17GenericSubscriberINS_8protocol4file20BeginFirmwareUpdate_ENS3_8Request_ILi0EEENS_16TransferListenerEED0Ev:0000000000000000 _ZN6uavcan17GenericSubscriberINS_8protocol4file20BeginFirmwareUpdate_ENS3_8Request_ILi0EEENS_16TransferListenerEED0Ev
     /tmp/ccFEREDd.s:5499   .text._ZN6uavcan16GenericPublisherINS_8protocol16GetDataTypeInfo_ENS2_9Response_ILi0EEEE9checkInitEv:0000000000000000 $t
     /tmp/ccFEREDd.s:5504   .text._ZN6uavcan16GenericPublisherINS_8protocol16GetDataTypeInfo_ENS2_9Response_ILi0EEEE9checkInitEv:0000000000000000 _ZN6uavcan16GenericPublisherINS_8protocol16GetDataTypeInfo_ENS2_9Response_ILi0EEEE9checkInitEv
     /tmp/ccFEREDd.s:5523   .text._ZN6uavcan16GenericPublisherINS_8protocol16GetDataTypeInfo_ENS2_9Response_ILi0EEEE9checkInitEv:0000000000000020 $d
     /tmp/ccFEREDd.s:5526   .text._ZN6uavcan16GenericPublisherINS_8protocol12RestartNode_ENS2_9Response_ILi0EEEE9checkInitEv:0000000000000000 $t
     /tmp/ccFEREDd.s:5531   .text._ZN6uavcan16GenericPublisherINS_8protocol12RestartNode_ENS2_9Response_ILi0EEEE9checkInitEv:0000000000000000 _ZN6uavcan16GenericPublisherINS_8protocol12RestartNode_ENS2_9Response_ILi0EEEE9checkInitEv
     /tmp/ccFEREDd.s:5550   .text._ZN6uavcan16GenericPublisherINS_8protocol12RestartNode_ENS2_9Response_ILi0EEEE9checkInitEv:0000000000000020 $d
     /tmp/ccFEREDd.s:5553   .text._ZN6uavcan16GenericPublisherINS_8protocol18GetTransportStats_ENS2_9Response_ILi0EEEE9checkInitEv:0000000000000000 $t
     /tmp/ccFEREDd.s:5558   .text._ZN6uavcan16GenericPublisherINS_8protocol18GetTransportStats_ENS2_9Response_ILi0EEEE9checkInitEv:0000000000000000 _ZN6uavcan16GenericPublisherINS_8protocol18GetTransportStats_ENS2_9Response_ILi0EEEE9checkInitEv
     /tmp/ccFEREDd.s:5577   .text._ZN6uavcan16GenericPublisherINS_8protocol18GetTransportStats_ENS2_9Response_ILi0EEEE9checkInitEv:0000000000000020 $d
     /tmp/ccFEREDd.s:5580   .text._ZN6uavcan17GenericSubscriberINS_8protocol18GetTransportStats_ENS2_8Request_ILi0EEENS_16TransferListenerEE12genericStartEMNS_10DispatcherEFbPS5_E:0000000000000000 $t
     /tmp/ccFEREDd.s:5585   .text._ZN6uavcan17GenericSubscriberINS_8protocol18GetTransportStats_ENS2_8Request_ILi0EEENS_16TransferListenerEE12genericStartEMNS_10DispatcherEFbPS5_E:0000000000000000 _ZN6uavcan17GenericSubscriberINS_8protocol18GetTransportStats_ENS2_8Request_ILi0EEENS_16TransferListenerEE12genericStartEMNS_10DispatcherEFbPS5_E
     /tmp/ccFEREDd.s:5642   .text._ZN6uavcan17GenericSubscriberINS_8protocol18GetTransportStats_ENS2_8Request_ILi0EEENS_16TransferListenerEE12genericStartEMNS_10DispatcherEFbPS5_E:0000000000000080 $d
     /tmp/ccFEREDd.s:5647   .text._ZN6uavcan16GenericPublisherINS_8protocol15GlobalTimeSync_ILi0EEES3_E14genericPublishERKS3_NS_12TransferTypeENS_6NodeIDEPNS_10TransferIDENS_13MonotonicTimeE:0000000000000000 $t
     /tmp/ccFEREDd.s:5652   .text._ZN6uavcan16GenericPublisherINS_8protocol15GlobalTimeSync_ILi0EEES3_E14genericPublishERKS3_NS_12TransferTypeENS_6NodeIDEPNS_10TransferIDENS_13MonotonicTimeE:0000000000000000 _ZN6uavcan16GenericPublisherINS_8protocol15GlobalTimeSync_ILi0EEES3_E14genericPublishERKS3_NS_12TransferTypeENS_6NodeIDEPNS_10TransferIDENS_13MonotonicTimeE
     /tmp/ccFEREDd.s:5707   .text._ZN6uavcan16GenericPublisherINS_8protocol15GlobalTimeSync_ILi0EEES3_E14genericPublishERKS3_NS_12TransferTypeENS_6NodeIDEPNS_10TransferIDENS_13MonotonicTimeE:000000000000007c $d
     /tmp/ccFEREDd.s:11376  .rodata._ZTVN6uavcan20StaticTransferBufferILt7EEE:0000000000000000 _ZTVN6uavcan20StaticTransferBufferILt7EEE
     /tmp/ccFEREDd.s:5710   .text._ZN6uavcan20GlobalTimeSyncMaster7publishEv:0000000000000000 $t
     /tmp/ccFEREDd.s:5715   .text._ZN6uavcan20GlobalTimeSyncMaster7publishEv:0000000000000000 _ZN6uavcan20GlobalTimeSyncMaster7publishEv
     /tmp/ccFEREDd.s:5860   .text._ZN6uavcan20GlobalTimeSyncMaster7publishEv:000000000000017c $d
     /tmp/ccFEREDd.s:5867   .text._ZN4node12_GLOBAL__N_115publishTimeSyncERKN6uavcan10TimerEventE:0000000000000000 $t
     /tmp/ccFEREDd.s:5871   .text._ZN4node12_GLOBAL__N_115publishTimeSyncERKN6uavcan10TimerEventE:0000000000000000 _ZN4node12_GLOBAL__N_115publishTimeSyncERKN6uavcan10TimerEventE
     /tmp/ccFEREDd.s:5904   .text._ZN4node12_GLOBAL__N_115publishTimeSyncERKN6uavcan10TimerEventE:0000000000000040 $d
     /tmp/ccFEREDd.s:5909   .text._ZN6uavcan8protocol5param6Empty_ILi0EE23extendDataTypeSignatureERNS_17DataTypeSignatureE:0000000000000000 $t
     /tmp/ccFEREDd.s:5914   .text._ZN6uavcan8protocol5param6Empty_ILi0EE23extendDataTypeSignatureERNS_17DataTypeSignatureE:0000000000000000 _ZN6uavcan8protocol5param6Empty_ILi0EE23extendDataTypeSignatureERNS_17DataTypeSignatureE
     /tmp/ccFEREDd.s:5925   .text._ZN6uavcan8protocol5param6Empty_ILi0EE23extendDataTypeSignatureERNS_17DataTypeSignatureE:0000000000000010 $d
     /tmp/ccFEREDd.s:5929   .text._ZN6uavcan8protocol5param6Value_ILi0EE23extendDataTypeSignatureERNS_17DataTypeSignatureE:0000000000000000 $t
     /tmp/ccFEREDd.s:5934   .text._ZN6uavcan8protocol5param6Value_ILi0EE23extendDataTypeSignatureERNS_17DataTypeSignatureE:0000000000000000 _ZN6uavcan8protocol5param6Value_ILi0EE23extendDataTypeSignatureERNS_17DataTypeSignatureE
     /tmp/ccFEREDd.s:5953   .text._ZN6uavcan8protocol5param6Value_ILi0EE23extendDataTypeSignatureERNS_17DataTypeSignatureE:0000000000000028 $d
     /tmp/ccFEREDd.s:5957   .text._ZN6uavcan8protocol5param13NumericValue_ILi0EE23extendDataTypeSignatureERNS_17DataTypeSignatureE:0000000000000000 $t
     /tmp/ccFEREDd.s:5962   .text._ZN6uavcan8protocol5param13NumericValue_ILi0EE23extendDataTypeSignatureERNS_17DataTypeSignatureE:0000000000000000 _ZN6uavcan8protocol5param13NumericValue_ILi0EE23extendDataTypeSignatureERNS_17DataTypeSignatureE
     /tmp/ccFEREDd.s:5981   .text._ZN6uavcan8protocol5param13NumericValue_ILi0EE23extendDataTypeSignatureERNS_17DataTypeSignatureE:0000000000000028 $d
     /tmp/ccFEREDd.s:5985   .text._ZN6uavcan22GlobalDataTypeRegistry16registerDataTypeINS_8protocol5param7GetSet_EEENS0_18RegistrationResultENS_10DataTypeIDE:0000000000000000 $t
     /tmp/ccFEREDd.s:5990   .text._ZN6uavcan22GlobalDataTypeRegistry16registerDataTypeINS_8protocol5param7GetSet_EEENS0_18RegistrationResultENS_10DataTypeIDE:0000000000000000 _ZN6uavcan22GlobalDataTypeRegistry16registerDataTypeINS_8protocol5param7GetSet_EEENS0_18RegistrationResultENS_10DataTypeIDE
     /tmp/ccFEREDd.s:6063   .text._ZN6uavcan22GlobalDataTypeRegistry16registerDataTypeINS_8protocol5param7GetSet_EEENS0_18RegistrationResultENS_10DataTypeIDE:00000000000000a8 $d
     /tmp/ccFEREDd.s:11409  .bss._ZGVZN6uavcan22GlobalDataTypeRegistry16registerDataTypeINS_8protocol5param7GetSet_EEENS0_18RegistrationResultENS_10DataTypeIDEE5entry:0000000000000000 _ZGVZN6uavcan22GlobalDataTypeRegistry16registerDataTypeINS_8protocol5param7GetSet_EEENS0_18RegistrationResultENS_10DataTypeIDEE5entry
     /tmp/ccFEREDd.s:10882  .bss._ZZN6uavcan22GlobalDataTypeRegistry16registerDataTypeINS_8protocol5param7GetSet_EEENS0_18RegistrationResultENS_10DataTypeIDEE5entry:0000000000000000 _ZZN6uavcan22GlobalDataTypeRegistry16registerDataTypeINS_8protocol5param7GetSet_EEENS0_18RegistrationResultENS_10DataTypeIDEE5entry
     /tmp/ccFEREDd.s:6072   .text._ZN6uavcan16GenericPublisherINS_8protocol5param7GetSet_ENS3_9Response_ILi0EEEE9checkInitEv:0000000000000000 $t
     /tmp/ccFEREDd.s:6077   .text._ZN6uavcan16GenericPublisherINS_8protocol5param7GetSet_ENS3_9Response_ILi0EEEE9checkInitEv:0000000000000000 _ZN6uavcan16GenericPublisherINS_8protocol5param7GetSet_ENS3_9Response_ILi0EEEE9checkInitEv
     /tmp/ccFEREDd.s:6096   .text._ZN6uavcan16GenericPublisherINS_8protocol5param7GetSet_ENS3_9Response_ILi0EEEE9checkInitEv:0000000000000020 $d
     /tmp/ccFEREDd.s:6099   .text._ZN6uavcan16GenericPublisherINS_8protocol5param14ExecuteOpcode_ENS3_9Response_ILi0EEEE9checkInitEv:0000000000000000 $t
ARM GAS  /tmp/ccFEREDd.s 			page 223


     /tmp/ccFEREDd.s:6104   .text._ZN6uavcan16GenericPublisherINS_8protocol5param14ExecuteOpcode_ENS3_9Response_ILi0EEEE9checkInitEv:0000000000000000 _ZN6uavcan16GenericPublisherINS_8protocol5param14ExecuteOpcode_ENS3_9Response_ILi0EEEE9checkInitEv
     /tmp/ccFEREDd.s:6123   .text._ZN6uavcan16GenericPublisherINS_8protocol5param14ExecuteOpcode_ENS3_9Response_ILi0EEEE9checkInitEv:0000000000000020 $d
     /tmp/ccFEREDd.s:6126   .text._ZN6uavcan16GenericPublisherINS_8protocol4file20BeginFirmwareUpdate_ENS3_9Response_ILi0EEEE9checkInitEv:0000000000000000 $t
     /tmp/ccFEREDd.s:6131   .text._ZN6uavcan16GenericPublisherINS_8protocol4file20BeginFirmwareUpdate_ENS3_9Response_ILi0EEEE9checkInitEv:0000000000000000 _ZN6uavcan16GenericPublisherINS_8protocol4file20BeginFirmwareUpdate_ENS3_9Response_ILi0EEEE9checkInitEv
     /tmp/ccFEREDd.s:6150   .text._ZN6uavcan16GenericPublisherINS_8protocol4file20BeginFirmwareUpdate_ENS3_9Response_ILi0EEEE9checkInitEv:0000000000000020 $d
     /tmp/ccFEREDd.s:6153   .text._ZN6uavcan3MapINS_27OutgoingTransferRegistryKeyENS_24OutgoingTransferRegistry5ValueEE7compactEv:0000000000000000 $t
     /tmp/ccFEREDd.s:6158   .text._ZN6uavcan3MapINS_27OutgoingTransferRegistryKeyENS_24OutgoingTransferRegistry5ValueEE7compactEv:0000000000000000 _ZN6uavcan3MapINS_27OutgoingTransferRegistryKeyENS_24OutgoingTransferRegistry5ValueEE7compactEv
     /tmp/ccFEREDd.s:6221   .text._ZN6uavcan4NodeILj7168EED2Ev:0000000000000000 $t
     /tmp/ccFEREDd.s:6226   .text._ZN6uavcan4NodeILj7168EED2Ev:0000000000000000 _ZN6uavcan4NodeILj7168EED2Ev
     /tmp/ccFEREDd.s:6316   .text._ZN6uavcan4NodeILj7168EED2Ev:00000000000000bc $d
     /tmp/ccFEREDd.s:6321   .text._ZN6uavcan4NodeILj7168EED0Ev:0000000000000000 $t
     /tmp/ccFEREDd.s:6326   .text._ZN6uavcan4NodeILj7168EED0Ev:0000000000000000 _ZN6uavcan4NodeILj7168EED0Ev
     /tmp/ccFEREDd.s:6338   .text._ZNK6uavcan12MethodBinderIPNS_20DataTypeInfoProviderEMS1_FvRKNS_8protocol16GetDataTypeInfo_8Request_ILi0EEERNS4_9Response_ILi0EEEEEcvbEv:0000000000000000 $t
     /tmp/ccFEREDd.s:6343   .text._ZNK6uavcan12MethodBinderIPNS_20DataTypeInfoProviderEMS1_FvRKNS_8protocol16GetDataTypeInfo_8Request_ILi0EEERNS4_9Response_ILi0EEEEEcvbEv:0000000000000000 _ZNK6uavcan12MethodBinderIPNS_20DataTypeInfoProviderEMS1_FvRKNS_8protocol16GetDataTypeInfo_8Request_ILi0EEERNS4_9Response_ILi0EEEEEcvbEv
     /tmp/ccFEREDd.s:6362   .text._ZN6uavcan20DataTypeInfoProvider5startEv:0000000000000000 $t
     /tmp/ccFEREDd.s:6367   .text._ZN6uavcan20DataTypeInfoProvider5startEv:0000000000000000 _ZN6uavcan20DataTypeInfoProvider5startEv
     /tmp/ccFEREDd.s:6458   .text._ZN6uavcan20DataTypeInfoProvider5startEv:00000000000000c8 $d
     /tmp/ccFEREDd.s:6465   .text._ZNK6uavcan12MethodBinderIPKNS_20RestartRequestServerEMS1_KFvRKNS_21ReceivedDataStructureINS_8protocol12RestartNode_8Request_ILi0EEEEERNS6_9Response_ILi0EEEEEcvbEv:0000000000000000 $t
     /tmp/ccFEREDd.s:6470   .text._ZNK6uavcan12MethodBinderIPKNS_20RestartRequestServerEMS1_KFvRKNS_21ReceivedDataStructureINS_8protocol12RestartNode_8Request_ILi0EEEEERNS6_9Response_ILi0EEEEEcvbEv:0000000000000000 _ZNK6uavcan12MethodBinderIPKNS_20RestartRequestServerEMS1_KFvRKNS_21ReceivedDataStructureINS_8protocol12RestartNode_8Request_ILi0EEEEERNS6_9Response_ILi0EEEEEcvbEv
     /tmp/ccFEREDd.s:6489   .text._ZN6uavcan13ServiceServerINS_8protocol12RestartNode_ENS_12MethodBinderIPKNS_20RestartRequestServerEMS4_KFvRKNS_21ReceivedDataStructureINS2_8Request_ILi0EEEEERNS2_9Response_ILi0EEEEEEE24handleReceivedDataStructERSA_:0000000000000000 $t
     /tmp/ccFEREDd.s:6494   .text._ZN6uavcan13ServiceServerINS_8protocol12RestartNode_ENS_12MethodBinderIPKNS_20RestartRequestServerEMS4_KFvRKNS_21ReceivedDataStructureINS2_8Request_ILi0EEEEERNS2_9Response_ILi0EEEEEEE24handleReceivedDataStructERSA_:0000000000000000 _ZN6uavcan13ServiceServerINS_8protocol12RestartNode_ENS_12MethodBinderIPKNS_20RestartRequestServerEMS4_KFvRKNS_21ReceivedDataStructureINS2_8Request_ILi0EEEEERNS2_9Response_ILi0EEEEEEE24handleReceivedDataStructERSA_
     /tmp/ccFEREDd.s:6603   .text._ZN6uavcan13ServiceServerINS_8protocol12RestartNode_ENS_12MethodBinderIPKNS_20RestartRequestServerEMS4_KFvRKNS_21ReceivedDataStructureINS2_8Request_ILi0EEEEERNS2_9Response_ILi0EEEEEEE24handleReceivedDataStructERSA_:00000000000000f0 $d
     /tmp/ccFEREDd.s:10974  .rodata._ZTVN6uavcan20StaticTransferBufferILt1EEE:0000000000000000 _ZTVN6uavcan20StaticTransferBufferILt1EEE
     /tmp/ccFEREDd.s:6607   .text._ZNK6uavcan12MethodBinderIPKNS_22TransportStatsProviderEMS1_KFvRKNS_8protocol18GetTransportStats_8Request_ILi0EEERNS5_9Response_ILi0EEEEEcvbEv:0000000000000000 $t
     /tmp/ccFEREDd.s:6612   .text._ZNK6uavcan12MethodBinderIPKNS_22TransportStatsProviderEMS1_KFvRKNS_8protocol18GetTransportStats_8Request_ILi0EEERNS5_9Response_ILi0EEEEEcvbEv:0000000000000000 _ZNK6uavcan12MethodBinderIPKNS_22TransportStatsProviderEMS1_KFvRKNS_8protocol18GetTransportStats_8Request_ILi0EEERNS5_9Response_ILi0EEEEEcvbEv
     /tmp/ccFEREDd.s:6631   .text._ZN6uavcan4NodeILj7168EE5startENS_16TransferPriorityE:0000000000000000 $t
     /tmp/ccFEREDd.s:6636   .text._ZN6uavcan4NodeILj7168EE5startENS_16TransferPriorityE:0000000000000000 _ZN6uavcan4NodeILj7168EE5startENS_16TransferPriorityE
     /tmp/ccFEREDd.s:6791   .text._ZN6uavcan4NodeILj7168EE5startENS_16TransferPriorityE:0000000000000184 $d
     /tmp/ccFEREDd.s:6800   .text._ZNK6uavcan12MethodBinderIPNS_19GlobalTimeSyncSlaveEMS1_FvRKNS_21ReceivedDataStructureINS_8protocol15GlobalTimeSync_ILi0EEEEEEEcvbEv:0000000000000000 $t
     /tmp/ccFEREDd.s:6805   .text._ZNK6uavcan12MethodBinderIPNS_19GlobalTimeSyncSlaveEMS1_FvRKNS_21ReceivedDataStructureINS_8protocol15GlobalTimeSync_ILi0EEEEEEEcvbEv:0000000000000000 _ZNK6uavcan12MethodBinderIPNS_19GlobalTimeSyncSlaveEMS1_FvRKNS_21ReceivedDataStructureINS_8protocol15GlobalTimeSync_ILi0EEEEEEEcvbEv
     /tmp/ccFEREDd.s:6824   .text._ZN6uavcan19GlobalTimeSyncSlave5startEv:0000000000000000 $t
     /tmp/ccFEREDd.s:6829   .text._ZN6uavcan19GlobalTimeSyncSlave5startEv:0000000000000000 _ZN6uavcan19GlobalTimeSyncSlave5startEv
     /tmp/ccFEREDd.s:6908   .text._ZN6uavcan19GlobalTimeSyncSlave5startEv:00000000000000b0 $d
     /tmp/ccFEREDd.s:6915   .text._ZN6uavcan10SubscriberINS_8protocol15GlobalTimeSync_ILi0EEENS_12MethodBinderIPNS_19GlobalTimeSyncSlaveEMS5_FvRKNS_21ReceivedDataStructureIS3_EEEEEE24handleReceivedDataStructERS8_:0000000000000000 $t
     /tmp/ccFEREDd.s:6920   .text._ZN6uavcan10SubscriberINS_8protocol15GlobalTimeSync_ILi0EEENS_12MethodBinderIPNS_19GlobalTimeSyncSlaveEMS5_FvRKNS_21ReceivedDataStructureIS3_EEEEEE24handleReceivedDataStructERS8_:0000000000000000 _ZN6uavcan10SubscriberINS_8protocol15GlobalTimeSync_ILi0EEENS_12MethodBinderIPNS_19GlobalTimeSyncSlaveEMS5_FvRKNS_21ReceivedDataStructureIS3_EEEEEE24handleReceivedDataStructERS8_
     /tmp/ccFEREDd.s:6948   .text._ZN6uavcan10SubscriberINS_8protocol15GlobalTimeSync_ILi0EEENS_12MethodBinderIPNS_19GlobalTimeSyncSlaveEMS5_FvRKNS_21ReceivedDataStructureIS3_EEEEEE24handleReceivedDataStructERS8_:0000000000000034 $d
     /tmp/ccFEREDd.s:6951   .text._ZNK6uavcan12MethodBinderIPNS_11ParamServerEMS1_FvRKNS_8protocol5param7GetSet_8Request_ILi0EEERNS5_9Response_ILi0EEEEEcvbEv:0000000000000000 $t
     /tmp/ccFEREDd.s:6956   .text._ZNK6uavcan12MethodBinderIPNS_11ParamServerEMS1_FvRKNS_8protocol5param7GetSet_8Request_ILi0EEERNS5_9Response_ILi0EEEEEcvbEv:0000000000000000 _ZNK6uavcan12MethodBinderIPNS_11ParamServerEMS1_FvRKNS_8protocol5param7GetSet_8Request_ILi0EEERNS5_9Response_ILi0EEEEEcvbEv
     /tmp/ccFEREDd.s:6975   .text._ZNK6uavcan12MethodBinderIPNS_11ParamServerEMS1_FvRKNS_8protocol5param14ExecuteOpcode_8Request_ILi0EEERNS5_9Response_ILi0EEEEEcvbEv:0000000000000000 $t
     /tmp/ccFEREDd.s:6980   .text._ZNK6uavcan12MethodBinderIPNS_11ParamServerEMS1_FvRKNS_8protocol5param14ExecuteOpcode_8Request_ILi0EEERNS5_9Response_ILi0EEEEEcvbEv:0000000000000000 _ZNK6uavcan12MethodBinderIPNS_11ParamServerEMS1_FvRKNS_8protocol5param14ExecuteOpcode_8Request_ILi0EEERNS5_9Response_ILi0EEEEEcvbEv
     /tmp/ccFEREDd.s:6999   .text._ZN6uavcan11ParamServer5startEPNS_13IParamManagerE:0000000000000000 $t
     /tmp/ccFEREDd.s:7004   .text._ZN6uavcan11ParamServer5startEPNS_13IParamManagerE:0000000000000000 _ZN6uavcan11ParamServer5startEPNS_13IParamManagerE
     /tmp/ccFEREDd.s:7168   .text._ZN6uavcan11ParamServer5startEPNS_13IParamManagerE:000000000000019c $d
     /tmp/ccFEREDd.s:7178   .text._ZN6uavcan11ScalarCodec6encodeILj3EhEEiT0_:0000000000000000 $t
     /tmp/ccFEREDd.s:7183   .text._ZN6uavcan11ScalarCodec6encodeILj3EhEEiT0_:0000000000000000 _ZN6uavcan11ScalarCodec6encodeILj3EhEEiT0_
     /tmp/ccFEREDd.s:7197   .text._ZN6uavcan11ScalarCodec6encodeILj5EhEEiT0_:0000000000000000 $t
     /tmp/ccFEREDd.s:7202   .text._ZN6uavcan11ScalarCodec6encodeILj5EhEEiT0_:0000000000000000 _ZN6uavcan11ScalarCodec6encodeILj5EhEEiT0_
     /tmp/ccFEREDd.s:7216   .text._ZN6uavcan16GenericPublisherINS_8protocol5debug11LogMessage_ILi0EEES4_E14genericPublishERKS4_NS_12TransferTypeENS_6NodeIDEPNS_10TransferIDENS_13MonotonicTimeE:0000000000000000 $t
     /tmp/ccFEREDd.s:7221   .text._ZN6uavcan16GenericPublisherINS_8protocol5debug11LogMessage_ILi0EEES4_E14genericPublishERKS4_NS_12TransferTypeENS_6NodeIDEPNS_10TransferIDENS_13MonotonicTimeE:0000000000000000 _ZN6uavcan16GenericPublisherINS_8protocol5debug11LogMessage_ILi0EEES4_E14genericPublishERKS4_NS_12TransferTypeENS_6NodeIDEPNS_10TransferIDENS_13MonotonicTimeE
     /tmp/ccFEREDd.s:7317   .text._ZN6uavcan16GenericPublisherINS_8protocol5debug11LogMessage_ILi0EEES4_E14genericPublishERKS4_NS_12TransferTypeENS_6NodeIDEPNS_10TransferIDENS_13MonotonicTimeE:00000000000000d4 $d
     /tmp/ccFEREDd.s:11364  .rodata._ZTVN6uavcan20StaticTransferBufferILt123EEE:0000000000000000 _ZTVN6uavcan20StaticTransferBufferILt123EEE
     /tmp/ccFEREDd.s:7320   .text._ZN6uavcan4NodeILj7168EE23registerInternalFailureEPKc:0000000000000000 $t
     /tmp/ccFEREDd.s:7325   .text._ZN6uavcan4NodeILj7168EE23registerInternalFailureEPKc:0000000000000000 _ZN6uavcan4NodeILj7168EE23registerInternalFailureEPKc
     /tmp/ccFEREDd.s:7475   .text._ZN6uavcan4NodeILj7168EE23registerInternalFailureEPKc:0000000000000138 $d
     /tmp/ccFEREDd.s:7481   .text._ZN6uavcan19DynamicNodeIDClientD2Ev:0000000000000000 $t
     /tmp/ccFEREDd.s:7486   .text._ZN6uavcan19DynamicNodeIDClientD2Ev:0000000000000000 _ZN6uavcan19DynamicNodeIDClientD2Ev
     /tmp/ccFEREDd.s:7503   .text._ZN6uavcan19DynamicNodeIDClientD2Ev:000000000000001c $d
ARM GAS  /tmp/ccFEREDd.s 			page 224


     /tmp/ccFEREDd.s:7486   .text._ZN6uavcan19DynamicNodeIDClientD2Ev:0000000000000000 _ZN6uavcan19DynamicNodeIDClientD1Ev
     /tmp/ccFEREDd.s:7511   .text._ZNK4node12_GLOBAL__N_15._3454initEv:0000000000000000 $t
     /tmp/ccFEREDd.s:7515   .text._ZNK4node12_GLOBAL__N_15._3454initEv:0000000000000000 _ZNK4node12_GLOBAL__N_15._3454initEv
     /tmp/ccFEREDd.s:7777   .text._ZNK4node12_GLOBAL__N_15._3454initEv:00000000000002a8 $d
     /tmp/ccFEREDd.s:7808   .text._ZNK4node12_GLOBAL__N_15._3454initEv:0000000000000320 $t
     /tmp/ccFEREDd.s:8016   .text._ZNK4node12_GLOBAL__N_15._3454initEv:0000000000000510 $d
     /tmp/ccFEREDd.s:8046   .text.startup._ZN4node12_GLOBAL__N_15._3454mainEv:0000000000000000 $t
     /tmp/ccFEREDd.s:8050   .text.startup._ZN4node12_GLOBAL__N_15._3454mainEv:0000000000000000 _ZN4node12_GLOBAL__N_15._3454mainEv
     /tmp/ccFEREDd.s:8202   .text.startup._ZN4node12_GLOBAL__N_15._3454mainEv:000000000000014c $d
     /tmp/ccFEREDd.s:8219   .text._ZN6uavcan19DynamicNodeIDClientD0Ev:0000000000000000 $t
     /tmp/ccFEREDd.s:8224   .text._ZN6uavcan19DynamicNodeIDClientD0Ev:0000000000000000 _ZN6uavcan19DynamicNodeIDClientD0Ev
     /tmp/ccFEREDd.s:8236   .text._ZN6uavcan17GenericSubscriberINS_8protocol15GlobalTimeSync_ILi0EEES3_NS_16TransferListenerEE22handleIncomingTransferERNS_16IncomingTransferE:0000000000000000 $t
     /tmp/ccFEREDd.s:8241   .text._ZN6uavcan17GenericSubscriberINS_8protocol15GlobalTimeSync_ILi0EEES3_NS_16TransferListenerEE22handleIncomingTransferERNS_16IncomingTransferE:0000000000000000 _ZN6uavcan17GenericSubscriberINS_8protocol15GlobalTimeSync_ILi0EEES3_NS_16TransferListenerEE22handleIncomingTransferERNS_16IncomingTransferE
     /tmp/ccFEREDd.s:8294   .text._ZN6uavcan17GenericSubscriberINS_8protocol15GlobalTimeSync_ILi0EEES3_NS_16TransferListenerEE17TransferForwarder22handleIncomingTransferERNS_16IncomingTransferE:0000000000000000 $t
     /tmp/ccFEREDd.s:8299   .text._ZN6uavcan17GenericSubscriberINS_8protocol15GlobalTimeSync_ILi0EEES3_NS_16TransferListenerEE17TransferForwarder22handleIncomingTransferERNS_16IncomingTransferE:0000000000000000 _ZN6uavcan17GenericSubscriberINS_8protocol15GlobalTimeSync_ILi0EEES3_NS_16TransferListenerEE17TransferForwarder22handleIncomingTransferERNS_16IncomingTransferE
     /tmp/ccFEREDd.s:8308   .text._ZN6uavcan17GenericSubscriberINS_8protocol12RestartNode_ENS2_8Request_ILi0EEENS_16TransferListenerEE22handleIncomingTransferERNS_16IncomingTransferE:0000000000000000 $t
     /tmp/ccFEREDd.s:8313   .text._ZN6uavcan17GenericSubscriberINS_8protocol12RestartNode_ENS2_8Request_ILi0EEENS_16TransferListenerEE22handleIncomingTransferERNS_16IncomingTransferE:0000000000000000 _ZN6uavcan17GenericSubscriberINS_8protocol12RestartNode_ENS2_8Request_ILi0EEENS_16TransferListenerEE22handleIncomingTransferERNS_16IncomingTransferE
     /tmp/ccFEREDd.s:8366   .text._ZN6uavcan17GenericSubscriberINS_8protocol12RestartNode_ENS2_8Request_ILi0EEENS_16TransferListenerEE17TransferForwarder22handleIncomingTransferERNS_16IncomingTransferE:0000000000000000 $t
     /tmp/ccFEREDd.s:8371   .text._ZN6uavcan17GenericSubscriberINS_8protocol12RestartNode_ENS2_8Request_ILi0EEENS_16TransferListenerEE17TransferForwarder22handleIncomingTransferERNS_16IncomingTransferE:0000000000000000 _ZN6uavcan17GenericSubscriberINS_8protocol12RestartNode_ENS2_8Request_ILi0EEENS_16TransferListenerEE17TransferForwarder22handleIncomingTransferERNS_16IncomingTransferE
     /tmp/ccFEREDd.s:8380   .text._ZN6uavcan16GenericPublisherINS_8protocol4file20BeginFirmwareUpdate_ENS3_9Response_ILi0EEEE14genericPublishERKS5_NS_12TransferTypeENS_6NodeIDEPNS_10TransferIDENS_13MonotonicTimeE:0000000000000000 $t
     /tmp/ccFEREDd.s:8385   .text._ZN6uavcan16GenericPublisherINS_8protocol4file20BeginFirmwareUpdate_ENS3_9Response_ILi0EEEE14genericPublishERKS5_NS_12TransferTypeENS_6NodeIDEPNS_10TransferIDENS_13MonotonicTimeE:0000000000000000 _ZN6uavcan16GenericPublisherINS_8protocol4file20BeginFirmwareUpdate_ENS3_9Response_ILi0EEEE14genericPublishERKS5_NS_12TransferTypeENS_6NodeIDEPNS_10TransferIDENS_13MonotonicTimeE
     /tmp/ccFEREDd.s:8453   .text._ZN6uavcan16GenericPublisherINS_8protocol4file20BeginFirmwareUpdate_ENS3_9Response_ILi0EEEE14genericPublishERKS5_NS_12TransferTypeENS_6NodeIDEPNS_10TransferIDENS_13MonotonicTimeE:000000000000009c $d
     /tmp/ccFEREDd.s:10938  .rodata._ZTVN6uavcan20StaticTransferBufferILt129EEE:0000000000000000 _ZTVN6uavcan20StaticTransferBufferILt129EEE
     /tmp/ccFEREDd.s:8456   .text._ZN6uavcan13ServiceServerINS_8protocol4file20BeginFirmwareUpdate_EPFvRKNS_21ReceivedDataStructureINS3_8Request_ILi0EEEEERNS3_9Response_ILi0EEEEE24handleReceivedDataStructERS7_:0000000000000000 $t
     /tmp/ccFEREDd.s:8461   .text._ZN6uavcan13ServiceServerINS_8protocol4file20BeginFirmwareUpdate_EPFvRKNS_21ReceivedDataStructureINS3_8Request_ILi0EEEEERNS3_9Response_ILi0EEEEE24handleReceivedDataStructERS7_:0000000000000000 _ZN6uavcan13ServiceServerINS_8protocol4file20BeginFirmwareUpdate_EPFvRKNS_21ReceivedDataStructureINS3_8Request_ILi0EEEEERNS3_9Response_ILi0EEEEE24handleReceivedDataStructERS7_
     /tmp/ccFEREDd.s:8524   .text._ZN6uavcan13ServiceServerINS_8protocol4file20BeginFirmwareUpdate_EPFvRKNS_21ReceivedDataStructureINS3_8Request_ILi0EEEEERNS3_9Response_ILi0EEEEE24handleReceivedDataStructERS7_:0000000000000084 $d
     /tmp/ccFEREDd.s:8527   .text._ZN6uavcan16GenericPublisherINS_8protocol5param14ExecuteOpcode_ENS3_9Response_ILi0EEEE14genericPublishERKS5_NS_12TransferTypeENS_6NodeIDEPNS_10TransferIDENS_13MonotonicTimeE:0000000000000000 $t
     /tmp/ccFEREDd.s:8532   .text._ZN6uavcan16GenericPublisherINS_8protocol5param14ExecuteOpcode_ENS3_9Response_ILi0EEEE14genericPublishERKS5_NS_12TransferTypeENS_6NodeIDEPNS_10TransferIDENS_13MonotonicTimeE:0000000000000000 _ZN6uavcan16GenericPublisherINS_8protocol5param14ExecuteOpcode_ENS3_9Response_ILi0EEEE14genericPublishERKS5_NS_12TransferTypeENS_6NodeIDEPNS_10TransferIDENS_13MonotonicTimeE
     /tmp/ccFEREDd.s:8616   .text._ZN6uavcan16GenericPublisherINS_8protocol5param14ExecuteOpcode_ENS3_9Response_ILi0EEEE14genericPublishERKS5_NS_12TransferTypeENS_6NodeIDEPNS_10TransferIDENS_13MonotonicTimeE:00000000000000bc $d
     /tmp/ccFEREDd.s:8620   .text._ZN6uavcan13ServiceServerINS_8protocol5param14ExecuteOpcode_ENS_12MethodBinderIPNS_11ParamServerEMS5_FvRKNS3_8Request_ILi0EEERNS3_9Response_ILi0EEEEEEE24handleReceivedDataStructERNS_21ReceivedDataStructureIS8_EE:0000000000000000 $t
     /tmp/ccFEREDd.s:8625   .text._ZN6uavcan13ServiceServerINS_8protocol5param14ExecuteOpcode_ENS_12MethodBinderIPNS_11ParamServerEMS5_FvRKNS3_8Request_ILi0EEERNS3_9Response_ILi0EEEEEEE24handleReceivedDataStructERNS_21ReceivedDataStructureIS8_EE:0000000000000000 _ZN6uavcan13ServiceServerINS_8protocol5param14ExecuteOpcode_ENS_12MethodBinderIPNS_11ParamServerEMS5_FvRKNS3_8Request_ILi0EEERNS3_9Response_ILi0EEEEEEE24handleReceivedDataStructERNS_21ReceivedDataStructureIS8_EE
     /tmp/ccFEREDd.s:8706   .text._ZN6uavcan13ServiceServerINS_8protocol5param14ExecuteOpcode_ENS_12MethodBinderIPNS_11ParamServerEMS5_FvRKNS3_8Request_ILi0EEERNS3_9Response_ILi0EEEEEEE24handleReceivedDataStructERNS_21ReceivedDataStructureIS8_EE:00000000000000a8 $d
     /tmp/ccFEREDd.s:8709   .text._ZN6uavcan16GenericPublisherINS_8protocol18GetTransportStats_ENS2_9Response_ILi0EEEE14genericPublishERKS4_NS_12TransferTypeENS_6NodeIDEPNS_10TransferIDENS_13MonotonicTimeE:0000000000000000 $t
     /tmp/ccFEREDd.s:8714   .text._ZN6uavcan16GenericPublisherINS_8protocol18GetTransportStats_ENS2_9Response_ILi0EEEE14genericPublishERKS4_NS_12TransferTypeENS_6NodeIDEPNS_10TransferIDENS_13MonotonicTimeE:0000000000000000 _ZN6uavcan16GenericPublisherINS_8protocol18GetTransportStats_ENS2_9Response_ILi0EEEE14genericPublishERKS4_NS_12TransferTypeENS_6NodeIDEPNS_10TransferIDENS_13MonotonicTimeE
     /tmp/ccFEREDd.s:8807   .text._ZN6uavcan16GenericPublisherINS_8protocol18GetTransportStats_ENS2_9Response_ILi0EEEE14genericPublishERKS4_NS_12TransferTypeENS_6NodeIDEPNS_10TransferIDENS_13MonotonicTimeE:00000000000000e0 $d
     /tmp/ccFEREDd.s:10962  .rodata._ZTVN6uavcan20StaticTransferBufferILt73EEE:0000000000000000 _ZTVN6uavcan20StaticTransferBufferILt73EEE
     /tmp/ccFEREDd.s:8810   .text._ZN6uavcan13ServiceServerINS_8protocol18GetTransportStats_ENS_12MethodBinderIPKNS_22TransportStatsProviderEMS4_KFvRKNS2_8Request_ILi0EEERNS2_9Response_ILi0EEEEEEE24handleReceivedDataStructERNS_21ReceivedDataStructureIS8_EE:0000000000000000 $t
     /tmp/ccFEREDd.s:8815   .text._ZN6uavcan13ServiceServerINS_8protocol18GetTransportStats_ENS_12MethodBinderIPKNS_22TransportStatsProviderEMS4_KFvRKNS2_8Request_ILi0EEERNS2_9Response_ILi0EEEEEEE24handleReceivedDataStructERNS_21ReceivedDataStructureIS8_EE:0000000000000000 _ZN6uavcan13ServiceServerINS_8protocol18GetTransportStats_ENS_12MethodBinderIPKNS_22TransportStatsProviderEMS4_KFvRKNS2_8Request_ILi0EEERNS2_9Response_ILi0EEEEEEE24handleReceivedDataStructERNS_21ReceivedDataStructureIS8_EE
     /tmp/ccFEREDd.s:8904   .text._ZN6uavcan13ServiceServerINS_8protocol18GetTransportStats_ENS_12MethodBinderIPKNS_22TransportStatsProviderEMS4_KFvRKNS2_8Request_ILi0EEERNS2_9Response_ILi0EEEEEEE24handleReceivedDataStructERNS_21ReceivedDataStructureIS8_EE:00000000000000c0 $d
     /tmp/ccFEREDd.s:8907   .text._ZNK6uavcan12MethodBinderIPNS_19DynamicNodeIDClientEMS1_FvRKNS_21ReceivedDataStructureINS_8protocol15dynamic_node_id11Allocation_ILi0EEEEEEEcvbEv:0000000000000000 $t
     /tmp/ccFEREDd.s:8912   .text._ZNK6uavcan12MethodBinderIPNS_19DynamicNodeIDClientEMS1_FvRKNS_21ReceivedDataStructureINS_8protocol15dynamic_node_id11Allocation_ILi0EEEEEEEcvbEv:0000000000000000 _ZNK6uavcan12MethodBinderIPNS_19DynamicNodeIDClientEMS1_FvRKNS_21ReceivedDataStructureINS_8protocol15dynamic_node_id11Allocation_ILi0EEEEEEEcvbEv
     /tmp/ccFEREDd.s:8931   .text._ZN6uavcan10SubscriberINS_8protocol15dynamic_node_id11Allocation_ILi0EEENS_12MethodBinderIPNS_19DynamicNodeIDClientEMS6_FvRKNS_21ReceivedDataStructureIS4_EEEEEE24handleReceivedDataStructERS9_:0000000000000000 $t
     /tmp/ccFEREDd.s:8936   .text._ZN6uavcan10SubscriberINS_8protocol15dynamic_node_id11Allocation_ILi0EEENS_12MethodBinderIPNS_19DynamicNodeIDClientEMS6_FvRKNS_21ReceivedDataStructureIS4_EEEEEE24handleReceivedDataStructERS9_:0000000000000000 _ZN6uavcan10SubscriberINS_8protocol15dynamic_node_id11Allocation_ILi0EEENS_12MethodBinderIPNS_19DynamicNodeIDClientEMS6_FvRKNS_21ReceivedDataStructureIS4_EEEEEE24handleReceivedDataStructERS9_
     /tmp/ccFEREDd.s:8964   .text._ZN6uavcan10SubscriberINS_8protocol15dynamic_node_id11Allocation_ILi0EEENS_12MethodBinderIPNS_19DynamicNodeIDClientEMS6_FvRKNS_21ReceivedDataStructureIS4_EEEEEE24handleReceivedDataStructERS9_:0000000000000034 $d
     /tmp/ccFEREDd.s:8967   .text._ZNK6uavcan12MethodBinderIPNS_18NodeStatusProviderEMS1_FvRKNS_8protocol12GetNodeInfo_8Request_ILi0EEERNS4_9Response_ILi0EEEEEcvbEv:0000000000000000 $t
     /tmp/ccFEREDd.s:8972   .text._ZNK6uavcan12MethodBinderIPNS_18NodeStatusProviderEMS1_FvRKNS_8protocol12GetNodeInfo_8Request_ILi0EEERNS4_9Response_ILi0EEEEEcvbEv:0000000000000000 _ZNK6uavcan12MethodBinderIPNS_18NodeStatusProviderEMS1_FvRKNS_8protocol12GetNodeInfo_8Request_ILi0EEERNS4_9Response_ILi0EEEEEcvbEv
     /tmp/ccFEREDd.s:8991   .text._ZN6uavcan11ScalarCodec6decodeILj8EhEEiRT0_:0000000000000000 $t
     /tmp/ccFEREDd.s:8996   .text._ZN6uavcan11ScalarCodec6decodeILj8EhEEiRT0_:0000000000000000 _ZN6uavcan11ScalarCodec6decodeILj8EhEEiRT0_
     /tmp/ccFEREDd.s:9015   .text._ZN6uavcan17GenericSubscriberINS_8protocol16GetDataTypeInfo_ENS2_8Request_ILi0EEENS_16TransferListenerEE22handleIncomingTransferERNS_16IncomingTransferE:0000000000000000 $t
     /tmp/ccFEREDd.s:9020   .text._ZN6uavcan17GenericSubscriberINS_8protocol16GetDataTypeInfo_ENS2_8Request_ILi0EEENS_16TransferListenerEE22handleIncomingTransferERNS_16IncomingTransferE:0000000000000000 _ZN6uavcan17GenericSubscriberINS_8protocol16GetDataTypeInfo_ENS2_8Request_ILi0EEENS_16TransferListenerEE22handleIncomingTransferERNS_16IncomingTransferE
     /tmp/ccFEREDd.s:9098   .text._ZN6uavcan17GenericSubscriberINS_8protocol16GetDataTypeInfo_ENS2_8Request_ILi0EEENS_16TransferListenerEE17TransferForwarder22handleIncomingTransferERNS_16IncomingTransferE:0000000000000000 $t
     /tmp/ccFEREDd.s:9103   .text._ZN6uavcan17GenericSubscriberINS_8protocol16GetDataTypeInfo_ENS2_8Request_ILi0EEENS_16TransferListenerEE17TransferForwarder22handleIncomingTransferERNS_16IncomingTransferE:0000000000000000 _ZN6uavcan17GenericSubscriberINS_8protocol16GetDataTypeInfo_ENS2_8Request_ILi0EEENS_16TransferListenerEE17TransferForwarder22handleIncomingTransferERNS_16IncomingTransferE
     /tmp/ccFEREDd.s:9112   .text._ZN6uavcan17GenericSubscriberINS_8protocol4file20BeginFirmwareUpdate_ENS3_8Request_ILi0EEENS_16TransferListenerEE22handleIncomingTransferERNS_16IncomingTransferE:0000000000000000 $t
     /tmp/ccFEREDd.s:9117   .text._ZN6uavcan17GenericSubscriberINS_8protocol4file20BeginFirmwareUpdate_ENS3_8Request_ILi0EEENS_16TransferListenerEE22handleIncomingTransferERNS_16IncomingTransferE:0000000000000000 _ZN6uavcan17GenericSubscriberINS_8protocol4file20BeginFirmwareUpdate_ENS3_8Request_ILi0EEENS_16TransferListenerEE22handleIncomingTransferERNS_16IncomingTransferE
     /tmp/ccFEREDd.s:9197   .text._ZN6uavcan17GenericSubscriberINS_8protocol4file20BeginFirmwareUpdate_ENS3_8Request_ILi0EEENS_16TransferListenerEE17TransferForwarder22handleIncomingTransferERNS_16IncomingTransferE:0000000000000000 $t
     /tmp/ccFEREDd.s:9202   .text._ZN6uavcan17GenericSubscriberINS_8protocol4file20BeginFirmwareUpdate_ENS3_8Request_ILi0EEENS_16TransferListenerEE17TransferForwarder22handleIncomingTransferERNS_16IncomingTransferE:0000000000000000 _ZN6uavcan17GenericSubscriberINS_8protocol4file20BeginFirmwareUpdate_ENS3_8Request_ILi0EEENS_16TransferListenerEE17TransferForwarder22handleIncomingTransferERNS_16IncomingTransferE
     /tmp/ccFEREDd.s:9211   .text._ZN6uavcan17GenericSubscriberINS_8protocol5param7GetSet_ENS3_8Request_ILi0EEENS_16TransferListenerEE22handleIncomingTransferERNS_16IncomingTransferE:0000000000000000 $t
ARM GAS  /tmp/ccFEREDd.s 			page 225


     /tmp/ccFEREDd.s:9216   .text._ZN6uavcan17GenericSubscriberINS_8protocol5param7GetSet_ENS3_8Request_ILi0EEENS_16TransferListenerEE22handleIncomingTransferERNS_16IncomingTransferE:0000000000000000 _ZN6uavcan17GenericSubscriberINS_8protocol5param7GetSet_ENS3_8Request_ILi0EEENS_16TransferListenerEE22handleIncomingTransferERNS_16IncomingTransferE
     /tmp/ccFEREDd.s:9435   .text._ZN6uavcan17GenericSubscriberINS_8protocol5param7GetSet_ENS3_8Request_ILi0EEENS_16TransferListenerEE17TransferForwarder22handleIncomingTransferERNS_16IncomingTransferE:0000000000000000 $t
     /tmp/ccFEREDd.s:9440   .text._ZN6uavcan17GenericSubscriberINS_8protocol5param7GetSet_ENS3_8Request_ILi0EEENS_16TransferListenerEE17TransferForwarder22handleIncomingTransferERNS_16IncomingTransferE:0000000000000000 _ZN6uavcan17GenericSubscriberINS_8protocol5param7GetSet_ENS3_8Request_ILi0EEENS_16TransferListenerEE17TransferForwarder22handleIncomingTransferERNS_16IncomingTransferE
     /tmp/ccFEREDd.s:9449   .text._ZN6uavcan17GenericSubscriberINS_8protocol5param14ExecuteOpcode_ENS3_8Request_ILi0EEENS_16TransferListenerEE22handleIncomingTransferERNS_16IncomingTransferE:0000000000000000 $t
     /tmp/ccFEREDd.s:9454   .text._ZN6uavcan17GenericSubscriberINS_8protocol5param14ExecuteOpcode_ENS3_8Request_ILi0EEENS_16TransferListenerEE22handleIncomingTransferERNS_16IncomingTransferE:0000000000000000 _ZN6uavcan17GenericSubscriberINS_8protocol5param14ExecuteOpcode_ENS3_8Request_ILi0EEENS_16TransferListenerEE22handleIncomingTransferERNS_16IncomingTransferE
     /tmp/ccFEREDd.s:9526   .text._ZN6uavcan17GenericSubscriberINS_8protocol5param14ExecuteOpcode_ENS3_8Request_ILi0EEENS_16TransferListenerEE22handleIncomingTransferERNS_16IncomingTransferE:00000000000000a0 $d
     /tmp/ccFEREDd.s:9529   .text._ZN6uavcan17GenericSubscriberINS_8protocol5param14ExecuteOpcode_ENS3_8Request_ILi0EEENS_16TransferListenerEE17TransferForwarder22handleIncomingTransferERNS_16IncomingTransferE:0000000000000000 $t
     /tmp/ccFEREDd.s:9534   .text._ZN6uavcan17GenericSubscriberINS_8protocol5param14ExecuteOpcode_ENS3_8Request_ILi0EEENS_16TransferListenerEE17TransferForwarder22handleIncomingTransferERNS_16IncomingTransferE:0000000000000000 _ZN6uavcan17GenericSubscriberINS_8protocol5param14ExecuteOpcode_ENS3_8Request_ILi0EEENS_16TransferListenerEE17TransferForwarder22handleIncomingTransferERNS_16IncomingTransferE
     /tmp/ccFEREDd.s:9543   .text._ZN6uavcan8protocol16GetDataTypeInfo_9Response_ILi0EE6encodeERKS3_RNS_11ScalarCodecENS_25TailArrayOptimizationModeE:0000000000000000 $t
     /tmp/ccFEREDd.s:9548   .text._ZN6uavcan8protocol16GetDataTypeInfo_9Response_ILi0EE6encodeERKS3_RNS_11ScalarCodecENS_25TailArrayOptimizationModeE:0000000000000000 _ZN6uavcan8protocol16GetDataTypeInfo_9Response_ILi0EE6encodeERKS3_RNS_11ScalarCodecENS_25TailArrayOptimizationModeE
     /tmp/ccFEREDd.s:9592   .text._ZN6uavcan16GenericPublisherINS_8protocol16GetDataTypeInfo_ENS2_9Response_ILi0EEEE14genericPublishERKS4_NS_12TransferTypeENS_6NodeIDEPNS_10TransferIDENS_13MonotonicTimeE:0000000000000000 $t
     /tmp/ccFEREDd.s:9597   .text._ZN6uavcan16GenericPublisherINS_8protocol16GetDataTypeInfo_ENS2_9Response_ILi0EEEE14genericPublishERKS4_NS_12TransferTypeENS_6NodeIDEPNS_10TransferIDENS_13MonotonicTimeE:0000000000000000 _ZN6uavcan16GenericPublisherINS_8protocol16GetDataTypeInfo_ENS2_9Response_ILi0EEEE14genericPublishERKS4_NS_12TransferTypeENS_6NodeIDEPNS_10TransferIDENS_13MonotonicTimeE
     /tmp/ccFEREDd.s:9649   .text._ZN6uavcan16GenericPublisherINS_8protocol16GetDataTypeInfo_ENS2_9Response_ILi0EEEE14genericPublishERKS4_NS_12TransferTypeENS_6NodeIDEPNS_10TransferIDENS_13MonotonicTimeE:0000000000000070 $d
     /tmp/ccFEREDd.s:10986  .rodata._ZTVN6uavcan20StaticTransferBufferILt93EEE:0000000000000000 _ZTVN6uavcan20StaticTransferBufferILt93EEE
     /tmp/ccFEREDd.s:9652   .text._ZN6uavcan13ServiceServerINS_8protocol16GetDataTypeInfo_ENS_12MethodBinderIPNS_20DataTypeInfoProviderEMS4_FvRKNS2_8Request_ILi0EEERNS2_9Response_ILi0EEEEEEE24handleReceivedDataStructERNS_21ReceivedDataStructureIS7_EE:0000000000000000 $t
     /tmp/ccFEREDd.s:9657   .text._ZN6uavcan13ServiceServerINS_8protocol16GetDataTypeInfo_ENS_12MethodBinderIPNS_20DataTypeInfoProviderEMS4_FvRKNS2_8Request_ILi0EEERNS2_9Response_ILi0EEEEEEE24handleReceivedDataStructERNS_21ReceivedDataStructureIS7_EE:0000000000000000 _ZN6uavcan13ServiceServerINS_8protocol16GetDataTypeInfo_ENS_12MethodBinderIPNS_20DataTypeInfoProviderEMS4_FvRKNS2_8Request_ILi0EEERNS2_9Response_ILi0EEEEEEE24handleReceivedDataStructERNS_21ReceivedDataStructureIS7_EE
     /tmp/ccFEREDd.s:9736   .text._ZN6uavcan13ServiceServerINS_8protocol16GetDataTypeInfo_ENS_12MethodBinderIPNS_20DataTypeInfoProviderEMS4_FvRKNS2_8Request_ILi0EEERNS2_9Response_ILi0EEEEEEE24handleReceivedDataStructERNS_21ReceivedDataStructureIS7_EE:00000000000000a8 $d
     /tmp/ccFEREDd.s:9739   .text._ZN6uavcan11ScalarCodec6encodeILj32EmEEiT0_:0000000000000000 $t
     /tmp/ccFEREDd.s:9744   .text._ZN6uavcan11ScalarCodec6encodeILj32EmEEiT0_:0000000000000000 _ZN6uavcan11ScalarCodec6encodeILj32EmEEiT0_
     /tmp/ccFEREDd.s:9758   .text._ZN6uavcan8protocol5param6Value_ILi0EE6encodeERKS3_RNS_11ScalarCodecENS_25TailArrayOptimizationModeE:0000000000000000 $t
     /tmp/ccFEREDd.s:9763   .text._ZN6uavcan8protocol5param6Value_ILi0EE6encodeERKS3_RNS_11ScalarCodecENS_25TailArrayOptimizationModeE:0000000000000000 _ZN6uavcan8protocol5param6Value_ILi0EE6encodeERKS3_RNS_11ScalarCodecENS_25TailArrayOptimizationModeE
     /tmp/ccFEREDd.s:9845   .text._ZN6uavcan8protocol5param13NumericValue_ILi0EE6encodeERKS3_RNS_11ScalarCodecENS_25TailArrayOptimizationModeE.isra.348:0000000000000000 $t
     /tmp/ccFEREDd.s:9849   .text._ZN6uavcan8protocol5param13NumericValue_ILi0EE6encodeERKS3_RNS_11ScalarCodecENS_25TailArrayOptimizationModeE.isra.348:0000000000000000 _ZN6uavcan8protocol5param13NumericValue_ILi0EE6encodeERKS3_RNS_11ScalarCodecENS_25TailArrayOptimizationModeE.isra.348
     /tmp/ccFEREDd.s:9894   .text._ZN6uavcan8protocol5param7GetSet_9Response_ILi0EE6encodeERKS4_RNS_11ScalarCodecENS_25TailArrayOptimizationModeE:0000000000000000 $t
     /tmp/ccFEREDd.s:9899   .text._ZN6uavcan8protocol5param7GetSet_9Response_ILi0EE6encodeERKS4_RNS_11ScalarCodecENS_25TailArrayOptimizationModeE:0000000000000000 _ZN6uavcan8protocol5param7GetSet_9Response_ILi0EE6encodeERKS4_RNS_11ScalarCodecENS_25TailArrayOptimizationModeE
     /tmp/ccFEREDd.s:9989   .text._ZN6uavcan16GenericPublisherINS_8protocol5param7GetSet_ENS3_9Response_ILi0EEEE14genericPublishERKS5_NS_12TransferTypeENS_6NodeIDEPNS_10TransferIDENS_13MonotonicTimeE:0000000000000000 $t
     /tmp/ccFEREDd.s:9994   .text._ZN6uavcan16GenericPublisherINS_8protocol5param7GetSet_ENS3_9Response_ILi0EEEE14genericPublishERKS5_NS_12TransferTypeENS_6NodeIDEPNS_10TransferIDENS_13MonotonicTimeE:0000000000000000 _ZN6uavcan16GenericPublisherINS_8protocol5param7GetSet_ENS3_9Response_ILi0EEEE14genericPublishERKS5_NS_12TransferTypeENS_6NodeIDEPNS_10TransferIDENS_13MonotonicTimeE
     /tmp/ccFEREDd.s:10046  .text._ZN6uavcan16GenericPublisherINS_8protocol5param7GetSet_ENS3_9Response_ILi0EEEE14genericPublishERKS5_NS_12TransferTypeENS_6NodeIDEPNS_10TransferIDENS_13MonotonicTimeE:0000000000000070 $d
     /tmp/ccFEREDd.s:10950  .rodata._ZTVN6uavcan20StaticTransferBufferILt371EEE:0000000000000000 _ZTVN6uavcan20StaticTransferBufferILt371EEE
     /tmp/ccFEREDd.s:10049  .text._ZN6uavcan13ServiceServerINS_8protocol5param7GetSet_ENS_12MethodBinderIPNS_11ParamServerEMS5_FvRKNS3_8Request_ILi0EEERNS3_9Response_ILi0EEEEEEE24handleReceivedDataStructERNS_21ReceivedDataStructureIS8_EE:0000000000000000 $t
     /tmp/ccFEREDd.s:10054  .text._ZN6uavcan13ServiceServerINS_8protocol5param7GetSet_ENS_12MethodBinderIPNS_11ParamServerEMS5_FvRKNS3_8Request_ILi0EEERNS3_9Response_ILi0EEEEEEE24handleReceivedDataStructERNS_21ReceivedDataStructureIS8_EE:0000000000000000 _ZN6uavcan13ServiceServerINS_8protocol5param7GetSet_ENS_12MethodBinderIPNS_11ParamServerEMS5_FvRKNS3_8Request_ILi0EEERNS3_9Response_ILi0EEEEEEE24handleReceivedDataStructERNS_21ReceivedDataStructureIS8_EE
     /tmp/ccFEREDd.s:10147  .text._ZN6uavcan13ServiceServerINS_8protocol5param7GetSet_ENS_12MethodBinderIPNS_11ParamServerEMS5_FvRKNS3_8Request_ILi0EEERNS3_9Response_ILi0EEEEEEE24handleReceivedDataStructERNS_21ReceivedDataStructureIS8_EE:00000000000000dc $d
     /tmp/ccFEREDd.s:10150  .text._ZN6uavcan16GenericPublisherINS_8protocol12GetNodeInfo_ENS2_9Response_ILi0EEEE14genericPublishERKS4_NS_12TransferTypeENS_6NodeIDEPNS_10TransferIDENS_13MonotonicTimeE:0000000000000000 $t
     /tmp/ccFEREDd.s:10155  .text._ZN6uavcan16GenericPublisherINS_8protocol12GetNodeInfo_ENS2_9Response_ILi0EEEE14genericPublishERKS4_NS_12TransferTypeENS_6NodeIDEPNS_10TransferIDENS_13MonotonicTimeE:0000000000000000 _ZN6uavcan16GenericPublisherINS_8protocol12GetNodeInfo_ENS2_9Response_ILi0EEEE14genericPublishERKS4_NS_12TransferTypeENS_6NodeIDEPNS_10TransferIDENS_13MonotonicTimeE
     /tmp/ccFEREDd.s:10327  .text._ZN6uavcan16GenericPublisherINS_8protocol12GetNodeInfo_ENS2_9Response_ILi0EEEE14genericPublishERKS4_NS_12TransferTypeENS_6NodeIDEPNS_10TransferIDENS_13MonotonicTimeE:0000000000000194 $d
     /tmp/ccFEREDd.s:10998  .rodata._ZTVN6uavcan20StaticTransferBufferILt377EEE:0000000000000000 _ZTVN6uavcan20StaticTransferBufferILt377EEE
     /tmp/ccFEREDd.s:10331  .text._ZN6uavcan13ServiceServerINS_8protocol12GetNodeInfo_ENS_12MethodBinderIPNS_18NodeStatusProviderEMS4_FvRKNS2_8Request_ILi0EEERNS2_9Response_ILi0EEEEEEE24handleReceivedDataStructERNS_21ReceivedDataStructureIS7_EE:0000000000000000 $t
     /tmp/ccFEREDd.s:10336  .text._ZN6uavcan13ServiceServerINS_8protocol12GetNodeInfo_ENS_12MethodBinderIPNS_18NodeStatusProviderEMS4_FvRKNS2_8Request_ILi0EEERNS2_9Response_ILi0EEEEEEE24handleReceivedDataStructERNS_21ReceivedDataStructureIS7_EE:0000000000000000 _ZN6uavcan13ServiceServerINS_8protocol12GetNodeInfo_ENS_12MethodBinderIPNS_18NodeStatusProviderEMS4_FvRKNS2_8Request_ILi0EEERNS2_9Response_ILi0EEEEEEE24handleReceivedDataStructERNS_21ReceivedDataStructureIS7_EE
     /tmp/ccFEREDd.s:10408  .text._ZN6uavcan13ServiceServerINS_8protocol12GetNodeInfo_ENS_12MethodBinderIPNS_18NodeStatusProviderEMS4_FvRKNS2_8Request_ILi0EEERNS2_9Response_ILi0EEEEEEE24handleReceivedDataStructERNS_21ReceivedDataStructureIS7_EE:0000000000000094 $d
     /tmp/ccFEREDd.s:10411  .text.startup._GLOBAL__sub_I__ZN4node4LockC2Ev:0000000000000000 $t
     /tmp/ccFEREDd.s:10415  .text.startup._GLOBAL__sub_I__ZN4node4LockC2Ev:0000000000000000 _GLOBAL__sub_I__ZN4node4LockC2Ev
     /tmp/ccFEREDd.s:10466  .text.startup._GLOBAL__sub_I__ZN4node4LockC2Ev:0000000000000068 $d
     /tmp/ccFEREDd.s:11458  .bss._ZGVZN6uavcan22GlobalDataTypeRegistry16registerDataTypeINS_8protocol11NodeStatus_ILi0EEEEENS0_18RegistrationResultENS_10DataTypeIDEE5entry:0000000000000000 _ZGVZN6uavcan22GlobalDataTypeRegistry16registerDataTypeINS_8protocol11NodeStatus_ILi0EEEEENS0_18RegistrationResultENS_10DataTypeIDEE5entry
     /tmp/ccFEREDd.s:10931  .bss._ZZN6uavcan22GlobalDataTypeRegistry16registerDataTypeINS_8protocol11NodeStatus_ILi0EEEEENS0_18RegistrationResultENS_10DataTypeIDEE5entry:0000000000000000 _ZZN6uavcan22GlobalDataTypeRegistry16registerDataTypeINS_8protocol11NodeStatus_ILi0EEEEENS0_18RegistrationResultENS_10DataTypeIDEE5entry
     /tmp/ccFEREDd.s:10475  .text.startup._GLOBAL__sub_I__ZN4node4LockC2Ev:0000000000000088 $t
     /tmp/ccFEREDd.s:10771  .text.startup._GLOBAL__sub_I__ZN4node4LockC2Ev:0000000000000348 $d
     /tmp/ccFEREDd.s:11430  .bss._ZGVZN6uavcan22GlobalDataTypeRegistry16registerDataTypeINS_8protocol12RestartNode_EEENS0_18RegistrationResultENS_10DataTypeIDEE5entry:0000000000000000 _ZGVZN6uavcan22GlobalDataTypeRegistry16registerDataTypeINS_8protocol12RestartNode_EEENS0_18RegistrationResultENS_10DataTypeIDEE5entry
     /tmp/ccFEREDd.s:10903  .bss._ZZN6uavcan22GlobalDataTypeRegistry16registerDataTypeINS_8protocol12RestartNode_EEENS0_18RegistrationResultENS_10DataTypeIDEE5entry:0000000000000000 _ZZN6uavcan22GlobalDataTypeRegistry16registerDataTypeINS_8protocol12RestartNode_EEENS0_18RegistrationResultENS_10DataTypeIDEE5entry
     /tmp/ccFEREDd.s:11416  .bss._ZGVZN6uavcan22GlobalDataTypeRegistry16registerDataTypeINS_8protocol15GlobalTimeSync_ILi0EEEEENS0_18RegistrationResultENS_10DataTypeIDEE5entry:0000000000000000 _ZGVZN6uavcan22GlobalDataTypeRegistry16registerDataTypeINS_8protocol15GlobalTimeSync_ILi0EEEEENS0_18RegistrationResultENS_10DataTypeIDEE5entry
     /tmp/ccFEREDd.s:10889  .bss._ZZN6uavcan22GlobalDataTypeRegistry16registerDataTypeINS_8protocol15GlobalTimeSync_ILi0EEEEENS0_18RegistrationResultENS_10DataTypeIDEE5entry:0000000000000000 _ZZN6uavcan22GlobalDataTypeRegistry16registerDataTypeINS_8protocol15GlobalTimeSync_ILi0EEEEENS0_18RegistrationResultENS_10DataTypeIDEE5entry
     /tmp/ccFEREDd.s:11402  .bss._ZGVZN6uavcan22GlobalDataTypeRegistry16registerDataTypeINS_8protocol5param14ExecuteOpcode_EEENS0_18RegistrationResultENS_10DataTypeIDEE5entry:0000000000000000 _ZGVZN6uavcan22GlobalDataTypeRegistry16registerDataTypeINS_8protocol5param14ExecuteOpcode_EEENS0_18RegistrationResultENS_10DataTypeIDEE5entry
     /tmp/ccFEREDd.s:10875  .bss._ZZN6uavcan22GlobalDataTypeRegistry16registerDataTypeINS_8protocol5param14ExecuteOpcode_EEENS0_18RegistrationResultENS_10DataTypeIDEE5entry:0000000000000000 _ZZN6uavcan22GlobalDataTypeRegistry16registerDataTypeINS_8protocol5param14ExecuteOpcode_EEENS0_18RegistrationResultENS_10DataTypeIDEE5entry
     /tmp/ccFEREDd.s:11395  .bss._ZGVZN6uavcan22GlobalDataTypeRegistry16registerDataTypeINS_8protocol15dynamic_node_id11Allocation_ILi0EEEEENS0_18RegistrationResultENS_10DataTypeIDEE5entry:0000000000000000 _ZGVZN6uavcan22GlobalDataTypeRegistry16registerDataTypeINS_8protocol15dynamic_node_id11Allocation_ILi0EEEEENS0_18RegistrationResultENS_10DataTypeIDEE5entry
     /tmp/ccFEREDd.s:10868  .bss._ZZN6uavcan22GlobalDataTypeRegistry16registerDataTypeINS_8protocol15dynamic_node_id11Allocation_ILi0EEEEENS0_18RegistrationResultENS_10DataTypeIDEE5entry:0000000000000000 _ZZN6uavcan22GlobalDataTypeRegistry16registerDataTypeINS_8protocol15dynamic_node_id11Allocation_ILi0EEEEENS0_18RegistrationResultENS_10DataTypeIDEE5entry
     /tmp/ccFEREDd.s:10820  .text.startup._GLOBAL__sub_I__ZN4node4LockC2Ev:0000000000000408 $t
     /tmp/ccFEREDd.s:10844  .text.startup._GLOBAL__sub_I__ZN4node4LockC2Ev:0000000000000444 $d
     /tmp/ccFEREDd.s:10854  .init_array:0000000000000000 $d
ARM GAS  /tmp/ccFEREDd.s 			page 226


     /tmp/ccFEREDd.s:10858  .bss._ZZN6uavcan22GlobalDataTypeRegistry16registerDataTypeINS_8protocol4file20BeginFirmwareUpdate_EEENS0_18RegistrationResultENS_10DataTypeIDEE5entry:0000000000000000 $d
     /tmp/ccFEREDd.s:10865  .bss._ZZN6uavcan22GlobalDataTypeRegistry16registerDataTypeINS_8protocol15dynamic_node_id11Allocation_ILi0EEEEENS0_18RegistrationResultENS_10DataTypeIDEE5entry:0000000000000000 $d
     /tmp/ccFEREDd.s:10872  .bss._ZZN6uavcan22GlobalDataTypeRegistry16registerDataTypeINS_8protocol5param14ExecuteOpcode_EEENS0_18RegistrationResultENS_10DataTypeIDEE5entry:0000000000000000 $d
     /tmp/ccFEREDd.s:10879  .bss._ZZN6uavcan22GlobalDataTypeRegistry16registerDataTypeINS_8protocol5param7GetSet_EEENS0_18RegistrationResultENS_10DataTypeIDEE5entry:0000000000000000 $d
     /tmp/ccFEREDd.s:10886  .bss._ZZN6uavcan22GlobalDataTypeRegistry16registerDataTypeINS_8protocol15GlobalTimeSync_ILi0EEEEENS0_18RegistrationResultENS_10DataTypeIDEE5entry:0000000000000000 $d
     /tmp/ccFEREDd.s:10893  .bss._ZZN6uavcan22GlobalDataTypeRegistry16registerDataTypeINS_8protocol18GetTransportStats_EEENS0_18RegistrationResultENS_10DataTypeIDEE5entry:0000000000000000 $d
     /tmp/ccFEREDd.s:10900  .bss._ZZN6uavcan22GlobalDataTypeRegistry16registerDataTypeINS_8protocol12RestartNode_EEENS0_18RegistrationResultENS_10DataTypeIDEE5entry:0000000000000000 $d
     /tmp/ccFEREDd.s:10907  .bss._ZZN6uavcan22GlobalDataTypeRegistry16registerDataTypeINS_8protocol5debug11LogMessage_ILi0EEEEENS0_18RegistrationResultENS_10DataTypeIDEE5entry:0000000000000000 $d
     /tmp/ccFEREDd.s:10914  .bss._ZZN6uavcan22GlobalDataTypeRegistry16registerDataTypeINS_8protocol16GetDataTypeInfo_EEENS0_18RegistrationResultENS_10DataTypeIDEE5entry:0000000000000000 $d
     /tmp/ccFEREDd.s:10921  .bss._ZZN6uavcan22GlobalDataTypeRegistry16registerDataTypeINS_8protocol12GetNodeInfo_EEENS0_18RegistrationResultENS_10DataTypeIDEE5entry:0000000000000000 $d
     /tmp/ccFEREDd.s:10928  .bss._ZZN6uavcan22GlobalDataTypeRegistry16registerDataTypeINS_8protocol11NodeStatus_ILi0EEEEENS0_18RegistrationResultENS_10DataTypeIDEE5entry:0000000000000000 $d
     /tmp/ccFEREDd.s:10935  .rodata._ZTVN6uavcan20StaticTransferBufferILt129EEE:0000000000000000 $d
     /tmp/ccFEREDd.s:10947  .rodata._ZTVN6uavcan20StaticTransferBufferILt371EEE:0000000000000000 $d
     /tmp/ccFEREDd.s:10959  .rodata._ZTVN6uavcan20StaticTransferBufferILt73EEE:0000000000000000 $d
     /tmp/ccFEREDd.s:10971  .rodata._ZTVN6uavcan20StaticTransferBufferILt1EEE:0000000000000000 $d
     /tmp/ccFEREDd.s:10983  .rodata._ZTVN6uavcan20StaticTransferBufferILt93EEE:0000000000000000 $d
     /tmp/ccFEREDd.s:10995  .rodata._ZTVN6uavcan20StaticTransferBufferILt377EEE:0000000000000000 $d
     /tmp/ccFEREDd.s:11007  .rodata._ZTVN6uavcan25LoopbackFrameListenerBaseE:0000000000000000 $d
     /tmp/ccFEREDd.s:11018  .rodata._ZTVN6uavcan15DeadlineHandlerE:0000000000000000 $d
     /tmp/ccFEREDd.s:11029  .rodata._ZTVN6uavcan17GenericSubscriberINS_8protocol12GetNodeInfo_ENS2_8Request_ILi0EEENS_16TransferListenerEEE:0000000000000000 $d
     /tmp/ccFEREDd.s:11040  .rodata._ZTVN6uavcan13ServiceServerINS_8protocol12GetNodeInfo_ENS_12MethodBinderIPNS_18NodeStatusProviderEMS4_FvRKNS2_8Request_ILi0EEERNS2_9Response_ILi0EEEEEEEE:0000000000000000 $d
     /tmp/ccFEREDd.s:11051  .rodata._ZTVN6uavcan17GenericSubscriberINS_8protocol16GetDataTypeInfo_ENS2_8Request_ILi0EEENS_16TransferListenerEE17TransferForwarderE:0000000000000000 $d
     /tmp/ccFEREDd.s:11063  .rodata._ZTVN6uavcan17GenericSubscriberINS_8protocol16GetDataTypeInfo_ENS2_8Request_ILi0EEENS_16TransferListenerEEE:0000000000000000 $d
     /tmp/ccFEREDd.s:11074  .rodata._ZTVN6uavcan13ServiceServerINS_8protocol16GetDataTypeInfo_ENS_12MethodBinderIPNS_20DataTypeInfoProviderEMS4_FvRKNS2_8Request_ILi0EEERNS2_9Response_ILi0EEEEEEEE:0000000000000000 $d
     /tmp/ccFEREDd.s:11085  .rodata._ZTVN6uavcan17GenericSubscriberINS_8protocol12RestartNode_ENS2_8Request_ILi0EEENS_16TransferListenerEE17TransferForwarderE:0000000000000000 $d
     /tmp/ccFEREDd.s:11097  .rodata._ZTVN6uavcan17GenericSubscriberINS_8protocol12RestartNode_ENS2_8Request_ILi0EEENS_16TransferListenerEEE:0000000000000000 $d
     /tmp/ccFEREDd.s:11108  .rodata._ZTVN6uavcan13ServiceServerINS_8protocol12RestartNode_ENS_12MethodBinderIPKNS_20RestartRequestServerEMS4_KFvRKNS_21ReceivedDataStructureINS2_8Request_ILi0EEEEERNS2_9Response_ILi0EEEEEEEE:0000000000000000 $d
     /tmp/ccFEREDd.s:11119  .rodata._ZTVN6uavcan17GenericSubscriberINS_8protocol18GetTransportStats_ENS2_8Request_ILi0EEENS_16TransferListenerEE17TransferForwarderE:0000000000000000 $d
     /tmp/ccFEREDd.s:11131  .rodata._ZTVN6uavcan17GenericSubscriberINS_8protocol18GetTransportStats_ENS2_8Request_ILi0EEENS_16TransferListenerEEE:0000000000000000 $d
     /tmp/ccFEREDd.s:11142  .rodata._ZTVN6uavcan13ServiceServerINS_8protocol18GetTransportStats_ENS_12MethodBinderIPKNS_22TransportStatsProviderEMS4_KFvRKNS2_8Request_ILi0EEERNS2_9Response_ILi0EEEEEEEE:0000000000000000 $d
     /tmp/ccFEREDd.s:11153  .rodata._ZTVN6uavcan20GlobalTimeSyncMasterE:0000000000000000 $d
     /tmp/ccFEREDd.s:11164  .rodata._ZTVN6uavcan17GenericSubscriberINS_8protocol15GlobalTimeSync_ILi0EEES3_NS_16TransferListenerEE17TransferForwarderE:0000000000000000 $d
     /tmp/ccFEREDd.s:11176  .rodata._ZTVN6uavcan17GenericSubscriberINS_8protocol15GlobalTimeSync_ILi0EEES3_NS_16TransferListenerEEE:0000000000000000 $d
     /tmp/ccFEREDd.s:11187  .rodata._ZTVN6uavcan10SubscriberINS_8protocol15GlobalTimeSync_ILi0EEENS_12MethodBinderIPNS_19GlobalTimeSyncSlaveEMS5_FvRKNS_21ReceivedDataStructureIS3_EEEEEEE:0000000000000000 $d
     /tmp/ccFEREDd.s:11198  .rodata._ZTVN6uavcan17GenericSubscriberINS_8protocol5param7GetSet_ENS3_8Request_ILi0EEENS_16TransferListenerEE17TransferForwarderE:0000000000000000 $d
     /tmp/ccFEREDd.s:11210  .rodata._ZTVN6uavcan17GenericSubscriberINS_8protocol5param7GetSet_ENS3_8Request_ILi0EEENS_16TransferListenerEEE:0000000000000000 $d
     /tmp/ccFEREDd.s:11221  .rodata._ZTVN6uavcan13ServiceServerINS_8protocol5param7GetSet_ENS_12MethodBinderIPNS_11ParamServerEMS5_FvRKNS3_8Request_ILi0EEERNS3_9Response_ILi0EEEEEEEE:0000000000000000 $d
     /tmp/ccFEREDd.s:11232  .rodata._ZTVN6uavcan17GenericSubscriberINS_8protocol5param14ExecuteOpcode_ENS3_8Request_ILi0EEENS_16TransferListenerEE17TransferForwarderE:0000000000000000 $d
     /tmp/ccFEREDd.s:11244  .rodata._ZTVN6uavcan17GenericSubscriberINS_8protocol5param14ExecuteOpcode_ENS3_8Request_ILi0EEENS_16TransferListenerEEE:0000000000000000 $d
     /tmp/ccFEREDd.s:11255  .rodata._ZTVN6uavcan13ServiceServerINS_8protocol5param14ExecuteOpcode_ENS_12MethodBinderIPNS_11ParamServerEMS5_FvRKNS3_8Request_ILi0EEERNS3_9Response_ILi0EEEEEEEE:0000000000000000 $d
     /tmp/ccFEREDd.s:11266  .rodata._ZTVN6uavcan17GenericSubscriberINS_8protocol15dynamic_node_id11Allocation_ILi0EEES4_NS_16TransferListenerEEE:0000000000000000 $d
     /tmp/ccFEREDd.s:11277  .rodata._ZTVN6uavcan10SubscriberINS_8protocol15dynamic_node_id11Allocation_ILi0EEENS_12MethodBinderIPNS_19DynamicNodeIDClientEMS6_FvRKNS_21ReceivedDataStructureIS4_EEEEEEE:0000000000000000 $d
     /tmp/ccFEREDd.s:11288  .rodata._ZTVN6uavcan13PoolAllocatorILj7168ELh56EcEE:0000000000000000 $d
     /tmp/ccFEREDd.s:11301  .rodata._ZTVN6uavcan4NodeILj7168EEE:0000000000000000 $d
     /tmp/ccFEREDd.s:11315  .rodata._ZTVN6uavcan17GenericSubscriberINS_8protocol4file20BeginFirmwareUpdate_ENS3_8Request_ILi0EEENS_16TransferListenerEE17TransferForwarderE:0000000000000000 $d
     /tmp/ccFEREDd.s:11327  .rodata._ZTVN6uavcan17GenericSubscriberINS_8protocol4file20BeginFirmwareUpdate_ENS3_8Request_ILi0EEENS_16TransferListenerEEE:0000000000000000 $d
     /tmp/ccFEREDd.s:11338  .rodata._ZTVN6uavcan13ServiceServerINS_8protocol4file20BeginFirmwareUpdate_EPFvRKNS_21ReceivedDataStructureINS3_8Request_ILi0EEEEERNS3_9Response_ILi0EEEEEE:0000000000000000 $d
     /tmp/ccFEREDd.s:11349  .rodata._ZTVN6uavcan19TimerEventForwarderISt8functionIFvRKNS_10TimerEventEEEEE:0000000000000000 $d
     /tmp/ccFEREDd.s:11361  .rodata._ZTVN6uavcan20StaticTransferBufferILt123EEE:0000000000000000 $d
     /tmp/ccFEREDd.s:11373  .rodata._ZTVN6uavcan20StaticTransferBufferILt7EEE:0000000000000000 $d
     /tmp/ccFEREDd.s:11385  .bss._ZGVZN6uavcan22GlobalDataTypeRegistry16registerDataTypeINS_8protocol4file20BeginFirmwareUpdate_EEENS0_18RegistrationResultENS_10DataTypeIDEE5entry:0000000000000000 $d
     /tmp/ccFEREDd.s:11392  .bss._ZGVZN6uavcan22GlobalDataTypeRegistry16registerDataTypeINS_8protocol15dynamic_node_id11Allocation_ILi0EEEEENS0_18RegistrationResultENS_10DataTypeIDEE5entry:0000000000000000 $d
     /tmp/ccFEREDd.s:11399  .bss._ZGVZN6uavcan22GlobalDataTypeRegistry16registerDataTypeINS_8protocol5param14ExecuteOpcode_EEENS0_18RegistrationResultENS_10DataTypeIDEE5entry:0000000000000000 $d
     /tmp/ccFEREDd.s:11406  .bss._ZGVZN6uavcan22GlobalDataTypeRegistry16registerDataTypeINS_8protocol5param7GetSet_EEENS0_18RegistrationResultENS_10DataTypeIDEE5entry:0000000000000000 $d
     /tmp/ccFEREDd.s:11413  .bss._ZGVZN6uavcan22GlobalDataTypeRegistry16registerDataTypeINS_8protocol15GlobalTimeSync_ILi0EEEEENS0_18RegistrationResultENS_10DataTypeIDEE5entry:0000000000000000 $d
     /tmp/ccFEREDd.s:11420  .bss._ZGVZN6uavcan22GlobalDataTypeRegistry16registerDataTypeINS_8protocol18GetTransportStats_EEENS0_18RegistrationResultENS_10DataTypeIDEE5entry:0000000000000000 $d
     /tmp/ccFEREDd.s:11427  .bss._ZGVZN6uavcan22GlobalDataTypeRegistry16registerDataTypeINS_8protocol12RestartNode_EEENS0_18RegistrationResultENS_10DataTypeIDEE5entry:0000000000000000 $d
ARM GAS  /tmp/ccFEREDd.s 			page 227


     /tmp/ccFEREDd.s:11434  .bss._ZGVZN6uavcan22GlobalDataTypeRegistry16registerDataTypeINS_8protocol5debug11LogMessage_ILi0EEEEENS0_18RegistrationResultENS_10DataTypeIDEE5entry:0000000000000000 $d
     /tmp/ccFEREDd.s:11441  .bss._ZGVZN6uavcan22GlobalDataTypeRegistry16registerDataTypeINS_8protocol16GetDataTypeInfo_EEENS0_18RegistrationResultENS_10DataTypeIDEE5entry:0000000000000000 $d
     /tmp/ccFEREDd.s:11448  .bss._ZGVZN6uavcan22GlobalDataTypeRegistry16registerDataTypeINS_8protocol12GetNodeInfo_EEENS0_18RegistrationResultENS_10DataTypeIDEE5entry:0000000000000000 $d
     /tmp/ccFEREDd.s:11455  .bss._ZGVZN6uavcan22GlobalDataTypeRegistry16registerDataTypeINS_8protocol11NodeStatus_ILi0EEEEENS0_18RegistrationResultENS_10DataTypeIDEE5entry:0000000000000000 $d
     /tmp/ccFEREDd.s:11461  .bss._ZGVZN4node12_GLOBAL__N_117getTimeSyncMasterEvE6master:0000000000000000 $d
     /tmp/ccFEREDd.s:11465  .bss._ZGVZN4node12_GLOBAL__N_117getTimeSyncMasterEvE6master:0000000000000000 _ZGVZN4node12_GLOBAL__N_117getTimeSyncMasterEvE6master
     /tmp/ccFEREDd.s:11468  .rodata._ZTVN4node12_GLOBAL__N_112ParamManagerE:0000000000000000 $d
     /tmp/ccFEREDd.s:11471  .rodata._ZTVN4node12_GLOBAL__N_112ParamManagerE:0000000000000000 _ZTVN4node12_GLOBAL__N_112ParamManagerE
     /tmp/ccFEREDd.s:11483  .bss._ZN4node12_GLOBAL__N_111node_threadE:0000000000000000 $d
     /tmp/ccFEREDd.s:11487  .bss._ZN4node12_GLOBAL__N_111node_threadE:0000000000000000 _ZN4node12_GLOBAL__N_111node_threadE
     /tmp/ccFEREDd.s:11490  .bss._ZZNK4node12_GLOBAL__N_15._3454initEvE9tsm_timer:0000000000000000 $d
     /tmp/ccFEREDd.s:11494  .bss._ZZNK4node12_GLOBAL__N_15._3454initEvE9tsm_timer:0000000000000000 _ZZNK4node12_GLOBAL__N_15._3454initEvE9tsm_timer
     /tmp/ccFEREDd.s:11497  .bss._ZZN4node12_GLOBAL__N_116getTimeSyncSlaveEvE2ts:0000000000000000 $d
     /tmp/ccFEREDd.s:11501  .bss._ZZN4node12_GLOBAL__N_116getTimeSyncSlaveEvE2ts:0000000000000000 _ZZN4node12_GLOBAL__N_116getTimeSyncSlaveEvE2ts
     /tmp/ccFEREDd.s:11504  .bss._ZN4node12_GLOBAL__N_1L22param_node_status_prioE:0000000000000000 $d
     /tmp/ccFEREDd.s:11508  .bss._ZN4node12_GLOBAL__N_1L22param_node_status_prioE:0000000000000000 _ZN4node12_GLOBAL__N_1L22param_node_status_prioE
     /tmp/ccFEREDd.s:11511  .data._ZN4node12_GLOBAL__N_123restart_request_handlerE:0000000000000000 $d
     /tmp/ccFEREDd.s:11515  .data._ZN4node12_GLOBAL__N_123restart_request_handlerE:0000000000000000 _ZN4node12_GLOBAL__N_123restart_request_handlerE
     /tmp/ccFEREDd.s:11537  .rodata._ZTVN4node12_GLOBAL__N_121RestartRequestHandlerE:0000000000000000 _ZTVN4node12_GLOBAL__N_121RestartRequestHandlerE
     /tmp/ccFEREDd.s:11521  .bss._ZN4node12_GLOBAL__N_18comp_mgrE:0000000000000000 _ZN4node12_GLOBAL__N_18comp_mgrE
     /tmp/ccFEREDd.s:11522  .bss._ZN4node12_GLOBAL__N_18comp_mgrE:0000000000000000 $d
     /tmp/ccFEREDd.s:11524  .rodata._ZZN12uavcan_stm3213CanInitHelperILj32EE4initIZNK4node12_GLOBAL__N_15._34510initCanBusEvEUlvE_EEiT_RmE16StandardBitRates:0000000000000000 $d
     /tmp/ccFEREDd.s:11528  .rodata._ZZN12uavcan_stm3213CanInitHelperILj32EE4initIZNK4node12_GLOBAL__N_15._34510initCanBusEvEUlvE_EEiT_RmE16StandardBitRates:0000000000000000 _ZZN12uavcan_stm3213CanInitHelperILj32EE4initIZNK4node12_GLOBAL__N_15._34510initCanBusEvEUlvE_EEiT_RmE16StandardBitRates
     /tmp/ccFEREDd.s:11534  .rodata._ZTVN4node12_GLOBAL__N_121RestartRequestHandlerE:0000000000000000 $d
     /tmp/ccFEREDd.s:11544  .bss._ZGVZN4node12_GLOBAL__N_128getBeginFirmwareUpdateServerEvE3srv:0000000000000000 $d
     /tmp/ccFEREDd.s:11548  .bss._ZGVZN4node12_GLOBAL__N_128getBeginFirmwareUpdateServerEvE3srv:0000000000000000 _ZGVZN4node12_GLOBAL__N_128getBeginFirmwareUpdateServerEvE3srv
     /tmp/ccFEREDd.s:11551  .data._ZN4node12_GLOBAL__N_113param_managerE:0000000000000000 $d
     /tmp/ccFEREDd.s:11555  .data._ZN4node12_GLOBAL__N_113param_managerE:0000000000000000 _ZN4node12_GLOBAL__N_113param_managerE
     /tmp/ccFEREDd.s:11558  .bss._ZZN4node12_GLOBAL__N_128getBeginFirmwareUpdateServerEvE3srv:0000000000000000 $d
     /tmp/ccFEREDd.s:11562  .bss._ZZN4node12_GLOBAL__N_128getBeginFirmwareUpdateServerEvE3srv:0000000000000000 _ZZN4node12_GLOBAL__N_128getBeginFirmwareUpdateServerEvE3srv
     /tmp/ccFEREDd.s:11568  .bss._ZN4node12_GLOBAL__N_123pending_restart_requestE:0000000000000000 _ZN4node12_GLOBAL__N_123pending_restart_requestE
     /tmp/ccFEREDd.s:11569  .bss._ZN4node12_GLOBAL__N_123pending_restart_requestE:0000000000000000 $d
     /tmp/ccFEREDd.s:11589  .rodata.str1.1:00000000000000e9 .LC9
     /tmp/ccFEREDd.s:11619  .rodata.str1.1:000000000000023c .LC24
     /tmp/ccFEREDd.s:11621  .rodata.str1.1:000000000000023f .LC25
     /tmp/ccFEREDd.s:11668  .bss._ZZN4node12_GLOBAL__N_114getParamServerEvE6server:0000000000000000 $d
     /tmp/ccFEREDd.s:11672  .bss._ZZN4node12_GLOBAL__N_114getParamServerEvE6server:0000000000000000 _ZZN4node12_GLOBAL__N_114getParamServerEvE6server
     /tmp/ccFEREDd.s:11675  .bss._ZZN4node12_GLOBAL__N_117getTimeSyncMasterEvE6master:0000000000000000 $d
     /tmp/ccFEREDd.s:11679  .bss._ZZN4node12_GLOBAL__N_117getTimeSyncMasterEvE6master:0000000000000000 _ZZN4node12_GLOBAL__N_117getTimeSyncMasterEvE6master
     /tmp/ccFEREDd.s:11682  .bss._ZN4node12_GLOBAL__N_1L35param_node_status_pub_interval_usecE:0000000000000000 $d
     /tmp/ccFEREDd.s:11686  .bss._ZN4node12_GLOBAL__N_1L35param_node_status_pub_interval_usecE:0000000000000000 _ZN4node12_GLOBAL__N_1L35param_node_status_pub_interval_usecE
     /tmp/ccFEREDd.s:11692  .bss._ZN4node12_GLOBAL__N_17startedE:0000000000000000 _ZN4node12_GLOBAL__N_17startedE
     /tmp/ccFEREDd.s:11693  .bss._ZN4node12_GLOBAL__N_17startedE:0000000000000000 $d
     /tmp/ccFEREDd.s:11695  .bss._ZN4node12_GLOBAL__N_1L20param_time_sync_prioE:0000000000000000 $d
     /tmp/ccFEREDd.s:11699  .bss._ZN4node12_GLOBAL__N_1L20param_time_sync_prioE:0000000000000000 _ZN4node12_GLOBAL__N_1L20param_time_sync_prioE
     /tmp/ccFEREDd.s:11702  .rodata._ZTVN4node12_GLOBAL__N_15._345E:0000000000000000 $d
     /tmp/ccFEREDd.s:11706  .rodata._ZTVN4node12_GLOBAL__N_15._345E:0000000000000000 _ZTVN4node12_GLOBAL__N_15._345E
     /tmp/ccFEREDd.s:11713  .bss._ZGVZNK4node12_GLOBAL__N_15._3454initEvE9tsm_timer:0000000000000000 $d
     /tmp/ccFEREDd.s:11717  .bss._ZGVZNK4node12_GLOBAL__N_15._3454initEvE9tsm_timer:0000000000000000 _ZGVZNK4node12_GLOBAL__N_15._3454initEvE9tsm_timer
     /tmp/ccFEREDd.s:11720  .bss._ZN4node12_GLOBAL__N_1L27param_time_sync_period_usecE:0000000000000000 $d
     /tmp/ccFEREDd.s:11724  .bss._ZN4node12_GLOBAL__N_1L27param_time_sync_period_usecE:0000000000000000 _ZN4node12_GLOBAL__N_1L27param_time_sync_period_usecE
     /tmp/ccFEREDd.s:11727  .bss._ZN4node12_GLOBAL__N_13canE:0000000000000000 $d
     /tmp/ccFEREDd.s:11731  .bss._ZN4node12_GLOBAL__N_13canE:0000000000000000 _ZN4node12_GLOBAL__N_13canE
     /tmp/ccFEREDd.s:11734  .bss._ZGVZN4node7getNodeEvE4node:0000000000000000 $d
     /tmp/ccFEREDd.s:11738  .bss._ZGVZN4node7getNodeEvE4node:0000000000000000 _ZGVZN4node7getNodeEvE4node
     /tmp/ccFEREDd.s:11744  .bss._ZZN4node12_GLOBAL__N_132handleBeginFirmwareUpdateRequestERKN6uavcan21ReceivedDataStructureINS1_8protocol4file20BeginFirmwareUpdate_8Request_ILi0EEEEERNS5_9Response_ILi0EEEE11in_progress:0000000000000000 _ZZN4node12_GLOBAL__N_132handleBeginFirmwareUpdateRequestERKN6uavcan21ReceivedDataStructureINS1_8protocol4file20BeginFirmwareUpdate_8Request_ILi0EEEEERNS5_9Response_ILi0EEEE11in_progress
     /tmp/ccFEREDd.s:11745  .bss._ZZN4node12_GLOBAL__N_132handleBeginFirmwareUpdateRequestERKN6uavcan21ReceivedDataStructureINS1_8protocol4file20BeginFirmwareUpdate_8Request_ILi0EEEEERNS5_9Response_ILi0EEEE11in_progress:0000000000000000 $d
ARM GAS  /tmp/ccFEREDd.s 			page 228


     /tmp/ccFEREDd.s:11747  .bss._ZN4node12_GLOBAL__N_1L13param_node_idE:0000000000000000 $d
     /tmp/ccFEREDd.s:11751  .bss._ZN4node12_GLOBAL__N_1L13param_node_idE:0000000000000000 _ZN4node12_GLOBAL__N_1L13param_node_idE
     /tmp/ccFEREDd.s:11757  .bss._ZN4node12_GLOBAL__N_117local_utc_updatedE:0000000000000000 _ZN4node12_GLOBAL__N_117local_utc_updatedE
     /tmp/ccFEREDd.s:11758  .bss._ZN4node12_GLOBAL__N_117local_utc_updatedE:0000000000000000 $d
     /tmp/ccFEREDd.s:11760  .bss._ZN4node12_GLOBAL__N_1L17param_can_bitrateE:0000000000000000 $d
     /tmp/ccFEREDd.s:11764  .bss._ZN4node12_GLOBAL__N_1L17param_can_bitrateE:0000000000000000 _ZN4node12_GLOBAL__N_1L17param_can_bitrateE
     /tmp/ccFEREDd.s:11770  .bss._ZN4node12_GLOBAL__N_124time_sync_master_enabledE:0000000000000000 _ZN4node12_GLOBAL__N_124time_sync_master_enabledE
     /tmp/ccFEREDd.s:11771  .bss._ZN4node12_GLOBAL__N_124time_sync_master_enabledE:0000000000000000 $d
     /tmp/ccFEREDd.s:11773  .bss._ZGVZN4node12_GLOBAL__N_116getTimeSyncSlaveEvE2ts:0000000000000000 $d
     /tmp/ccFEREDd.s:11777  .bss._ZGVZN4node12_GLOBAL__N_116getTimeSyncSlaveEvE2ts:0000000000000000 _ZGVZN4node12_GLOBAL__N_116getTimeSyncSlaveEvE2ts
     /tmp/ccFEREDd.s:11780  .bss._ZN4node12_GLOBAL__N_110node_mutexE:0000000000000000 $d
     /tmp/ccFEREDd.s:11784  .bss._ZN4node12_GLOBAL__N_110node_mutexE:0000000000000000 _ZN4node12_GLOBAL__N_110node_mutexE
     /tmp/ccFEREDd.s:11787  .bss._ZN4node12_GLOBAL__N_123active_can_bus_bit_rateE:0000000000000000 $d
     /tmp/ccFEREDd.s:11791  .bss._ZN4node12_GLOBAL__N_123active_can_bus_bit_rateE:0000000000000000 _ZN4node12_GLOBAL__N_123active_can_bus_bit_rateE
     /tmp/ccFEREDd.s:11794  .bss._ZGVZN4node12_GLOBAL__N_114getParamServerEvE6server:0000000000000000 $d
     /tmp/ccFEREDd.s:11798  .bss._ZGVZN4node12_GLOBAL__N_114getParamServerEvE6server:0000000000000000 _ZGVZN4node12_GLOBAL__N_114getParamServerEvE6server
     /tmp/ccFEREDd.s:11801  .bss._ZZN4node7getNodeEvE4node:0000000000000000 $d
     /tmp/ccFEREDd.s:11805  .bss._ZZN4node7getNodeEvE4node:0000000000000000 _ZZN4node7getNodeEvE4node
                           .group:0000000000000000 _ZN6uavcan13PoolAllocatorILj7168ELh56EcED5Ev
                           .group:0000000000000000 _ZN6uavcan22GlobalDataTypeRegistry5EntryD5Ev
                           .group:0000000000000000 _ZN6uavcan20StaticTransferBufferILt123EED5Ev
                           .group:0000000000000000 _ZN6uavcan20StaticTransferBufferILt7EED5Ev
                           .group:0000000000000000 _ZN6uavcan20StaticTransferBufferILt129EED5Ev
                           .group:0000000000000000 _ZN6uavcan20StaticTransferBufferILt371EED5Ev
                           .group:0000000000000000 _ZN6uavcan20StaticTransferBufferILt73EED5Ev
                           .group:0000000000000000 _ZN6uavcan20StaticTransferBufferILt1EED5Ev
                           .group:0000000000000000 _ZN6uavcan20StaticTransferBufferILt93EED5Ev
                           .group:0000000000000000 _ZN6uavcan20StaticTransferBufferILt377EED5Ev
                           .group:0000000000000000 _ZN6uavcan17GenericSubscriberINS_8protocol18GetTransportStats_ENS2_8Request_ILi0EEENS_16TransferListenerEE17TransferForwarderD5Ev
                           .group:0000000000000000 _ZN6uavcan17GenericSubscriberINS_8protocol12RestartNode_ENS2_8Request_ILi0EEENS_16TransferListenerEE17TransferForwarderD5Ev
                           .group:0000000000000000 _ZN6uavcan17GenericSubscriberINS_8protocol16GetDataTypeInfo_ENS2_8Request_ILi0EEENS_16TransferListenerEE17TransferForwarderD5Ev
                           .group:0000000000000000 _ZN6uavcan17GenericSubscriberINS_8protocol15GlobalTimeSync_ILi0EEES3_NS_16TransferListenerEE17TransferForwarderD5Ev
                           .group:0000000000000000 _ZN6uavcan17GenericSubscriberINS_8protocol5param14ExecuteOpcode_ENS3_8Request_ILi0EEENS_16TransferListenerEE17TransferForwarderD5Ev
                           .group:0000000000000000 _ZN6uavcan17GenericSubscriberINS_8protocol5param7GetSet_ENS3_8Request_ILi0EEENS_16TransferListenerEE17TransferForwarderD5Ev
                           .group:0000000000000000 _ZN6uavcan17GenericSubscriberINS_8protocol4file20BeginFirmwareUpdate_ENS3_8Request_ILi0EEENS_16TransferListenerEE17TransferForwarderD5Ev
                           .group:0000000000000000 _ZN6uavcan22GlobalDataTypeRegistry5EntryC5Ev
                           .group:0000000000000000 _ZN6uavcan16TransferListenerC5ERNS_19TransferPerfCounterERKNS_18DataTypeDescriptorEtRNS_14IPoolAllocatorE
                           .group:0000000000000000 _ZN6uavcan20GenericPublisherBaseC5ERNS_5INodeENS_17MonotonicDurationES3_
                           .group:0000000000000000 _ZNSt14_Function_baseD5Ev
                           .group:0000000000000000 _ZN6uavcan19TimerEventForwarderISt8functionIFvRKNS_10TimerEventEEEED5Ev
                           .group:0000000000000000 _ZN6uavcan9TimerBaseC5ERNS_5INodeE
                           .group:0000000000000000 _ZN6uavcan6LoggerC5ERNS_5INodeE
                           .group:0000000000000000 _ZN12uavcan_stm3211MutexLockerD5Ev
                           .group:0000000000000000 _ZN6uavcan8CanFrameC5Ev
                           .group:0000000000000000 _ZN6uavcan20GlobalTimeSyncMasterD5Ev
                           .group:0000000000000000 _ZN6uavcan19DynamicNodeIDClientC5ERNS_5INodeE
                           .group:0000000000000000 _ZN6uavcan8protocol12GetNodeInfo_9Response_ILi0EEC5Ev
                           .group:0000000000000000 _ZN6uavcan18NodeStatusProviderC5ERNS_5INodeE
                           .group:0000000000000000 _ZN12uavcan_stm328CanIfaceD5Ev
                           .group:0000000000000000 _ZN12uavcan_stm3213CanInitHelperILj32EED5Ev
                           .group:0000000000000000 _ZN6uavcan4NodeILj7168EEC5ERNS_10ICanDriverERNS_12ISystemClockE
                           .group:0000000000000000 _ZN6uavcan17GenericSubscriberINS_8protocol12GetNodeInfo_ENS2_8Request_ILi0EEENS_16TransferListenerEED5Ev
                           .group:0000000000000000 _ZN6uavcan13ServiceServerINS_8protocol12GetNodeInfo_ENS_12MethodBinderIPNS_18NodeStatusProviderEMS4_FvRKNS2_8Request_ILi0EEERNS2_9Response_ILi0EEEEEEED5Ev
                           .group:0000000000000000 _ZN6uavcan18NodeStatusProviderD5Ev
                           .group:0000000000000000 _ZN6uavcan17GenericSubscriberINS_8protocol16GetDataTypeInfo_ENS2_8Request_ILi0EEENS_16TransferListenerEED5Ev
                           .group:0000000000000000 _ZN6uavcan13ServiceServerINS_8protocol16GetDataTypeInfo_ENS_12MethodBinderIPNS_20DataTypeInfoProviderEMS4_FvRKNS2_8Request_ILi0EEERNS2_9Response_ILi0EEEEEEED5Ev
                           .group:0000000000000000 _ZN6uavcan17GenericSubscriberINS_8protocol12RestartNode_ENS2_8Request_ILi0EEENS_16TransferListenerEED5Ev
ARM GAS  /tmp/ccFEREDd.s 			page 229


                           .group:0000000000000000 _ZN6uavcan13ServiceServerINS_8protocol12RestartNode_ENS_12MethodBinderIPKNS_20RestartRequestServerEMS4_KFvRKNS_21ReceivedDataStructureINS2_8Request_ILi0EEEEERNS2_9Response_ILi0EEEEEEED5Ev
                           .group:0000000000000000 _ZN6uavcan17GenericSubscriberINS_8protocol18GetTransportStats_ENS2_8Request_ILi0EEENS_16TransferListenerEED5Ev
                           .group:0000000000000000 _ZN6uavcan13ServiceServerINS_8protocol18GetTransportStats_ENS_12MethodBinderIPKNS_22TransportStatsProviderEMS4_KFvRKNS2_8Request_ILi0EEERNS2_9Response_ILi0EEEEEEED5Ev
                           .group:0000000000000000 _ZN6uavcan17GenericSubscriberINS_8protocol15GlobalTimeSync_ILi0EEES3_NS_16TransferListenerEED5Ev
                           .group:0000000000000000 _ZN6uavcan10SubscriberINS_8protocol15GlobalTimeSync_ILi0EEENS_12MethodBinderIPNS_19GlobalTimeSyncSlaveEMS5_FvRKNS_21ReceivedDataStructureIS3_EEEEEED5Ev
                           .group:0000000000000000 _ZN6uavcan19GlobalTimeSyncSlaveD5Ev
                           .group:0000000000000000 _ZN6uavcan17GenericSubscriberINS_8protocol5param7GetSet_ENS3_8Request_ILi0EEENS_16TransferListenerEED5Ev
                           .group:0000000000000000 _ZN6uavcan13ServiceServerINS_8protocol5param7GetSet_ENS_12MethodBinderIPNS_11ParamServerEMS5_FvRKNS3_8Request_ILi0EEERNS3_9Response_ILi0EEEEEEED5Ev
                           .group:0000000000000000 _ZN6uavcan17GenericSubscriberINS_8protocol5param14ExecuteOpcode_ENS3_8Request_ILi0EEENS_16TransferListenerEED5Ev
                           .group:0000000000000000 _ZN6uavcan13ServiceServerINS_8protocol5param14ExecuteOpcode_ENS_12MethodBinderIPNS_11ParamServerEMS5_FvRKNS3_8Request_ILi0EEERNS3_9Response_ILi0EEEEEEED5Ev
                           .group:0000000000000000 _ZN6uavcan11ParamServerD5Ev
                           .group:0000000000000000 _ZN6uavcan17GenericSubscriberINS_8protocol15dynamic_node_id11Allocation_ILi0EEES4_NS_16TransferListenerEED5Ev
                           .group:0000000000000000 _ZN6uavcan10SubscriberINS_8protocol15dynamic_node_id11Allocation_ILi0EEENS_12MethodBinderIPNS_19DynamicNodeIDClientEMS6_FvRKNS_21ReceivedDataStructureIS4_EEEEEED5Ev
                           .group:0000000000000000 _ZN12uavcan_stm329CanDriverC5ILj32EEERA2_AT__NS_9CanRxItemE
                           .group:0000000000000000 _ZN6uavcan17GenericSubscriberINS_8protocol4file20BeginFirmwareUpdate_ENS3_8Request_ILi0EEENS_16TransferListenerEED5Ev
                           .group:0000000000000000 _ZN6uavcan13ServiceServerINS_8protocol4file20BeginFirmwareUpdate_EPFvRKNS_21ReceivedDataStructureINS3_8Request_ILi0EEEEERNS3_9Response_ILi0EEEEED5Ev
                           .group:0000000000000000 _ZN6uavcan4NodeILj7168EED5Ev
                           .group:0000000000000000 _ZN6uavcan19DynamicNodeIDClientD5Ev

UNDEFINED SYMBOLS
_ZdlPv
_ZN6uavcan16TransferListenerD2Ev
chThdCreateStatic
_ZN10chibios_rt10_thd_startEPv
_ZTVN10chibios_rt15ThreadReferenceE
lowsyslog
_ZSt25__throw_bad_function_callv
configErase
configSave
__aeabi_l2f
configSet
__aeabi_f2lz
__aeabi_f2uiz
configGet
memcpy
_ZN6uavcan11ScalarCodec15encodeBytesImplEPhj
__aeabi_fcmpun
__aeabi_fcmpge
__aeabi_fmul
__aeabi_fcmple
configGetDescr
vsnprintf
_ZNK6uavcan17DataTypeSignature13toTransferCRCEv
_ZTVN6uavcan16TransferListenerE
_ZNK6uavcan12CanIOManager20getIfacePerfCountersEh
_ZN6uavcan16handleFatalErrorEPKc
_ZN6uavcan10Dispatcher9setNodeIDENS_6NodeIDE
_ZN6uavcan20GenericPublisherBase12setTxTimeoutENS_17MonotonicDurationE
_ZN6uavcan16TransferPriority7DefaultE
_ZN6uavcan15DeadlineHandler4stopEv
_ZTVN6uavcan9TimerBaseE
_ZN12uavcan_stm325Mutex6unlockEv
_ZN12uavcan_stm325Mutex4lockEv
_ZN6uavcan25LoopbackFrameListenerBase13stopListeningEv
_ZTVN6uavcan19DynamicNodeIDClientE
_ZTVN6uavcan18NodeStatusProviderE
_ZN6uavcan17DataTypeSignature6extendES0_
ARM GAS  /tmp/ccFEREDd.s 			page 230


_ZNK6uavcan10TransferID22computeForwardDistanceES0_
_ZTVN12uavcan_stm328CanIfaceE
_ZTVN12uavcan_stm329CanDriverE
memset
_ZN6uavcan12CanIOManagerC1ERNS_10ICanDriverERNS_14IPoolAllocatorERNS_12ISystemClockEj
_ZN6uavcan6NodeID9BroadcastE
_ZN12uavcan_stm3211SystemClock8instanceEv
__aeabi_atexit
__dso_handle
_ZN12uavcan_stm325clock9adjustUtcEN6uavcan11UtcDurationE
_ZN20bootloader_interface26passParametersToBootloaderEmN6uavcan6NodeIDE
_ZN6uavcan18NodeStatusProvider9setHealthEh
_ZN6uavcan9Scheduler4spinENS_13MonotonicTimeE
_ZN12uavcan_stm325clock12getMonotonicEv
_ZN12uavcan_stm329CanDriver8getIfaceEh
_ZN12uavcan_stm328CanIface11hadActivityEv
_ZN5board9setCANLedEjb
_ZN6uavcan22GlobalDataTypeRegistry6removeEPNS0_5EntryE
_ZN6uavcan22GlobalDataTypeRegistry10registImplEPNS0_5EntryE
_ZN6uavcan21GenericSubscriberBase4stopEPNS_16TransferListenerE
_ZN6uavcan18NodeStatusProvider7setNameERKNS_5ArrayINS_11IntegerSpecILj8ELNS_10SignednessE0ELNS_8CastModeE0EEELNS_9ArrayModeE1ELj80EEE
_ZN20bootloader_interface31makeUavcanSoftwareVersionStructEv
_ZN6uavcan18NodeStatusProvider18setSoftwareVersionERKNS_8protocol16SoftwareVersion_ILi0EEE
_ZN5board12readUniqueIDEPh
_ZN6uavcan18NodeStatusProvider18setHardwareVersionERKNS_8protocol16HardwareVersion_ILi0EEE
_ZN6uavcan22GlobalDataTypeRegistry8instanceEv
_ZNK6uavcan22GlobalDataTypeRegistry4findENS_12DataTypeKindENS_10DataTypeIDE
_ZNK6uavcan22GlobalDataTypeRegistry4findEPKc
_ZNK6uavcan10Dispatcher9hasServerENS_10DataTypeIDE
_ZNK6uavcan10Dispatcher13hasSubscriberENS_10DataTypeIDE
_ZNK6uavcan10Dispatcher12hasPublisherENS_10DataTypeIDE
_ZNK6uavcan20GenericPublisherBase8isInitedEv
_ZN6uavcan20GenericPublisherBase6doInitENS_12DataTypeKindEPKcNS_10CanTxQueue3QosE
_ZNK6uavcan22GlobalDataTypeRegistry4findENS_12DataTypeKindEPKc
_ZN6uavcan25LoopbackFrameListenerBase14startListeningEv
_ZN10chibios_rt16CounterSemaphoreC1El
configNameByIndex
_ZN6uavcan22GlobalDataTypeRegistry6freezeEv
_ZN6uavcan21GenericSubscriberBase12genericStartEPNS_16TransferListenerEMNS_10DispatcherEFbS2_E
_ZN6uavcan20GenericPublisherBase14genericPublishERKNS_24StaticTransferBufferImplENS_12TransferTypeENS_6NodeIDEPNS_10TransferIDENS_13MonotonicTimeE
_ZN6uavcan24OutgoingTransferRegistry14accessOrCreateERKNS_27OutgoingTransferRegistryKeyENS_13MonotonicTimeE
_ZN6uavcan16TransferPriority19OneLowerThanHighestE
_ZN12uavcan_stm325clock11isUtcLockedEv
_ZN6uavcan10CanTxQueueD1Ev
_ZN6uavcan10Dispatcher30registerServiceRequestListenerEPNS_16TransferListenerE
_ZN6uavcan18NodeStatusProvider15startAndPublishENS_16TransferPriorityE
_ZN6uavcan16TransferPriority6LowestE
_ZN6uavcan10Dispatcher23registerMessageListenerEPNS_16TransferListenerE
__aeabi_ui2f
__aeabi_f2d
_ZN12uavcan_stm325clock16getUtcSyncParamsEv
_ZN12uavcan_stm325clock16setUtcSyncParamsERKNS0_13UtcSyncParamsE
_ZN6uavcan18NodeStatusProvider26setStatusPublicationPeriodENS_17MonotonicDurationE
_ZN20bootloader_interface18getInheritedNodeIDEv
_ZN6uavcan19DynamicNodeIDClient5startERKNS_5ArrayINS_11IntegerSpecILj8ELNS_10SignednessE0ELNS_8CastModeE0EEELNS_9ArrayModeE0ELj16EEENS_6NodeIDENS_16TransferPriorityE
usleep
_ZN6uavcan16TransferPriority19OneHigherThanLowestE
ARM GAS  /tmp/ccFEREDd.s 			page 231


_ZN6uavcan9TimerBase13startPeriodicENS_17MonotonicDurationE
_ZN10chibios_rt10BaseThread7setNameEPKc
sleep
_ZN20bootloader_interface25getInheritedCanBusBitRateEv
_ZN12uavcan_stm329CanDriver4initEmNS_8CanIface13OperatingModeE
_ZNK12uavcan_stm328CanIface15isRxBufferEmptyEv
watchdogCreate
sysHaltHook_
port_halt
watchdogReset
_ZN6uavcan18NodeStatusProvider7setModeEh
dbg_panic_msg
_ZN6uavcan11ScalarCodec15decodeBytesImplEPhj
configRegisterParam_
_ZN10chibios_rt5MutexC1Ev
_ZN10chibios_rt10BaseThreadC2Ev
_ZNK6uavcan24StaticTransferBufferImpl4readEjPhj
_ZN6uavcan24StaticTransferBufferImpl5writeEjPKhj
__cxa_pure_virtual
_ZN6uavcan16TransferListener11handleFrameERKNS_7RxFrameE
_ZN6uavcan9TimerBase14handleDeadlineENS_13MonotonicTimeE
_ZN10chibios_rt15ThreadReference4stopEv
