ARM GAS  /tmp/ccFEREDd.s 			page 1


   1              		.syntax unified
   2              		.cpu cortex-m3
   3              		.fpu softvfp
   4              		.eabi_attribute 20, 1
   5              		.eabi_attribute 21, 1
   6              		.eabi_attribute 23, 3
   7              		.eabi_attribute 24, 1
   8              		.eabi_attribute 25, 1
   9              		.eabi_attribute 26, 1
  10              		.eabi_attribute 30, 4
  11              		.eabi_attribute 34, 1
  12              		.eabi_attribute 18, 4
  13              		.thumb
  14              		.file	"node.cpp"
  15              		.section	.text._ZNK6uavcan10ICanDriver8getIfaceEh,"axG",%progbits,_ZNK6uavcan10ICanDriver8getIface
  16              		.align	1
  17              		.weak	_ZNK6uavcan10ICanDriver8getIfaceEh
  18              		.thumb
  19              		.thumb_func
  20              		.type	_ZNK6uavcan10ICanDriver8getIfaceEh, %function
  21              	_ZNK6uavcan10ICanDriver8getIfaceEh:
  22              		@ args = 0, pretend = 0, frame = 0
  23              		@ frame_needed = 0, uses_anonymous_args = 0
  24              		@ link register save eliminated.
  25 0000 0368     		ldr	r3, [r0]
  26 0002 9B68     		ldr	r3, [r3, #8]
  27 0004 1847     		bx	r3
  28              		.size	_ZNK6uavcan10ICanDriver8getIfaceEh, .-_ZNK6uavcan10ICanDriver8getIfaceEh
  29              		.section	.text._ZNK6uavcan13IParamManager22readParamDefaultMaxMinERKNS_5ArrayINS_11IntegerSpecILj8
  30              		.align	1
  31              		.weak	_ZNK6uavcan13IParamManager22readParamDefaultMaxMinERKNS_5ArrayINS_11IntegerSpecILj8ELNS_10Si
  32              		.thumb
  33              		.thumb_func
  34              		.type	_ZNK6uavcan13IParamManager22readParamDefaultMaxMinERKNS_5ArrayINS_11IntegerSpecILj8ELNS_10Si
  35              	_ZNK6uavcan13IParamManager22readParamDefaultMaxMinERKNS_5ArrayINS_11IntegerSpecILj8ELNS_10Signednes
  36              		@ args = 4, pretend = 0, frame = 0
  37              		@ frame_needed = 0, uses_anonymous_args = 0
  38              		@ link register save eliminated.
  39 0000 7047     		bx	lr
  40              		.size	_ZNK6uavcan13IParamManager22readParamDefaultMaxMinERKNS_5ArrayINS_11IntegerSpecILj8ELNS_10Si
  41              		.section	.text._ZN6uavcan13PoolAllocatorILj7168ELh56EcED2Ev,"axG",%progbits,_ZN6uavcan13PoolAlloca
  42              		.align	1
  43              		.weak	_ZN6uavcan13PoolAllocatorILj7168ELh56EcED2Ev
  44              		.thumb
  45              		.thumb_func
  46              		.type	_ZN6uavcan13PoolAllocatorILj7168ELh56EcED2Ev, %function
  47              	_ZN6uavcan13PoolAllocatorILj7168ELh56EcED2Ev:
  48              		@ args = 0, pretend = 0, frame = 0
  49              		@ frame_needed = 0, uses_anonymous_args = 0
  50              		@ link register save eliminated.
  51 0000 7047     		bx	lr
  52              		.size	_ZN6uavcan13PoolAllocatorILj7168ELh56EcED2Ev, .-_ZN6uavcan13PoolAllocatorILj7168ELh56EcED2Ev
  53              		.weak	_ZN6uavcan13PoolAllocatorILj7168ELh56EcED1Ev
  54              		.thumb_set _ZN6uavcan13PoolAllocatorILj7168ELh56EcED1Ev,_ZN6uavcan13PoolAllocatorILj7168ELh56EcED2
  55              		.section	.text._ZN6uavcan22GlobalDataTypeRegistry5EntryD2Ev,"axG",%progbits,_ZN6uavcan22GlobalData
  56              		.align	1
  57              		.weak	_ZN6uavcan22GlobalDataTypeRegistry5EntryD2Ev
ARM GAS  /tmp/ccFEREDd.s 			page 2


  58              		.thumb
  59              		.thumb_func
  60              		.type	_ZN6uavcan22GlobalDataTypeRegistry5EntryD2Ev, %function
  61              	_ZN6uavcan22GlobalDataTypeRegistry5EntryD2Ev:
  62              		@ args = 0, pretend = 0, frame = 0
  63              		@ frame_needed = 0, uses_anonymous_args = 0
  64              		@ link register save eliminated.
  65 0000 7047     		bx	lr
  66              		.size	_ZN6uavcan22GlobalDataTypeRegistry5EntryD2Ev, .-_ZN6uavcan22GlobalDataTypeRegistry5EntryD2Ev
  67              		.weak	_ZN6uavcan22GlobalDataTypeRegistry5EntryD1Ev
  68              		.thumb_set _ZN6uavcan22GlobalDataTypeRegistry5EntryD1Ev,_ZN6uavcan22GlobalDataTypeRegistry5EntryD2
  69              		.section	.text._ZNSt17_Function_handlerIFvRKN6uavcan10TimerEventEEPS4_E9_M_invokeERKSt9_Any_dataS3
  70              		.align	1
  71              		.weak	_ZNSt17_Function_handlerIFvRKN6uavcan10TimerEventEEPS4_E9_M_invokeERKSt9_Any_dataS3_
  72              		.thumb
  73              		.thumb_func
  74              		.type	_ZNSt17_Function_handlerIFvRKN6uavcan10TimerEventEEPS4_E9_M_invokeERKSt9_Any_dataS3_, %funct
  75              	_ZNSt17_Function_handlerIFvRKN6uavcan10TimerEventEEPS4_E9_M_invokeERKSt9_Any_dataS3_:
  76              		@ args = 0, pretend = 0, frame = 0
  77              		@ frame_needed = 0, uses_anonymous_args = 0
  78              		@ link register save eliminated.
  79 0000 0368     		ldr	r3, [r0]
  80 0002 0846     		mov	r0, r1
  81 0004 1847     		bx	r3	@ indirect register sibling call
  82              		.size	_ZNSt17_Function_handlerIFvRKN6uavcan10TimerEventEEPS4_E9_M_invokeERKSt9_Any_dataS3_, .-_ZNS
  83              		.section	.text._ZNSt14_Function_base13_Base_managerIPFvRKN6uavcan10TimerEventEEE10_M_managerERSt9_
  84              		.align	1
  85              		.weak	_ZNSt14_Function_base13_Base_managerIPFvRKN6uavcan10TimerEventEEE10_M_managerERSt9_Any_dataR
  86              		.thumb
  87              		.thumb_func
  88              		.type	_ZNSt14_Function_base13_Base_managerIPFvRKN6uavcan10TimerEventEEE10_M_managerERSt9_Any_dataR
  89              	_ZNSt14_Function_base13_Base_managerIPFvRKN6uavcan10TimerEventEEE10_M_managerERSt9_Any_dataRKS8_St1
  90              		@ args = 0, pretend = 0, frame = 0
  91              		@ frame_needed = 0, uses_anonymous_args = 0
  92              		@ link register save eliminated.
  93 0000 012A     		cmp	r2, #1
  94 0002 02D0     		beq	.L8
  95 0004 022A     		cmp	r2, #2
  96 0006 02D0     		beq	.L9
  97 0008 04E0     		b	.L7
  98              	.L8:
  99 000a 0160     		str	r1, [r0]
 100 000c 02E0     		b	.L7
 101              	.L9:
 102 000e 0B68     		ldr	r3, [r1]
 103 0010 00B1     		cbz	r0, .L7
 104 0012 0360     		str	r3, [r0]
 105              	.L7:
 106 0014 0020     		movs	r0, #0
 107 0016 7047     		bx	lr
 108              		.size	_ZNSt14_Function_base13_Base_managerIPFvRKN6uavcan10TimerEventEEE10_M_managerERSt9_Any_dataR
 109              		.section	.text._ZN6uavcan20StaticTransferBufferILt123EED2Ev,"axG",%progbits,_ZN6uavcan20StaticTran
 110              		.align	1
 111              		.weak	_ZN6uavcan20StaticTransferBufferILt123EED2Ev
 112              		.thumb
 113              		.thumb_func
 114              		.type	_ZN6uavcan20StaticTransferBufferILt123EED2Ev, %function
ARM GAS  /tmp/ccFEREDd.s 			page 3


 115              	_ZN6uavcan20StaticTransferBufferILt123EED2Ev:
 116              		@ args = 0, pretend = 0, frame = 0
 117              		@ frame_needed = 0, uses_anonymous_args = 0
 118              		@ link register save eliminated.
 119 0000 7047     		bx	lr
 120              		.size	_ZN6uavcan20StaticTransferBufferILt123EED2Ev, .-_ZN6uavcan20StaticTransferBufferILt123EED2Ev
 121              		.weak	_ZN6uavcan20StaticTransferBufferILt123EED1Ev
 122              		.thumb_set _ZN6uavcan20StaticTransferBufferILt123EED1Ev,_ZN6uavcan20StaticTransferBufferILt123EED2
 123              		.section	.text._ZN6uavcan20StaticTransferBufferILt7EED2Ev,"axG",%progbits,_ZN6uavcan20StaticTransf
 124              		.align	1
 125              		.weak	_ZN6uavcan20StaticTransferBufferILt7EED2Ev
 126              		.thumb
 127              		.thumb_func
 128              		.type	_ZN6uavcan20StaticTransferBufferILt7EED2Ev, %function
 129              	_ZN6uavcan20StaticTransferBufferILt7EED2Ev:
 130              		@ args = 0, pretend = 0, frame = 0
 131              		@ frame_needed = 0, uses_anonymous_args = 0
 132              		@ link register save eliminated.
 133 0000 7047     		bx	lr
 134              		.size	_ZN6uavcan20StaticTransferBufferILt7EED2Ev, .-_ZN6uavcan20StaticTransferBufferILt7EED2Ev
 135              		.weak	_ZN6uavcan20StaticTransferBufferILt7EED1Ev
 136              		.thumb_set _ZN6uavcan20StaticTransferBufferILt7EED1Ev,_ZN6uavcan20StaticTransferBufferILt7EED2Ev
 137              		.section	.text._ZN4node12_GLOBAL__N_121RestartRequestHandlerD2Ev,"ax",%progbits
 138              		.align	1
 139              		.thumb
 140              		.thumb_func
 141              		.type	_ZN4node12_GLOBAL__N_121RestartRequestHandlerD2Ev, %function
 142              	_ZN4node12_GLOBAL__N_121RestartRequestHandlerD2Ev:
 143              		@ args = 0, pretend = 0, frame = 0
 144              		@ frame_needed = 0, uses_anonymous_args = 0
 145              		@ link register save eliminated.
 146 0000 7047     		bx	lr
 147              		.size	_ZN4node12_GLOBAL__N_121RestartRequestHandlerD2Ev, .-_ZN4node12_GLOBAL__N_121RestartRequestH
 148              		.thumb_set _ZN4node12_GLOBAL__N_121RestartRequestHandlerD1Ev,_ZN4node12_GLOBAL__N_121RestartReques
 149              		.section	.text._ZN4node12_GLOBAL__N_112ParamManagerD2Ev,"ax",%progbits
 150              		.align	1
 151              		.thumb
 152              		.thumb_func
 153              		.type	_ZN4node12_GLOBAL__N_112ParamManagerD2Ev, %function
 154              	_ZN4node12_GLOBAL__N_112ParamManagerD2Ev:
 155              		@ args = 0, pretend = 0, frame = 0
 156              		@ frame_needed = 0, uses_anonymous_args = 0
 157              		@ link register save eliminated.
 158 0000 7047     		bx	lr
 159              		.size	_ZN4node12_GLOBAL__N_112ParamManagerD2Ev, .-_ZN4node12_GLOBAL__N_112ParamManagerD2Ev
 160              		.thumb_set _ZN4node12_GLOBAL__N_112ParamManagerD1Ev,_ZN4node12_GLOBAL__N_112ParamManagerD2Ev
 161              		.section	.text._ZN4node12_GLOBAL__N_15._345D2Ev,"ax",%progbits
 162              		.align	1
 163              		.thumb
 164              		.thumb_func
 165              		.type	_ZN4node12_GLOBAL__N_15._345D2Ev, %function
 166              	_ZN4node12_GLOBAL__N_15._345D2Ev:
 167              		@ args = 0, pretend = 0, frame = 0
 168              		@ frame_needed = 0, uses_anonymous_args = 0
 169              		@ link register save eliminated.
 170 0000 7047     		bx	lr
 171              		.size	_ZN4node12_GLOBAL__N_15._345D2Ev, .-_ZN4node12_GLOBAL__N_15._345D2Ev
ARM GAS  /tmp/ccFEREDd.s 			page 4


 172              		.thumb_set _ZN4node12_GLOBAL__N_15._345D1Ev,_ZN4node12_GLOBAL__N_15._345D2Ev
 173              		.section	.text._ZN6uavcan4NodeILj7168EE12getAllocatorEv,"axG",%progbits,_ZN6uavcan4NodeILj7168EE12
 174              		.align	1
 175              		.weak	_ZN6uavcan4NodeILj7168EE12getAllocatorEv
 176              		.thumb
 177              		.thumb_func
 178              		.type	_ZN6uavcan4NodeILj7168EE12getAllocatorEv, %function
 179              	_ZN6uavcan4NodeILj7168EE12getAllocatorEv:
 180              		@ args = 0, pretend = 0, frame = 0
 181              		@ frame_needed = 0, uses_anonymous_args = 0
 182              		@ link register save eliminated.
 183 0000 0830     		adds	r0, r0, #8
 184 0002 7047     		bx	lr
 185              		.size	_ZN6uavcan4NodeILj7168EE12getAllocatorEv, .-_ZN6uavcan4NodeILj7168EE12getAllocatorEv
 186              		.section	.text._ZN6uavcan4NodeILj7168EE12getSchedulerEv,"axG",%progbits,_ZN6uavcan4NodeILj7168EE12
 187              		.align	1
 188              		.weak	_ZN6uavcan4NodeILj7168EE12getSchedulerEv
 189              		.thumb
 190              		.thumb_func
 191              		.type	_ZN6uavcan4NodeILj7168EE12getSchedulerEv, %function
 192              	_ZN6uavcan4NodeILj7168EE12getSchedulerEv:
 193              		@ args = 0, pretend = 0, frame = 0
 194              		@ frame_needed = 0, uses_anonymous_args = 0
 195              		@ link register save eliminated.
 196 0000 00F5E050 		add	r0, r0, #7168
 197 0004 1830     		adds	r0, r0, #24
 198 0006 7047     		bx	lr
 199              		.size	_ZN6uavcan4NodeILj7168EE12getSchedulerEv, .-_ZN6uavcan4NodeILj7168EE12getSchedulerEv
 200              		.section	.text._ZNK6uavcan4NodeILj7168EE12getSchedulerEv,"axG",%progbits,_ZNK6uavcan4NodeILj7168EE
 201              		.align	1
 202              		.weak	_ZNK6uavcan4NodeILj7168EE12getSchedulerEv
 203              		.thumb
 204              		.thumb_func
 205              		.type	_ZNK6uavcan4NodeILj7168EE12getSchedulerEv, %function
 206              	_ZNK6uavcan4NodeILj7168EE12getSchedulerEv:
 207              		@ args = 0, pretend = 0, frame = 0
 208              		@ frame_needed = 0, uses_anonymous_args = 0
 209              		@ link register save eliminated.
 210 0000 00F5E050 		add	r0, r0, #7168
 211 0004 1830     		adds	r0, r0, #24
 212 0006 7047     		bx	lr
 213              		.size	_ZNK6uavcan4NodeILj7168EE12getSchedulerEv, .-_ZNK6uavcan4NodeILj7168EE12getSchedulerEv
 214              		.section	.text._ZN6uavcan13PoolAllocatorILj7168ELh56EcE8allocateEj,"axG",%progbits,_ZN6uavcan13Poo
 215              		.align	1
 216              		.weak	_ZN6uavcan13PoolAllocatorILj7168ELh56EcE8allocateEj
 217              		.thumb
 218              		.thumb_func
 219              		.type	_ZN6uavcan13PoolAllocatorILj7168ELh56EcE8allocateEj, %function
 220              	_ZN6uavcan13PoolAllocatorILj7168ELh56EcE8allocateEj:
 221              		@ args = 0, pretend = 0, frame = 0
 222              		@ frame_needed = 0, uses_anonymous_args = 0
 223 0000 4368     		ldr	r3, [r0, #4]
 224 0002 10B5     		push	{r4, lr}
 225 0004 93B1     		cbz	r3, .L26
 226 0006 3829     		cmp	r1, #56
 227 0008 0ED8     		bhi	.L25
 228 000a 41F60841 		movw	r1, #7176
ARM GAS  /tmp/ccFEREDd.s 			page 5


 229 000e 1A68     		ldr	r2, [r3]
 230 0010 4260     		str	r2, [r0, #4]
 231 0012 425A     		ldrh	r2, [r0, r1]
 232 0014 0132     		adds	r2, r2, #1
 233 0016 92B2     		uxth	r2, r2
 234 0018 4252     		strh	r2, [r0, r1]	@ movhi
 235 001a 41F60A41 		movw	r1, #7178
 236 001e 445A     		ldrh	r4, [r0, r1]
 237 0020 9442     		cmp	r4, r2
 238 0022 03D2     		bcs	.L26
 239 0024 4252     		strh	r2, [r0, r1]	@ movhi
 240 0026 01E0     		b	.L26
 241              	.L25:
 242 0028 0020     		movs	r0, #0
 243 002a 10BD     		pop	{r4, pc}
 244              	.L26:
 245 002c 1846     		mov	r0, r3
 246 002e 10BD     		pop	{r4, pc}
 247              		.size	_ZN6uavcan13PoolAllocatorILj7168ELh56EcE8allocateEj, .-_ZN6uavcan13PoolAllocatorILj7168ELh56
 248              		.section	.text._ZN6uavcan13PoolAllocatorILj7168ELh56EcE10deallocateEPKv,"axG",%progbits,_ZN6uavcan
 249              		.align	1
 250              		.weak	_ZN6uavcan13PoolAllocatorILj7168ELh56EcE10deallocateEPKv
 251              		.thumb
 252              		.thumb_func
 253              		.type	_ZN6uavcan13PoolAllocatorILj7168ELh56EcE10deallocateEPKv, %function
 254              	_ZN6uavcan13PoolAllocatorILj7168ELh56EcE10deallocateEPKv:
 255              		@ args = 0, pretend = 0, frame = 0
 256              		@ frame_needed = 0, uses_anonymous_args = 0
 257              		@ link register save eliminated.
 258 0000 39B1     		cbz	r1, .L27
 259 0002 41F60842 		movw	r2, #7176
 260 0006 4368     		ldr	r3, [r0, #4]
 261 0008 0B60     		str	r3, [r1]
 262 000a 835A     		ldrh	r3, [r0, r2]
 263 000c 4160     		str	r1, [r0, #4]
 264 000e 013B     		subs	r3, r3, #1
 265 0010 8352     		strh	r3, [r0, r2]	@ movhi
 266              	.L27:
 267 0012 7047     		bx	lr
 268              		.size	_ZN6uavcan13PoolAllocatorILj7168ELh56EcE10deallocateEPKv, .-_ZN6uavcan13PoolAllocatorILj7168
 269              		.section	.text._ZNK6uavcan13PoolAllocatorILj7168ELh56EcE16getBlockCapacityEv,"axG",%progbits,_ZNK6
 270              		.align	1
 271              		.weak	_ZNK6uavcan13PoolAllocatorILj7168ELh56EcE16getBlockCapacityEv
 272              		.thumb
 273              		.thumb_func
 274              		.type	_ZNK6uavcan13PoolAllocatorILj7168ELh56EcE16getBlockCapacityEv, %function
 275              	_ZNK6uavcan13PoolAllocatorILj7168ELh56EcE16getBlockCapacityEv:
 276              		@ args = 0, pretend = 0, frame = 0
 277              		@ frame_needed = 0, uses_anonymous_args = 0
 278              		@ link register save eliminated.
 279 0000 8020     		movs	r0, #128
 280 0002 7047     		bx	lr
 281              		.size	_ZNK6uavcan13PoolAllocatorILj7168ELh56EcE16getBlockCapacityEv, .-_ZNK6uavcan13PoolAllocatorI
 282              		.section	.text._ZN6uavcan17GenericSubscriberINS_8protocol18GetTransportStats_ENS2_8Request_ILi0EEE
 283              		.align	1
 284              		.weak	_ZN6uavcan17GenericSubscriberINS_8protocol18GetTransportStats_ENS2_8Request_ILi0EEENS_16Tran
 285              		.thumb
ARM GAS  /tmp/ccFEREDd.s 			page 6


 286              		.thumb_func
 287              		.type	_ZN6uavcan17GenericSubscriberINS_8protocol18GetTransportStats_ENS2_8Request_ILi0EEENS_16Tran
 288              	_ZN6uavcan17GenericSubscriberINS_8protocol18GetTransportStats_ENS2_8Request_ILi0EEENS_16TransferLis
 289              		@ args = 0, pretend = 0, frame = 8
 290              		@ frame_needed = 0, uses_anonymous_args = 0
 291 0000 37B5     		push	{r0, r1, r2, r4, r5, lr}
 292 0002 0B68     		ldr	r3, [r1]
 293 0004 856A     		ldr	r5, [r0, #40]
 294 0006 02AC     		add	r4, sp, #8
 295 0008 44F8041D 		str	r1, [r4, #-4]!
 296 000c 0846     		mov	r0, r1
 297 000e 1B69     		ldr	r3, [r3, #16]
 298 0010 9847     		blx	r3
 299 0012 2B68     		ldr	r3, [r5]
 300 0014 2846     		mov	r0, r5
 301 0016 9B68     		ldr	r3, [r3, #8]
 302 0018 2146     		mov	r1, r4
 303 001a 9847     		blx	r3
 304 001c 03B0     		add	sp, sp, #12
 305              		@ sp needed
 306 001e 30BD     		pop	{r4, r5, pc}
 307              		.size	_ZN6uavcan17GenericSubscriberINS_8protocol18GetTransportStats_ENS2_8Request_ILi0EEENS_16Tran
 308              		.section	.text._ZN6uavcan20StaticTransferBufferILt129EED2Ev,"axG",%progbits,_ZN6uavcan20StaticTran
 309              		.align	1
 310              		.weak	_ZN6uavcan20StaticTransferBufferILt129EED2Ev
 311              		.thumb
 312              		.thumb_func
 313              		.type	_ZN6uavcan20StaticTransferBufferILt129EED2Ev, %function
 314              	_ZN6uavcan20StaticTransferBufferILt129EED2Ev:
 315              		@ args = 0, pretend = 0, frame = 0
 316              		@ frame_needed = 0, uses_anonymous_args = 0
 317              		@ link register save eliminated.
 318 0000 7047     		bx	lr
 319              		.size	_ZN6uavcan20StaticTransferBufferILt129EED2Ev, .-_ZN6uavcan20StaticTransferBufferILt129EED2Ev
 320              		.weak	_ZN6uavcan20StaticTransferBufferILt129EED1Ev
 321              		.thumb_set _ZN6uavcan20StaticTransferBufferILt129EED1Ev,_ZN6uavcan20StaticTransferBufferILt129EED2
 322              		.section	.text._ZN6uavcan20StaticTransferBufferILt371EED2Ev,"axG",%progbits,_ZN6uavcan20StaticTran
 323              		.align	1
 324              		.weak	_ZN6uavcan20StaticTransferBufferILt371EED2Ev
 325              		.thumb
 326              		.thumb_func
 327              		.type	_ZN6uavcan20StaticTransferBufferILt371EED2Ev, %function
 328              	_ZN6uavcan20StaticTransferBufferILt371EED2Ev:
 329              		@ args = 0, pretend = 0, frame = 0
 330              		@ frame_needed = 0, uses_anonymous_args = 0
 331              		@ link register save eliminated.
 332 0000 7047     		bx	lr
 333              		.size	_ZN6uavcan20StaticTransferBufferILt371EED2Ev, .-_ZN6uavcan20StaticTransferBufferILt371EED2Ev
 334              		.weak	_ZN6uavcan20StaticTransferBufferILt371EED1Ev
 335              		.thumb_set _ZN6uavcan20StaticTransferBufferILt371EED1Ev,_ZN6uavcan20StaticTransferBufferILt371EED2
 336              		.section	.text._ZN6uavcan20StaticTransferBufferILt73EED2Ev,"axG",%progbits,_ZN6uavcan20StaticTrans
 337              		.align	1
 338              		.weak	_ZN6uavcan20StaticTransferBufferILt73EED2Ev
 339              		.thumb
 340              		.thumb_func
 341              		.type	_ZN6uavcan20StaticTransferBufferILt73EED2Ev, %function
 342              	_ZN6uavcan20StaticTransferBufferILt73EED2Ev:
ARM GAS  /tmp/ccFEREDd.s 			page 7


 343              		@ args = 0, pretend = 0, frame = 0
 344              		@ frame_needed = 0, uses_anonymous_args = 0
 345              		@ link register save eliminated.
 346 0000 7047     		bx	lr
 347              		.size	_ZN6uavcan20StaticTransferBufferILt73EED2Ev, .-_ZN6uavcan20StaticTransferBufferILt73EED2Ev
 348              		.weak	_ZN6uavcan20StaticTransferBufferILt73EED1Ev
 349              		.thumb_set _ZN6uavcan20StaticTransferBufferILt73EED1Ev,_ZN6uavcan20StaticTransferBufferILt73EED2Ev
 350              		.section	.text._ZN6uavcan20StaticTransferBufferILt1EED2Ev,"axG",%progbits,_ZN6uavcan20StaticTransf
 351              		.align	1
 352              		.weak	_ZN6uavcan20StaticTransferBufferILt1EED2Ev
 353              		.thumb
 354              		.thumb_func
 355              		.type	_ZN6uavcan20StaticTransferBufferILt1EED2Ev, %function
 356              	_ZN6uavcan20StaticTransferBufferILt1EED2Ev:
 357              		@ args = 0, pretend = 0, frame = 0
 358              		@ frame_needed = 0, uses_anonymous_args = 0
 359              		@ link register save eliminated.
 360 0000 7047     		bx	lr
 361              		.size	_ZN6uavcan20StaticTransferBufferILt1EED2Ev, .-_ZN6uavcan20StaticTransferBufferILt1EED2Ev
 362              		.weak	_ZN6uavcan20StaticTransferBufferILt1EED1Ev
 363              		.thumb_set _ZN6uavcan20StaticTransferBufferILt1EED1Ev,_ZN6uavcan20StaticTransferBufferILt1EED2Ev
 364              		.section	.text._ZN6uavcan20StaticTransferBufferILt93EED2Ev,"axG",%progbits,_ZN6uavcan20StaticTrans
 365              		.align	1
 366              		.weak	_ZN6uavcan20StaticTransferBufferILt93EED2Ev
 367              		.thumb
 368              		.thumb_func
 369              		.type	_ZN6uavcan20StaticTransferBufferILt93EED2Ev, %function
 370              	_ZN6uavcan20StaticTransferBufferILt93EED2Ev:
 371              		@ args = 0, pretend = 0, frame = 0
 372              		@ frame_needed = 0, uses_anonymous_args = 0
 373              		@ link register save eliminated.
 374 0000 7047     		bx	lr
 375              		.size	_ZN6uavcan20StaticTransferBufferILt93EED2Ev, .-_ZN6uavcan20StaticTransferBufferILt93EED2Ev
 376              		.weak	_ZN6uavcan20StaticTransferBufferILt93EED1Ev
 377              		.thumb_set _ZN6uavcan20StaticTransferBufferILt93EED1Ev,_ZN6uavcan20StaticTransferBufferILt93EED2Ev
 378              		.section	.text._ZN6uavcan20StaticTransferBufferILt377EED2Ev,"axG",%progbits,_ZN6uavcan20StaticTran
 379              		.align	1
 380              		.weak	_ZN6uavcan20StaticTransferBufferILt377EED2Ev
 381              		.thumb
 382              		.thumb_func
 383              		.type	_ZN6uavcan20StaticTransferBufferILt377EED2Ev, %function
 384              	_ZN6uavcan20StaticTransferBufferILt377EED2Ev:
 385              		@ args = 0, pretend = 0, frame = 0
 386              		@ frame_needed = 0, uses_anonymous_args = 0
 387              		@ link register save eliminated.
 388 0000 7047     		bx	lr
 389              		.size	_ZN6uavcan20StaticTransferBufferILt377EED2Ev, .-_ZN6uavcan20StaticTransferBufferILt377EED2Ev
 390              		.weak	_ZN6uavcan20StaticTransferBufferILt377EED1Ev
 391              		.thumb_set _ZN6uavcan20StaticTransferBufferILt377EED1Ev,_ZN6uavcan20StaticTransferBufferILt377EED2
 392              		.section	.text._ZN6uavcan20StaticTransferBufferILt123EED0Ev,"axG",%progbits,_ZN6uavcan20StaticTran
 393              		.align	1
 394              		.weak	_ZN6uavcan20StaticTransferBufferILt123EED0Ev
 395              		.thumb
 396              		.thumb_func
 397              		.type	_ZN6uavcan20StaticTransferBufferILt123EED0Ev, %function
 398              	_ZN6uavcan20StaticTransferBufferILt123EED0Ev:
 399              		@ args = 0, pretend = 0, frame = 0
ARM GAS  /tmp/ccFEREDd.s 			page 8


 400              		@ frame_needed = 0, uses_anonymous_args = 0
 401 0000 10B5     		push	{r4, lr}
 402 0002 0446     		mov	r4, r0
 403 0004 FFF7FEFF 		bl	_ZdlPv
 404 0008 2046     		mov	r0, r4
 405 000a 10BD     		pop	{r4, pc}
 406              		.size	_ZN6uavcan20StaticTransferBufferILt123EED0Ev, .-_ZN6uavcan20StaticTransferBufferILt123EED0Ev
 407              		.section	.text._ZN6uavcan20StaticTransferBufferILt73EED0Ev,"axG",%progbits,_ZN6uavcan20StaticTrans
 408              		.align	1
 409              		.weak	_ZN6uavcan20StaticTransferBufferILt73EED0Ev
 410              		.thumb
 411              		.thumb_func
 412              		.type	_ZN6uavcan20StaticTransferBufferILt73EED0Ev, %function
 413              	_ZN6uavcan20StaticTransferBufferILt73EED0Ev:
 414              		@ args = 0, pretend = 0, frame = 0
 415              		@ frame_needed = 0, uses_anonymous_args = 0
 416 0000 10B5     		push	{r4, lr}
 417 0002 0446     		mov	r4, r0
 418 0004 FFF7FEFF 		bl	_ZdlPv
 419 0008 2046     		mov	r0, r4
 420 000a 10BD     		pop	{r4, pc}
 421              		.size	_ZN6uavcan20StaticTransferBufferILt73EED0Ev, .-_ZN6uavcan20StaticTransferBufferILt73EED0Ev
 422              		.section	.text._ZN6uavcan20StaticTransferBufferILt1EED0Ev,"axG",%progbits,_ZN6uavcan20StaticTransf
 423              		.align	1
 424              		.weak	_ZN6uavcan20StaticTransferBufferILt1EED0Ev
 425              		.thumb
 426              		.thumb_func
 427              		.type	_ZN6uavcan20StaticTransferBufferILt1EED0Ev, %function
 428              	_ZN6uavcan20StaticTransferBufferILt1EED0Ev:
 429              		@ args = 0, pretend = 0, frame = 0
 430              		@ frame_needed = 0, uses_anonymous_args = 0
 431 0000 10B5     		push	{r4, lr}
 432 0002 0446     		mov	r4, r0
 433 0004 FFF7FEFF 		bl	_ZdlPv
 434 0008 2046     		mov	r0, r4
 435 000a 10BD     		pop	{r4, pc}
 436              		.size	_ZN6uavcan20StaticTransferBufferILt1EED0Ev, .-_ZN6uavcan20StaticTransferBufferILt1EED0Ev
 437              		.section	.text._ZN6uavcan20StaticTransferBufferILt93EED0Ev,"axG",%progbits,_ZN6uavcan20StaticTrans
 438              		.align	1
 439              		.weak	_ZN6uavcan20StaticTransferBufferILt93EED0Ev
 440              		.thumb
 441              		.thumb_func
 442              		.type	_ZN6uavcan20StaticTransferBufferILt93EED0Ev, %function
 443              	_ZN6uavcan20StaticTransferBufferILt93EED0Ev:
 444              		@ args = 0, pretend = 0, frame = 0
 445              		@ frame_needed = 0, uses_anonymous_args = 0
 446 0000 10B5     		push	{r4, lr}
 447 0002 0446     		mov	r4, r0
 448 0004 FFF7FEFF 		bl	_ZdlPv
 449 0008 2046     		mov	r0, r4
 450 000a 10BD     		pop	{r4, pc}
 451              		.size	_ZN6uavcan20StaticTransferBufferILt93EED0Ev, .-_ZN6uavcan20StaticTransferBufferILt93EED0Ev
 452              		.section	.text._ZN6uavcan20StaticTransferBufferILt377EED0Ev,"axG",%progbits,_ZN6uavcan20StaticTran
 453              		.align	1
 454              		.weak	_ZN6uavcan20StaticTransferBufferILt377EED0Ev
 455              		.thumb
 456              		.thumb_func
ARM GAS  /tmp/ccFEREDd.s 			page 9


 457              		.type	_ZN6uavcan20StaticTransferBufferILt377EED0Ev, %function
 458              	_ZN6uavcan20StaticTransferBufferILt377EED0Ev:
 459              		@ args = 0, pretend = 0, frame = 0
 460              		@ frame_needed = 0, uses_anonymous_args = 0
 461 0000 10B5     		push	{r4, lr}
 462 0002 0446     		mov	r4, r0
 463 0004 FFF7FEFF 		bl	_ZdlPv
 464 0008 2046     		mov	r0, r4
 465 000a 10BD     		pop	{r4, pc}
 466              		.size	_ZN6uavcan20StaticTransferBufferILt377EED0Ev, .-_ZN6uavcan20StaticTransferBufferILt377EED0Ev
 467              		.section	.text._ZN6uavcan20StaticTransferBufferILt7EED0Ev,"axG",%progbits,_ZN6uavcan20StaticTransf
 468              		.align	1
 469              		.weak	_ZN6uavcan20StaticTransferBufferILt7EED0Ev
 470              		.thumb
 471              		.thumb_func
 472              		.type	_ZN6uavcan20StaticTransferBufferILt7EED0Ev, %function
 473              	_ZN6uavcan20StaticTransferBufferILt7EED0Ev:
 474              		@ args = 0, pretend = 0, frame = 0
 475              		@ frame_needed = 0, uses_anonymous_args = 0
 476 0000 10B5     		push	{r4, lr}
 477 0002 0446     		mov	r4, r0
 478 0004 FFF7FEFF 		bl	_ZdlPv
 479 0008 2046     		mov	r0, r4
 480 000a 10BD     		pop	{r4, pc}
 481              		.size	_ZN6uavcan20StaticTransferBufferILt7EED0Ev, .-_ZN6uavcan20StaticTransferBufferILt7EED0Ev
 482              		.section	.text._ZN6uavcan20StaticTransferBufferILt371EED0Ev,"axG",%progbits,_ZN6uavcan20StaticTran
 483              		.align	1
 484              		.weak	_ZN6uavcan20StaticTransferBufferILt371EED0Ev
 485              		.thumb
 486              		.thumb_func
 487              		.type	_ZN6uavcan20StaticTransferBufferILt371EED0Ev, %function
 488              	_ZN6uavcan20StaticTransferBufferILt371EED0Ev:
 489              		@ args = 0, pretend = 0, frame = 0
 490              		@ frame_needed = 0, uses_anonymous_args = 0
 491 0000 10B5     		push	{r4, lr}
 492 0002 0446     		mov	r4, r0
 493 0004 FFF7FEFF 		bl	_ZdlPv
 494 0008 2046     		mov	r0, r4
 495 000a 10BD     		pop	{r4, pc}
 496              		.size	_ZN6uavcan20StaticTransferBufferILt371EED0Ev, .-_ZN6uavcan20StaticTransferBufferILt371EED0Ev
 497              		.section	.text._ZN6uavcan20StaticTransferBufferILt129EED0Ev,"axG",%progbits,_ZN6uavcan20StaticTran
 498              		.align	1
 499              		.weak	_ZN6uavcan20StaticTransferBufferILt129EED0Ev
 500              		.thumb
 501              		.thumb_func
 502              		.type	_ZN6uavcan20StaticTransferBufferILt129EED0Ev, %function
 503              	_ZN6uavcan20StaticTransferBufferILt129EED0Ev:
 504              		@ args = 0, pretend = 0, frame = 0
 505              		@ frame_needed = 0, uses_anonymous_args = 0
 506 0000 10B5     		push	{r4, lr}
 507 0002 0446     		mov	r4, r0
 508 0004 FFF7FEFF 		bl	_ZdlPv
 509 0008 2046     		mov	r0, r4
 510 000a 10BD     		pop	{r4, pc}
 511              		.size	_ZN6uavcan20StaticTransferBufferILt129EED0Ev, .-_ZN6uavcan20StaticTransferBufferILt129EED0Ev
 512              		.section	.text._ZN6uavcan13PoolAllocatorILj7168ELh56EcED0Ev,"axG",%progbits,_ZN6uavcan13PoolAlloca
 513              		.align	1
ARM GAS  /tmp/ccFEREDd.s 			page 10


 514              		.weak	_ZN6uavcan13PoolAllocatorILj7168ELh56EcED0Ev
 515              		.thumb
 516              		.thumb_func
 517              		.type	_ZN6uavcan13PoolAllocatorILj7168ELh56EcED0Ev, %function
 518              	_ZN6uavcan13PoolAllocatorILj7168ELh56EcED0Ev:
 519              		@ args = 0, pretend = 0, frame = 0
 520              		@ frame_needed = 0, uses_anonymous_args = 0
 521 0000 10B5     		push	{r4, lr}
 522 0002 0446     		mov	r4, r0
 523 0004 FFF7FEFF 		bl	_ZdlPv
 524 0008 2046     		mov	r0, r4
 525 000a 10BD     		pop	{r4, pc}
 526              		.size	_ZN6uavcan13PoolAllocatorILj7168ELh56EcED0Ev, .-_ZN6uavcan13PoolAllocatorILj7168ELh56EcED0Ev
 527              		.section	.text._ZN4node12_GLOBAL__N_121RestartRequestHandlerD0Ev,"ax",%progbits
 528              		.align	1
 529              		.thumb
 530              		.thumb_func
 531              		.type	_ZN4node12_GLOBAL__N_121RestartRequestHandlerD0Ev, %function
 532              	_ZN4node12_GLOBAL__N_121RestartRequestHandlerD0Ev:
 533              		@ args = 0, pretend = 0, frame = 0
 534              		@ frame_needed = 0, uses_anonymous_args = 0
 535 0000 10B5     		push	{r4, lr}
 536 0002 0446     		mov	r4, r0
 537 0004 FFF7FEFF 		bl	_ZdlPv
 538 0008 2046     		mov	r0, r4
 539 000a 10BD     		pop	{r4, pc}
 540              		.size	_ZN4node12_GLOBAL__N_121RestartRequestHandlerD0Ev, .-_ZN4node12_GLOBAL__N_121RestartRequestH
 541              		.section	.text._ZN4node12_GLOBAL__N_112ParamManagerD0Ev,"ax",%progbits
 542              		.align	1
 543              		.thumb
 544              		.thumb_func
 545              		.type	_ZN4node12_GLOBAL__N_112ParamManagerD0Ev, %function
 546              	_ZN4node12_GLOBAL__N_112ParamManagerD0Ev:
 547              		@ args = 0, pretend = 0, frame = 0
 548              		@ frame_needed = 0, uses_anonymous_args = 0
 549 0000 10B5     		push	{r4, lr}
 550 0002 0446     		mov	r4, r0
 551 0004 FFF7FEFF 		bl	_ZdlPv
 552 0008 2046     		mov	r0, r4
 553 000a 10BD     		pop	{r4, pc}
 554              		.size	_ZN4node12_GLOBAL__N_112ParamManagerD0Ev, .-_ZN4node12_GLOBAL__N_112ParamManagerD0Ev
 555              		.section	.text._ZN6uavcan17GenericSubscriberINS_8protocol18GetTransportStats_ENS2_8Request_ILi0EEE
 556              		.align	1
 557              		.weak	_ZN6uavcan17GenericSubscriberINS_8protocol18GetTransportStats_ENS2_8Request_ILi0EEENS_16Tran
 558              		.thumb
 559              		.thumb_func
 560              		.type	_ZN6uavcan17GenericSubscriberINS_8protocol18GetTransportStats_ENS2_8Request_ILi0EEENS_16Tran
 561              	_ZN6uavcan17GenericSubscriberINS_8protocol18GetTransportStats_ENS2_8Request_ILi0EEENS_16TransferLis
 562              		@ args = 0, pretend = 0, frame = 0
 563              		@ frame_needed = 0, uses_anonymous_args = 0
 564 0000 10B5     		push	{r4, lr}
 565 0002 0446     		mov	r4, r0
 566 0004 024B     		ldr	r3, .L52
 567 0006 0360     		str	r3, [r0]
 568 0008 FFF7FEFF 		bl	_ZN6uavcan16TransferListenerD2Ev
 569 000c 2046     		mov	r0, r4
 570 000e 10BD     		pop	{r4, pc}
ARM GAS  /tmp/ccFEREDd.s 			page 11


 571              	.L53:
 572              		.align	2
 573              	.L52:
 574 0010 08000000 		.word	_ZTVN6uavcan17GenericSubscriberINS_8protocol18GetTransportStats_ENS2_8Request_ILi0EEENS_16Tr
 575              		.size	_ZN6uavcan17GenericSubscriberINS_8protocol18GetTransportStats_ENS2_8Request_ILi0EEENS_16Tran
 576              		.weak	_ZN6uavcan17GenericSubscriberINS_8protocol18GetTransportStats_ENS2_8Request_ILi0EEENS_16Tran
 577              		.thumb_set _ZN6uavcan17GenericSubscriberINS_8protocol18GetTransportStats_ENS2_8Request_ILi0EEENS_1
 578              		.section	.text._ZN6uavcan17GenericSubscriberINS_8protocol18GetTransportStats_ENS2_8Request_ILi0EEE
 579              		.align	1
 580              		.weak	_ZN6uavcan17GenericSubscriberINS_8protocol18GetTransportStats_ENS2_8Request_ILi0EEENS_16Tran
 581              		.thumb
 582              		.thumb_func
 583              		.type	_ZN6uavcan17GenericSubscriberINS_8protocol18GetTransportStats_ENS2_8Request_ILi0EEENS_16Tran
 584              	_ZN6uavcan17GenericSubscriberINS_8protocol18GetTransportStats_ENS2_8Request_ILi0EEENS_16TransferLis
 585              		@ args = 0, pretend = 0, frame = 0
 586              		@ frame_needed = 0, uses_anonymous_args = 0
 587 0000 10B5     		push	{r4, lr}
 588 0002 0446     		mov	r4, r0
 589 0004 FFF7FEFF 		bl	_ZN6uavcan17GenericSubscriberINS_8protocol18GetTransportStats_ENS2_8Request_ILi0EEENS_16Transfe
 590 0008 2046     		mov	r0, r4
 591 000a FFF7FEFF 		bl	_ZdlPv
 592 000e 2046     		mov	r0, r4
 593 0010 10BD     		pop	{r4, pc}
 594              		.size	_ZN6uavcan17GenericSubscriberINS_8protocol18GetTransportStats_ENS2_8Request_ILi0EEENS_16Tran
 595              		.section	.text._ZN6uavcan17GenericSubscriberINS_8protocol12RestartNode_ENS2_8Request_ILi0EEENS_16T
 596              		.align	1
 597              		.weak	_ZN6uavcan17GenericSubscriberINS_8protocol12RestartNode_ENS2_8Request_ILi0EEENS_16TransferLi
 598              		.thumb
 599              		.thumb_func
 600              		.type	_ZN6uavcan17GenericSubscriberINS_8protocol12RestartNode_ENS2_8Request_ILi0EEENS_16TransferLi
 601              	_ZN6uavcan17GenericSubscriberINS_8protocol12RestartNode_ENS2_8Request_ILi0EEENS_16TransferListenerE
 602              		@ args = 0, pretend = 0, frame = 0
 603              		@ frame_needed = 0, uses_anonymous_args = 0
 604 0000 10B5     		push	{r4, lr}
 605 0002 0446     		mov	r4, r0
 606 0004 024B     		ldr	r3, .L56
 607 0006 0360     		str	r3, [r0]
 608 0008 FFF7FEFF 		bl	_ZN6uavcan16TransferListenerD2Ev
 609 000c 2046     		mov	r0, r4
 610 000e 10BD     		pop	{r4, pc}
 611              	.L57:
 612              		.align	2
 613              	.L56:
 614 0010 08000000 		.word	_ZTVN6uavcan17GenericSubscriberINS_8protocol12RestartNode_ENS2_8Request_ILi0EEENS_16Transfer
 615              		.size	_ZN6uavcan17GenericSubscriberINS_8protocol12RestartNode_ENS2_8Request_ILi0EEENS_16TransferLi
 616              		.weak	_ZN6uavcan17GenericSubscriberINS_8protocol12RestartNode_ENS2_8Request_ILi0EEENS_16TransferLi
 617              		.thumb_set _ZN6uavcan17GenericSubscriberINS_8protocol12RestartNode_ENS2_8Request_ILi0EEENS_16Trans
 618              		.section	.text._ZN6uavcan17GenericSubscriberINS_8protocol12RestartNode_ENS2_8Request_ILi0EEENS_16T
 619              		.align	1
 620              		.weak	_ZN6uavcan17GenericSubscriberINS_8protocol12RestartNode_ENS2_8Request_ILi0EEENS_16TransferLi
 621              		.thumb
 622              		.thumb_func
 623              		.type	_ZN6uavcan17GenericSubscriberINS_8protocol12RestartNode_ENS2_8Request_ILi0EEENS_16TransferLi
 624              	_ZN6uavcan17GenericSubscriberINS_8protocol12RestartNode_ENS2_8Request_ILi0EEENS_16TransferListenerE
 625              		@ args = 0, pretend = 0, frame = 0
 626              		@ frame_needed = 0, uses_anonymous_args = 0
 627 0000 10B5     		push	{r4, lr}
ARM GAS  /tmp/ccFEREDd.s 			page 12


 628 0002 0446     		mov	r4, r0
 629 0004 FFF7FEFF 		bl	_ZN6uavcan17GenericSubscriberINS_8protocol12RestartNode_ENS2_8Request_ILi0EEENS_16TransferListe
 630 0008 2046     		mov	r0, r4
 631 000a FFF7FEFF 		bl	_ZdlPv
 632 000e 2046     		mov	r0, r4
 633 0010 10BD     		pop	{r4, pc}
 634              		.size	_ZN6uavcan17GenericSubscriberINS_8protocol12RestartNode_ENS2_8Request_ILi0EEENS_16TransferLi
 635              		.section	.text._ZN6uavcan17GenericSubscriberINS_8protocol16GetDataTypeInfo_ENS2_8Request_ILi0EEENS
 636              		.align	1
 637              		.weak	_ZN6uavcan17GenericSubscriberINS_8protocol16GetDataTypeInfo_ENS2_8Request_ILi0EEENS_16Transf
 638              		.thumb
 639              		.thumb_func
 640              		.type	_ZN6uavcan17GenericSubscriberINS_8protocol16GetDataTypeInfo_ENS2_8Request_ILi0EEENS_16Transf
 641              	_ZN6uavcan17GenericSubscriberINS_8protocol16GetDataTypeInfo_ENS2_8Request_ILi0EEENS_16TransferListe
 642              		@ args = 0, pretend = 0, frame = 0
 643              		@ frame_needed = 0, uses_anonymous_args = 0
 644 0000 10B5     		push	{r4, lr}
 645 0002 0446     		mov	r4, r0
 646 0004 024B     		ldr	r3, .L60
 647 0006 0360     		str	r3, [r0]
 648 0008 FFF7FEFF 		bl	_ZN6uavcan16TransferListenerD2Ev
 649 000c 2046     		mov	r0, r4
 650 000e 10BD     		pop	{r4, pc}
 651              	.L61:
 652              		.align	2
 653              	.L60:
 654 0010 08000000 		.word	_ZTVN6uavcan17GenericSubscriberINS_8protocol16GetDataTypeInfo_ENS2_8Request_ILi0EEENS_16Tran
 655              		.size	_ZN6uavcan17GenericSubscriberINS_8protocol16GetDataTypeInfo_ENS2_8Request_ILi0EEENS_16Transf
 656              		.weak	_ZN6uavcan17GenericSubscriberINS_8protocol16GetDataTypeInfo_ENS2_8Request_ILi0EEENS_16Transf
 657              		.thumb_set _ZN6uavcan17GenericSubscriberINS_8protocol16GetDataTypeInfo_ENS2_8Request_ILi0EEENS_16T
 658              		.section	.text._ZN6uavcan17GenericSubscriberINS_8protocol16GetDataTypeInfo_ENS2_8Request_ILi0EEENS
 659              		.align	1
 660              		.weak	_ZN6uavcan17GenericSubscriberINS_8protocol16GetDataTypeInfo_ENS2_8Request_ILi0EEENS_16Transf
 661              		.thumb
 662              		.thumb_func
 663              		.type	_ZN6uavcan17GenericSubscriberINS_8protocol16GetDataTypeInfo_ENS2_8Request_ILi0EEENS_16Transf
 664              	_ZN6uavcan17GenericSubscriberINS_8protocol16GetDataTypeInfo_ENS2_8Request_ILi0EEENS_16TransferListe
 665              		@ args = 0, pretend = 0, frame = 0
 666              		@ frame_needed = 0, uses_anonymous_args = 0
 667 0000 10B5     		push	{r4, lr}
 668 0002 0446     		mov	r4, r0
 669 0004 FFF7FEFF 		bl	_ZN6uavcan17GenericSubscriberINS_8protocol16GetDataTypeInfo_ENS2_8Request_ILi0EEENS_16TransferL
 670 0008 2046     		mov	r0, r4
 671 000a FFF7FEFF 		bl	_ZdlPv
 672 000e 2046     		mov	r0, r4
 673 0010 10BD     		pop	{r4, pc}
 674              		.size	_ZN6uavcan17GenericSubscriberINS_8protocol16GetDataTypeInfo_ENS2_8Request_ILi0EEENS_16Transf
 675              		.section	.text._ZN6uavcan17GenericSubscriberINS_8protocol15GlobalTimeSync_ILi0EEES3_NS_16TransferL
 676              		.align	1
 677              		.weak	_ZN6uavcan17GenericSubscriberINS_8protocol15GlobalTimeSync_ILi0EEES3_NS_16TransferListenerEE
 678              		.thumb
 679              		.thumb_func
 680              		.type	_ZN6uavcan17GenericSubscriberINS_8protocol15GlobalTimeSync_ILi0EEES3_NS_16TransferListenerEE
 681              	_ZN6uavcan17GenericSubscriberINS_8protocol15GlobalTimeSync_ILi0EEES3_NS_16TransferListenerEE17Trans
 682              		@ args = 0, pretend = 0, frame = 0
 683              		@ frame_needed = 0, uses_anonymous_args = 0
 684 0000 10B5     		push	{r4, lr}
ARM GAS  /tmp/ccFEREDd.s 			page 13


 685 0002 0446     		mov	r4, r0
 686 0004 024B     		ldr	r3, .L64
 687 0006 0360     		str	r3, [r0]
 688 0008 FFF7FEFF 		bl	_ZN6uavcan16TransferListenerD2Ev
 689 000c 2046     		mov	r0, r4
 690 000e 10BD     		pop	{r4, pc}
 691              	.L65:
 692              		.align	2
 693              	.L64:
 694 0010 08000000 		.word	_ZTVN6uavcan17GenericSubscriberINS_8protocol15GlobalTimeSync_ILi0EEES3_NS_16TransferListener
 695              		.size	_ZN6uavcan17GenericSubscriberINS_8protocol15GlobalTimeSync_ILi0EEES3_NS_16TransferListenerEE
 696              		.weak	_ZN6uavcan17GenericSubscriberINS_8protocol15GlobalTimeSync_ILi0EEES3_NS_16TransferListenerEE
 697              		.thumb_set _ZN6uavcan17GenericSubscriberINS_8protocol15GlobalTimeSync_ILi0EEES3_NS_16TransferListe
 698              		.section	.text._ZN6uavcan17GenericSubscriberINS_8protocol15GlobalTimeSync_ILi0EEES3_NS_16TransferL
 699              		.align	1
 700              		.weak	_ZN6uavcan17GenericSubscriberINS_8protocol15GlobalTimeSync_ILi0EEES3_NS_16TransferListenerEE
 701              		.thumb
 702              		.thumb_func
 703              		.type	_ZN6uavcan17GenericSubscriberINS_8protocol15GlobalTimeSync_ILi0EEES3_NS_16TransferListenerEE
 704              	_ZN6uavcan17GenericSubscriberINS_8protocol15GlobalTimeSync_ILi0EEES3_NS_16TransferListenerEE17Trans
 705              		@ args = 0, pretend = 0, frame = 0
 706              		@ frame_needed = 0, uses_anonymous_args = 0
 707 0000 10B5     		push	{r4, lr}
 708 0002 0446     		mov	r4, r0
 709 0004 FFF7FEFF 		bl	_ZN6uavcan17GenericSubscriberINS_8protocol15GlobalTimeSync_ILi0EEES3_NS_16TransferListenerEE17T
 710 0008 2046     		mov	r0, r4
 711 000a FFF7FEFF 		bl	_ZdlPv
 712 000e 2046     		mov	r0, r4
 713 0010 10BD     		pop	{r4, pc}
 714              		.size	_ZN6uavcan17GenericSubscriberINS_8protocol15GlobalTimeSync_ILi0EEES3_NS_16TransferListenerEE
 715              		.section	.text._ZN6uavcan17GenericSubscriberINS_8protocol5param14ExecuteOpcode_ENS3_8Request_ILi0E
 716              		.align	1
 717              		.weak	_ZN6uavcan17GenericSubscriberINS_8protocol5param14ExecuteOpcode_ENS3_8Request_ILi0EEENS_16Tr
 718              		.thumb
 719              		.thumb_func
 720              		.type	_ZN6uavcan17GenericSubscriberINS_8protocol5param14ExecuteOpcode_ENS3_8Request_ILi0EEENS_16Tr
 721              	_ZN6uavcan17GenericSubscriberINS_8protocol5param14ExecuteOpcode_ENS3_8Request_ILi0EEENS_16TransferL
 722              		@ args = 0, pretend = 0, frame = 0
 723              		@ frame_needed = 0, uses_anonymous_args = 0
 724 0000 10B5     		push	{r4, lr}
 725 0002 0446     		mov	r4, r0
 726 0004 024B     		ldr	r3, .L68
 727 0006 0360     		str	r3, [r0]
 728 0008 FFF7FEFF 		bl	_ZN6uavcan16TransferListenerD2Ev
 729 000c 2046     		mov	r0, r4
 730 000e 10BD     		pop	{r4, pc}
 731              	.L69:
 732              		.align	2
 733              	.L68:
 734 0010 08000000 		.word	_ZTVN6uavcan17GenericSubscriberINS_8protocol5param14ExecuteOpcode_ENS3_8Request_ILi0EEENS_16
 735              		.size	_ZN6uavcan17GenericSubscriberINS_8protocol5param14ExecuteOpcode_ENS3_8Request_ILi0EEENS_16Tr
 736              		.weak	_ZN6uavcan17GenericSubscriberINS_8protocol5param14ExecuteOpcode_ENS3_8Request_ILi0EEENS_16Tr
 737              		.thumb_set _ZN6uavcan17GenericSubscriberINS_8protocol5param14ExecuteOpcode_ENS3_8Request_ILi0EEENS
 738              		.section	.text._ZN6uavcan17GenericSubscriberINS_8protocol5param14ExecuteOpcode_ENS3_8Request_ILi0E
 739              		.align	1
 740              		.weak	_ZN6uavcan17GenericSubscriberINS_8protocol5param14ExecuteOpcode_ENS3_8Request_ILi0EEENS_16Tr
 741              		.thumb
ARM GAS  /tmp/ccFEREDd.s 			page 14


 742              		.thumb_func
 743              		.type	_ZN6uavcan17GenericSubscriberINS_8protocol5param14ExecuteOpcode_ENS3_8Request_ILi0EEENS_16Tr
 744              	_ZN6uavcan17GenericSubscriberINS_8protocol5param14ExecuteOpcode_ENS3_8Request_ILi0EEENS_16TransferL
 745              		@ args = 0, pretend = 0, frame = 0
 746              		@ frame_needed = 0, uses_anonymous_args = 0
 747 0000 10B5     		push	{r4, lr}
 748 0002 0446     		mov	r4, r0
 749 0004 FFF7FEFF 		bl	_ZN6uavcan17GenericSubscriberINS_8protocol5param14ExecuteOpcode_ENS3_8Request_ILi0EEENS_16Trans
 750 0008 2046     		mov	r0, r4
 751 000a FFF7FEFF 		bl	_ZdlPv
 752 000e 2046     		mov	r0, r4
 753 0010 10BD     		pop	{r4, pc}
 754              		.size	_ZN6uavcan17GenericSubscriberINS_8protocol5param14ExecuteOpcode_ENS3_8Request_ILi0EEENS_16Tr
 755              		.section	.text._ZN6uavcan17GenericSubscriberINS_8protocol5param7GetSet_ENS3_8Request_ILi0EEENS_16T
 756              		.align	1
 757              		.weak	_ZN6uavcan17GenericSubscriberINS_8protocol5param7GetSet_ENS3_8Request_ILi0EEENS_16TransferLi
 758              		.thumb
 759              		.thumb_func
 760              		.type	_ZN6uavcan17GenericSubscriberINS_8protocol5param7GetSet_ENS3_8Request_ILi0EEENS_16TransferLi
 761              	_ZN6uavcan17GenericSubscriberINS_8protocol5param7GetSet_ENS3_8Request_ILi0EEENS_16TransferListenerE
 762              		@ args = 0, pretend = 0, frame = 0
 763              		@ frame_needed = 0, uses_anonymous_args = 0
 764 0000 10B5     		push	{r4, lr}
 765 0002 0446     		mov	r4, r0
 766 0004 024B     		ldr	r3, .L72
 767 0006 0360     		str	r3, [r0]
 768 0008 FFF7FEFF 		bl	_ZN6uavcan16TransferListenerD2Ev
 769 000c 2046     		mov	r0, r4
 770 000e 10BD     		pop	{r4, pc}
 771              	.L73:
 772              		.align	2
 773              	.L72:
 774 0010 08000000 		.word	_ZTVN6uavcan17GenericSubscriberINS_8protocol5param7GetSet_ENS3_8Request_ILi0EEENS_16Transfer
 775              		.size	_ZN6uavcan17GenericSubscriberINS_8protocol5param7GetSet_ENS3_8Request_ILi0EEENS_16TransferLi
 776              		.weak	_ZN6uavcan17GenericSubscriberINS_8protocol5param7GetSet_ENS3_8Request_ILi0EEENS_16TransferLi
 777              		.thumb_set _ZN6uavcan17GenericSubscriberINS_8protocol5param7GetSet_ENS3_8Request_ILi0EEENS_16Trans
 778              		.section	.text._ZN6uavcan17GenericSubscriberINS_8protocol5param7GetSet_ENS3_8Request_ILi0EEENS_16T
 779              		.align	1
 780              		.weak	_ZN6uavcan17GenericSubscriberINS_8protocol5param7GetSet_ENS3_8Request_ILi0EEENS_16TransferLi
 781              		.thumb
 782              		.thumb_func
 783              		.type	_ZN6uavcan17GenericSubscriberINS_8protocol5param7GetSet_ENS3_8Request_ILi0EEENS_16TransferLi
 784              	_ZN6uavcan17GenericSubscriberINS_8protocol5param7GetSet_ENS3_8Request_ILi0EEENS_16TransferListenerE
 785              		@ args = 0, pretend = 0, frame = 0
 786              		@ frame_needed = 0, uses_anonymous_args = 0
 787 0000 10B5     		push	{r4, lr}
 788 0002 0446     		mov	r4, r0
 789 0004 FFF7FEFF 		bl	_ZN6uavcan17GenericSubscriberINS_8protocol5param7GetSet_ENS3_8Request_ILi0EEENS_16TransferListe
 790 0008 2046     		mov	r0, r4
 791 000a FFF7FEFF 		bl	_ZdlPv
 792 000e 2046     		mov	r0, r4
 793 0010 10BD     		pop	{r4, pc}
 794              		.size	_ZN6uavcan17GenericSubscriberINS_8protocol5param7GetSet_ENS3_8Request_ILi0EEENS_16TransferLi
 795              		.section	.text._ZN6uavcan17GenericSubscriberINS_8protocol4file20BeginFirmwareUpdate_ENS3_8Request_
 796              		.align	1
 797              		.weak	_ZN6uavcan17GenericSubscriberINS_8protocol4file20BeginFirmwareUpdate_ENS3_8Request_ILi0EEENS
 798              		.thumb
ARM GAS  /tmp/ccFEREDd.s 			page 15


 799              		.thumb_func
 800              		.type	_ZN6uavcan17GenericSubscriberINS_8protocol4file20BeginFirmwareUpdate_ENS3_8Request_ILi0EEENS
 801              	_ZN6uavcan17GenericSubscriberINS_8protocol4file20BeginFirmwareUpdate_ENS3_8Request_ILi0EEENS_16Tran
 802              		@ args = 0, pretend = 0, frame = 0
 803              		@ frame_needed = 0, uses_anonymous_args = 0
 804 0000 10B5     		push	{r4, lr}
 805 0002 0446     		mov	r4, r0
 806 0004 024B     		ldr	r3, .L76
 807 0006 0360     		str	r3, [r0]
 808 0008 FFF7FEFF 		bl	_ZN6uavcan16TransferListenerD2Ev
 809 000c 2046     		mov	r0, r4
 810 000e 10BD     		pop	{r4, pc}
 811              	.L77:
 812              		.align	2
 813              	.L76:
 814 0010 08000000 		.word	_ZTVN6uavcan17GenericSubscriberINS_8protocol4file20BeginFirmwareUpdate_ENS3_8Request_ILi0EEE
 815              		.size	_ZN6uavcan17GenericSubscriberINS_8protocol4file20BeginFirmwareUpdate_ENS3_8Request_ILi0EEENS
 816              		.weak	_ZN6uavcan17GenericSubscriberINS_8protocol4file20BeginFirmwareUpdate_ENS3_8Request_ILi0EEENS
 817              		.thumb_set _ZN6uavcan17GenericSubscriberINS_8protocol4file20BeginFirmwareUpdate_ENS3_8Request_ILi0
 818              		.section	.text._ZN6uavcan17GenericSubscriberINS_8protocol4file20BeginFirmwareUpdate_ENS3_8Request_
 819              		.align	1
 820              		.weak	_ZN6uavcan17GenericSubscriberINS_8protocol4file20BeginFirmwareUpdate_ENS3_8Request_ILi0EEENS
 821              		.thumb
 822              		.thumb_func
 823              		.type	_ZN6uavcan17GenericSubscriberINS_8protocol4file20BeginFirmwareUpdate_ENS3_8Request_ILi0EEENS
 824              	_ZN6uavcan17GenericSubscriberINS_8protocol4file20BeginFirmwareUpdate_ENS3_8Request_ILi0EEENS_16Tran
 825              		@ args = 0, pretend = 0, frame = 0
 826              		@ frame_needed = 0, uses_anonymous_args = 0
 827 0000 10B5     		push	{r4, lr}
 828 0002 0446     		mov	r4, r0
 829 0004 FFF7FEFF 		bl	_ZN6uavcan17GenericSubscriberINS_8protocol4file20BeginFirmwareUpdate_ENS3_8Request_ILi0EEENS_16
 830 0008 2046     		mov	r0, r4
 831 000a FFF7FEFF 		bl	_ZdlPv
 832 000e 2046     		mov	r0, r4
 833 0010 10BD     		pop	{r4, pc}
 834              		.size	_ZN6uavcan17GenericSubscriberINS_8protocol4file20BeginFirmwareUpdate_ENS3_8Request_ILi0EEENS
 835              		.section	.text._ZN10chibios_rt16BaseStaticThreadILi3000EE5startEm,"axG",%progbits,_ZN10chibios_rt1
 836              		.align	1
 837              		.weak	_ZN10chibios_rt16BaseStaticThreadILi3000EE5startEm
 838              		.thumb
 839              		.thumb_func
 840              		.type	_ZN10chibios_rt16BaseStaticThreadILi3000EE5startEm, %function
 841              	_ZN10chibios_rt16BaseStaticThreadILi3000EE5startEm:
 842              		@ args = 0, pretend = 0, frame = 0
 843              		@ frame_needed = 0, uses_anonymous_args = 0
 844 0000 37B5     		push	{r0, r1, r2, r4, r5, lr}
 845 0002 084B     		ldr	r3, .L80
 846 0004 0446     		mov	r4, r0
 847 0006 0D46     		mov	r5, r1
 848 0008 0091     		str	r1, [sp]
 849 000a 01F10800 		add	r0, r1, #8
 850 000e 4FF46461 		mov	r1, #3648
 851 0012 FFF7FEFF 		bl	chThdCreateStatic
 852 0016 6860     		str	r0, [r5, #4]
 853 0018 6060     		str	r0, [r4, #4]
 854 001a 2046     		mov	r0, r4
 855 001c 024B     		ldr	r3, .L80+4
ARM GAS  /tmp/ccFEREDd.s 			page 16


 856 001e 2360     		str	r3, [r4]
 857 0020 03B0     		add	sp, sp, #12
 858              		@ sp needed
 859 0022 30BD     		pop	{r4, r5, pc}
 860              	.L81:
 861              		.align	2
 862              	.L80:
 863 0024 00000000 		.word	_ZN10chibios_rt10_thd_startEPv
 864 0028 08000000 		.word	_ZTVN10chibios_rt15ThreadReferenceE+8
 865              		.size	_ZN10chibios_rt16BaseStaticThreadILi3000EE5startEm, .-_ZN10chibios_rt16BaseStaticThreadILi30
 866              		.section	.text._ZN4node12_GLOBAL__N_121RestartRequestHandler20handleRestartRequestEN6uavcan6NodeID
 867              		.align	1
 868              		.thumb
 869              		.thumb_func
 870              		.type	_ZN4node12_GLOBAL__N_121RestartRequestHandler20handleRestartRequestEN6uavcan6NodeIDE, %funct
 871              	_ZN4node12_GLOBAL__N_121RestartRequestHandler20handleRestartRequestEN6uavcan6NodeIDE:
 872              		@ args = 0, pretend = 0, frame = 0
 873              		@ frame_needed = 0, uses_anonymous_args = 0
 874 0000 08B5     		push	{r3, lr}
 875 0002 0448     		ldr	r0, .L83
 876 0004 C9B2     		uxtb	r1, r1
 877 0006 FFF7FEFF 		bl	lowsyslog
 878 000a 034B     		ldr	r3, .L83+4
 879 000c 0120     		movs	r0, #1
 880 000e 1870     		strb	r0, [r3]
 881 0010 08BD     		pop	{r3, pc}
 882              	.L84:
 883 0012 00BF     		.align	2
 884              	.L83:
 885 0014 00000000 		.word	.LC0
 886 0018 00000000 		.word	.LANCHOR0
 887              		.size	_ZN4node12_GLOBAL__N_121RestartRequestHandler20handleRestartRequestEN6uavcan6NodeIDE, .-_ZN4
 888              		.section	.text._ZN6uavcan19TimerEventForwarderISt8functionIFvRKNS_10TimerEventEEEE16handleTimerEve
 889              		.align	1
 890              		.weak	_ZN6uavcan19TimerEventForwarderISt8functionIFvRKNS_10TimerEventEEEE16handleTimerEventES4_
 891              		.thumb
 892              		.thumb_func
 893              		.type	_ZN6uavcan19TimerEventForwarderISt8functionIFvRKNS_10TimerEventEEEE16handleTimerEventES4_, %
 894              	_ZN6uavcan19TimerEventForwarderISt8functionIFvRKNS_10TimerEventEEEE16handleTimerEventES4_:
 895              		@ args = 0, pretend = 0, frame = 0
 896              		@ frame_needed = 0, uses_anonymous_args = 0
 897 0000 836A     		ldr	r3, [r0, #40]
 898 0002 10B5     		push	{r4, lr}
 899 0004 0BB9     		cbnz	r3, .L86
 900 0006 FFF7FEFF 		bl	_ZSt25__throw_bad_function_callv
 901              	.L86:
 902 000a C36A     		ldr	r3, [r0, #44]
 903 000c BDE81040 		pop	{r4, lr}
 904 0010 2030     		adds	r0, r0, #32
 905 0012 1847     		bx	r3	@ indirect register sibling call
 906              		.size	_ZN6uavcan19TimerEventForwarderISt8functionIFvRKNS_10TimerEventEEEE16handleTimerEventES4_, .
 907              		.section	.text._ZN4node12_GLOBAL__N_112ParamManager14eraseAllParamsEv,"ax",%progbits
 908              		.align	1
 909              		.thumb
 910              		.thumb_func
 911              		.type	_ZN4node12_GLOBAL__N_112ParamManager14eraseAllParamsEv, %function
 912              	_ZN4node12_GLOBAL__N_112ParamManager14eraseAllParamsEv:
ARM GAS  /tmp/ccFEREDd.s 			page 17


 913              		@ args = 0, pretend = 0, frame = 0
 914              		@ frame_needed = 0, uses_anonymous_args = 0
 915              		@ link register save eliminated.
 916 0000 FFF7FEBF 		b	configErase
 917              		.size	_ZN4node12_GLOBAL__N_112ParamManager14eraseAllParamsEv, .-_ZN4node12_GLOBAL__N_112ParamManag
 918              		.section	.text._ZN4node12_GLOBAL__N_112ParamManager13saveAllParamsEv,"ax",%progbits
 919              		.align	1
 920              		.thumb
 921              		.thumb_func
 922              		.type	_ZN4node12_GLOBAL__N_112ParamManager13saveAllParamsEv, %function
 923              	_ZN4node12_GLOBAL__N_112ParamManager13saveAllParamsEv:
 924              		@ args = 0, pretend = 0, frame = 0
 925              		@ frame_needed = 0, uses_anonymous_args = 0
 926              		@ link register save eliminated.
 927 0000 FFF7FEBF 		b	configSave
 928              		.size	_ZN4node12_GLOBAL__N_112ParamManager13saveAllParamsEv, .-_ZN4node12_GLOBAL__N_112ParamManage
 929              		.global	__aeabi_l2f
 930              		.section	.text._ZN4node12_GLOBAL__N_112ParamManager16assignParamValueERKN6uavcan5ArrayINS2_11Integ
 931              		.align	1
 932              		.thumb
 933              		.thumb_func
 934              		.type	_ZN4node12_GLOBAL__N_112ParamManager16assignParamValueERKN6uavcan5ArrayINS2_11IntegerSpecILj
 935              	_ZN4node12_GLOBAL__N_112ParamManager16assignParamValueERKN6uavcan5ArrayINS2_11IntegerSpecILj8ELNS2_
 936              		@ args = 0, pretend = 0, frame = 0
 937              		@ frame_needed = 0, uses_anonymous_args = 0
 938 0000 10B5     		push	{r4, lr}
 939 0002 92F89730 		ldrb	r3, [r2, #151]	@ zero_extendqisi2
 940 0006 0C46     		mov	r4, r1
 941 0008 032B     		cmp	r3, #3
 942 000a 03D1     		bne	.L90
 943 000c 137D     		ldrb	r3, [r2, #20]	@ zero_extendqisi2
 944 000e 6BB9     		cbnz	r3, .L94
 945 0010 0021     		movs	r1, #0
 946 0012 0DE0     		b	.L91
 947              	.L90:
 948 0014 012B     		cmp	r3, #1
 949 0016 05D1     		bne	.L92
 950 0018 D2E90201 		ldrd	r0, [r2, #8]
 951 001c FFF7FEFF 		bl	__aeabi_l2f
 952 0020 0146     		mov	r1, r0
 953 0022 05E0     		b	.L91
 954              	.L92:
 955 0024 022B     		cmp	r3, #2
 956 0026 0CD1     		bne	.L89
 957 0028 1169     		ldr	r1, [r2, #16]	@ float
 958 002a 01E0     		b	.L91
 959              	.L94:
 960 002c 4FF07E51 		mov	r1, #1065353216
 961              	.L91:
 962 0030 2378     		ldrb	r3, [r4]	@ zero_extendqisi2
 963 0032 0022     		movs	r2, #0
 964 0034 2344     		add	r3, r3, r4
 965 0036 5A70     		strb	r2, [r3, #1]
 966 0038 601C     		adds	r0, r4, #1
 967 003a BDE81040 		pop	{r4, lr}
 968 003e FFF7FEBF 		b	configSet
 969              	.L89:
ARM GAS  /tmp/ccFEREDd.s 			page 18


 970 0042 10BD     		pop	{r4, pc}
 971              		.size	_ZN4node12_GLOBAL__N_112ParamManager16assignParamValueERKN6uavcan5ArrayINS2_11IntegerSpecILj
 972              		.section	.text._ZN6uavcan11ParamServer19handleExecuteOpcodeERKNS_8protocol5param14ExecuteOpcode_8R
 973              		.align	1
 974              		.weak	_ZN6uavcan11ParamServer19handleExecuteOpcodeERKNS_8protocol5param14ExecuteOpcode_8Request_IL
 975              		.thumb
 976              		.thumb_func
 977              		.type	_ZN6uavcan11ParamServer19handleExecuteOpcodeERKNS_8protocol5param14ExecuteOpcode_8Request_IL
 978              	_ZN6uavcan11ParamServer19handleExecuteOpcodeERKNS_8protocol5param14ExecuteOpcode_8Request_ILi0EEERN
 979              		@ args = 0, pretend = 0, frame = 0
 980              		@ frame_needed = 0, uses_anonymous_args = 0
 981 0000 0B78     		ldrb	r3, [r1]	@ zero_extendqisi2
 982 0002 10B5     		push	{r4, lr}
 983 0004 1446     		mov	r4, r2
 984 0006 23B9     		cbnz	r3, .L96
 985 0008 D0F8F000 		ldr	r0, [r0, #240]
 986 000c 0368     		ldr	r3, [r0]
 987 000e 9B69     		ldr	r3, [r3, #24]
 988 0010 05E0     		b	.L99
 989              	.L96:
 990 0012 012B     		cmp	r3, #1
 991 0014 08D1     		bne	.L98
 992 0016 D0F8F000 		ldr	r0, [r0, #240]
 993 001a 0368     		ldr	r3, [r0]
 994 001c DB69     		ldr	r3, [r3, #28]
 995              	.L99:
 996 001e 9847     		blx	r3
 997 0020 C043     		mvns	r0, r0
 998 0022 C00F     		lsrs	r0, r0, #31
 999 0024 2072     		strb	r0, [r4, #8]
 1000 0026 10BD     		pop	{r4, pc}
 1001              	.L98:
 1002 0028 0023     		movs	r3, #0
 1003 002a 1372     		strb	r3, [r2, #8]
 1004 002c 10BD     		pop	{r4, pc}
 1005              		.size	_ZN6uavcan11ParamServer19handleExecuteOpcodeERKNS_8protocol5param14ExecuteOpcode_8Request_IL
 1006              		.section	.text._ZN6uavcan19TransferPerfCounter8addErrorEv.isra.6,"ax",%progbits
 1007              		.align	1
 1008              		.thumb
 1009              		.thumb_func
 1010              		.type	_ZN6uavcan19TransferPerfCounter8addErrorEv.isra.6, %function
 1011              	_ZN6uavcan19TransferPerfCounter8addErrorEv.isra.6:
 1012              		@ args = 0, pretend = 0, frame = 0
 1013              		@ frame_needed = 0, uses_anonymous_args = 0
 1014              		@ link register save eliminated.
 1015 0000 D0E90023 		ldrd	r2, [r0]
 1016 0004 0132     		adds	r2, r2, #1
 1017 0006 43F10003 		adc	r3, r3, #0
 1018 000a C0E90023 		strd	r2, [r0]
 1019 000e 7047     		bx	lr
 1020              		.size	_ZN6uavcan19TransferPerfCounter8addErrorEv.isra.6, .-_ZN6uavcan19TransferPerfCounter8addErro
 1021              		.global	__aeabi_f2lz
 1022              		.section	.text._ZNK4node12_GLOBAL__N_112ParamManager7convertEf14ConfigDataTypeRN6uavcan8protocol5p
 1023              		.align	1
 1024              		.thumb
 1025              		.thumb_func
 1026              		.type	_ZNK4node12_GLOBAL__N_112ParamManager7convertEf14ConfigDataTypeRN6uavcan8protocol5param13Num
ARM GAS  /tmp/ccFEREDd.s 			page 19


 1027              	_ZNK4node12_GLOBAL__N_112ParamManager7convertEf14ConfigDataTypeRN6uavcan8protocol5param13NumericVal
 1028              		@ args = 0, pretend = 0, frame = 0
 1029              		@ frame_needed = 0, uses_anonymous_args = 0
 1030 0000 0129     		cmp	r1, #1
 1031 0002 10B5     		push	{r4, lr}
 1032 0004 1446     		mov	r4, r2
 1033 0006 08D1     		bne	.L102
 1034 0008 137D     		ldrb	r3, [r2, #20]	@ zero_extendqisi2
 1035 000a 012B     		cmp	r3, #1
 1036 000c 18BF     		it	ne
 1037 000e 1175     		strbne	r1, [r2, #20]
 1038 0010 FFF7FEFF 		bl	__aeabi_f2lz
 1039 0014 C4E90201 		strd	r0, [r4, #8]
 1040 0018 10BD     		pop	{r4, pc}
 1041              	.L102:
 1042 001a 29B9     		cbnz	r1, .L101
 1043 001c 137D     		ldrb	r3, [r2, #20]	@ zero_extendqisi2
 1044 001e 1061     		str	r0, [r2, #16]	@ float
 1045 0020 022B     		cmp	r3, #2
 1046 0022 1CBF     		itt	ne
 1047 0024 0223     		movne	r3, #2
 1048 0026 1375     		strbne	r3, [r2, #20]
 1049              	.L101:
 1050 0028 10BD     		pop	{r4, pc}
 1051              		.size	_ZNK4node12_GLOBAL__N_112ParamManager7convertEf14ConfigDataTypeRN6uavcan8protocol5param13Num
 1052              		.global	__aeabi_f2uiz
 1053              		.section	.text._ZNK13zubax_chibios6config9_internal5ParamIjE3getEv.isra.54,"ax",%progbits
 1054              		.align	1
 1055              		.thumb
 1056              		.thumb_func
 1057              		.type	_ZNK13zubax_chibios6config9_internal5ParamIjE3getEv.isra.54, %function
 1058              	_ZNK13zubax_chibios6config9_internal5ParamIjE3getEv.isra.54:
 1059              		@ args = 0, pretend = 0, frame = 0
 1060              		@ frame_needed = 0, uses_anonymous_args = 0
 1061 0000 08B5     		push	{r3, lr}
 1062 0002 FFF7FEFF 		bl	configGet
 1063 0006 FFF7FEFF 		bl	__aeabi_f2uiz
 1064 000a 08BD     		pop	{r3, pc}
 1065              		.size	_ZNK13zubax_chibios6config9_internal5ParamIjE3getEv.isra.54, .-_ZNK13zubax_chibios6config9_i
 1066              		.section	.text._ZNK6uavcan20RestartRequestServer17handleRestartNodeERKNS_21ReceivedDataStructureIN
 1067              		.align	1
 1068              		.weak	_ZNK6uavcan20RestartRequestServer17handleRestartNodeERKNS_21ReceivedDataStructureINS_8protoc
 1069              		.thumb
 1070              		.thumb_func
 1071              		.type	_ZNK6uavcan20RestartRequestServer17handleRestartNodeERKNS_21ReceivedDataStructureINS_8protoc
 1072              	_ZNK6uavcan20RestartRequestServer17handleRestartNodeERKNS_21ReceivedDataStructureINS_8protocol12Res
 1073              		@ args = 0, pretend = 0, frame = 0
 1074              		@ frame_needed = 0, uses_anonymous_args = 0
 1075 0000 0023     		movs	r3, #0
 1076 0002 D0B5     		push	{r4, r6, r7, lr}
 1077 0004 0CA7     		adr	r7, .L120
 1078 0006 D7E90067 		ldrd	r6, [r7]
 1079 000a 1446     		mov	r4, r2
 1080 000c 1370     		strb	r3, [r2]
 1081 000e D1E90023 		ldrd	r2, [r1]
 1082 0012 BB42     		cmp	r3, r7
 1083 0014 08BF     		it	eq
ARM GAS  /tmp/ccFEREDd.s 			page 20


 1084 0016 B242     		cmpeq	r2, r6
 1085 0018 0AD1     		bne	.L113
 1086 001a 806F     		ldr	r0, [r0, #120]
 1087 001c 40B1     		cbz	r0, .L113
 1088 001e 0368     		ldr	r3, [r0]
 1089 0020 9A68     		ldr	r2, [r3, #8]
 1090 0022 8B68     		ldr	r3, [r1, #8]
 1091 0024 0BB1     		cbz	r3, .L116
 1092 0026 D97E     		ldrb	r1, [r3, #27]	@ zero_extendqisi2
 1093 0028 00E0     		b	.L115
 1094              	.L116:
 1095 002a FF21     		movs	r1, #255
 1096              	.L115:
 1097 002c 9047     		blx	r2
 1098 002e 2070     		strb	r0, [r4]
 1099              	.L113:
 1100 0030 D0BD     		pop	{r4, r6, r7, pc}
 1101              	.L121:
 1102 0032 00BFAFF3 		.align	3
 1102      0080
 1103              	.L120:
 1104 0038 1E1B55CE 		.word	-833283298
 1105 003c AC000000 		.word	172
 1106              		.size	_ZNK6uavcan20RestartRequestServer17handleRestartNodeERKNS_21ReceivedDataStructureINS_8protoc
 1107              		.section	.text._ZN6uavcan11ParamServer12handleGetSetERKNS_8protocol5param7GetSet_8Request_ILi0EEER
 1108              		.align	1
 1109              		.weak	_ZN6uavcan11ParamServer12handleGetSetERKNS_8protocol5param7GetSet_8Request_ILi0EEERNS3_9Resp
 1110              		.thumb
 1111              		.thumb_func
 1112              		.type	_ZN6uavcan11ParamServer12handleGetSetERKNS_8protocol5param7GetSet_8Request_ILi0EEERNS3_9Resp
 1113              	_ZN6uavcan11ParamServer12handleGetSetERKNS_8protocol5param7GetSet_8Request_ILi0EEERNS3_9Response_IL
 1114              		@ args = 0, pretend = 0, frame = 0
 1115              		@ frame_needed = 0, uses_anonymous_args = 0
 1116 0000 F7B5     		push	{r0, r1, r2, r4, r5, r6, r7, lr}
 1117 0002 91F8A030 		ldrb	r3, [r1, #160]	@ zero_extendqisi2
 1118 0006 0746     		mov	r7, r0
 1119 0008 0E46     		mov	r6, r1
 1120 000a 1446     		mov	r4, r2
 1121 000c 02F5B075 		add	r5, r2, #352
 1122 0010 3BB9     		cbnz	r3, .L123
 1123 0012 D0F8F000 		ldr	r0, [r0, #240]
 1124 0016 0988     		ldrh	r1, [r1]
 1125 0018 0368     		ldr	r3, [r0]
 1126 001a 2A46     		mov	r2, r5
 1127 001c 9B68     		ldr	r3, [r3, #8]
 1128 001e 9847     		blx	r3
 1129 0020 04E0     		b	.L124
 1130              	.L123:
 1131 0022 2846     		mov	r0, r5
 1132 0024 A031     		adds	r1, r1, #160
 1133 0026 5E22     		movs	r2, #94
 1134 0028 FFF7FEFF 		bl	memcpy
 1135              	.L124:
 1136 002c 94F86031 		ldrb	r3, [r4, #352]	@ zero_extendqisi2
 1137 0030 23B3     		cbz	r3, .L122
 1138 0032 96F89F30 		ldrb	r3, [r6, #159]	@ zero_extendqisi2
 1139 0036 3BB1     		cbz	r3, .L126
ARM GAS  /tmp/ccFEREDd.s 			page 21


 1140 0038 D7F8F000 		ldr	r0, [r7, #240]
 1141 003c 2946     		mov	r1, r5
 1142 003e 0368     		ldr	r3, [r0]
 1143 0040 06F10802 		add	r2, r6, #8
 1144 0044 DB68     		ldr	r3, [r3, #12]
 1145 0046 9847     		blx	r3
 1146              	.L126:
 1147 0048 D7F8F000 		ldr	r0, [r7, #240]
 1148 004c 2946     		mov	r1, r5
 1149 004e 0368     		ldr	r3, [r0]
 1150 0050 2246     		mov	r2, r4
 1151 0052 1B69     		ldr	r3, [r3, #16]
 1152 0054 9847     		blx	r3
 1153 0056 94F89730 		ldrb	r3, [r4, #151]	@ zero_extendqisi2
 1154 005a 6BB1     		cbz	r3, .L127
 1155 005c D7F8F000 		ldr	r0, [r7, #240]
 1156 0060 04F5A472 		add	r2, r4, #328
 1157 0064 0368     		ldr	r3, [r0]
 1158 0066 0092     		str	r2, [sp]
 1159 0068 5E69     		ldr	r6, [r3, #20]
 1160 006a 2946     		mov	r1, r5
 1161 006c 04F19802 		add	r2, r4, #152
 1162 0070 04F59873 		add	r3, r4, #304
 1163 0074 B047     		blx	r6
 1164 0076 01E0     		b	.L122
 1165              	.L127:
 1166 0078 84F86031 		strb	r3, [r4, #352]
 1167              	.L122:
 1168 007c 03B0     		add	sp, sp, #12
 1169              		@ sp needed
 1170 007e F0BD     		pop	{r4, r5, r6, r7, pc}
 1171              		.size	_ZN6uavcan11ParamServer12handleGetSetERKNS_8protocol5param7GetSet_8Request_ILi0EEERNS3_9Resp
 1172              		.section	.text._ZN6uavcan11IntegerSpecILj7ELNS_10SignednessE0ELNS_8CastModeE0EE6encodeEhRNS_11Scal
 1173              		.align	1
 1174              		.thumb
 1175              		.thumb_func
 1176              		.type	_ZN6uavcan11IntegerSpecILj7ELNS_10SignednessE0ELNS_8CastModeE0EE6encodeEhRNS_11ScalarCodecEN
 1177              	_ZN6uavcan11IntegerSpecILj7ELNS_10SignednessE0ELNS_8CastModeE0EE6encodeEhRNS_11ScalarCodecENS_25Tai
 1178              		@ args = 0, pretend = 0, frame = 8
 1179              		@ frame_needed = 0, uses_anonymous_args = 0
 1180 0000 07B5     		push	{r0, r1, r2, lr}
 1181 0002 7F28     		cmp	r0, #127
 1182 0004 28BF     		it	cs
 1183 0006 7F20     		movcs	r0, #127
 1184 0008 02AB     		add	r3, sp, #8
 1185 000a 00F07F00 		and	r0, r0, #127
 1186 000e 03F8010D 		strb	r0, [r3, #-1]!
 1187 0012 0722     		movs	r2, #7
 1188 0014 0846     		mov	r0, r1
 1189 0016 1946     		mov	r1, r3
 1190 0018 FFF7FEFF 		bl	_ZN6uavcan11ScalarCodec15encodeBytesImplEPhj
 1191 001c 03B0     		add	sp, sp, #12
 1192              		@ sp needed
 1193 001e 5DF804FB 		ldr	pc, [sp], #4
 1194              		.size	_ZN6uavcan11IntegerSpecILj7ELNS_10SignednessE0ELNS_8CastModeE0EE6encodeEhRNS_11ScalarCodecEN
 1195              		.section	.text._ZN6uavcan11IntegerSpecILj8ELNS_10SignednessE0ELNS_8CastModeE0EE6encodeEhRNS_11Scal
 1196              		.align	1
ARM GAS  /tmp/ccFEREDd.s 			page 22


 1197              		.thumb
 1198              		.thumb_func
 1199              		.type	_ZN6uavcan11IntegerSpecILj8ELNS_10SignednessE0ELNS_8CastModeE0EE6encodeEhRNS_11ScalarCodecEN
 1200              	_ZN6uavcan11IntegerSpecILj8ELNS_10SignednessE0ELNS_8CastModeE0EE6encodeEhRNS_11ScalarCodecENS_25Tai
 1201              		@ args = 0, pretend = 0, frame = 8
 1202              		@ frame_needed = 0, uses_anonymous_args = 0
 1203 0000 07B5     		push	{r0, r1, r2, lr}
 1204 0002 02AB     		add	r3, sp, #8
 1205 0004 03F8010D 		strb	r0, [r3, #-1]!
 1206 0008 0822     		movs	r2, #8
 1207 000a 0846     		mov	r0, r1
 1208 000c 1946     		mov	r1, r3
 1209 000e FFF7FEFF 		bl	_ZN6uavcan11ScalarCodec15encodeBytesImplEPhj
 1210 0012 03B0     		add	sp, sp, #12
 1211              		@ sp needed
 1212 0014 5DF804FB 		ldr	pc, [sp], #4
 1213              		.size	_ZN6uavcan11IntegerSpecILj8ELNS_10SignednessE0ELNS_8CastModeE0EE6encodeEhRNS_11ScalarCodecEN
 1214              		.section	.text._ZN6uavcan11IntegerSpecILj48ELNS_10SignednessE0ELNS_8CastModeE0EE6encodeEyRNS_11Sca
 1215              		.align	1
 1216              		.thumb
 1217              		.thumb_func
 1218              		.type	_ZN6uavcan11IntegerSpecILj48ELNS_10SignednessE0ELNS_8CastModeE0EE6encodeEyRNS_11ScalarCodecE
 1219              	_ZN6uavcan11IntegerSpecILj48ELNS_10SignednessE0ELNS_8CastModeE0EE6encodeEyRNS_11ScalarCodecENS_25Ta
 1220              		@ args = 0, pretend = 0, frame = 8
 1221              		@ frame_needed = 0, uses_anonymous_args = 0
 1222 0000 37B5     		push	{r0, r1, r2, r4, r5, lr}
 1223 0002 0D46     		mov	r5, r1
 1224 0004 4FF6FF71 		movw	r1, #65535
 1225 0008 0446     		mov	r4, r0
 1226 000a A942     		cmp	r1, r5
 1227 000c 4FF0FF30 		mov	r0, #-1
 1228 0010 08BF     		it	eq
 1229 0012 A042     		cmpeq	r0, r4
 1230 0014 3CBF     		itt	cc
 1231 0016 0446     		movcc	r4, r0
 1232 0018 0D46     		movcc	r5, r1
 1233 001a 02A9     		add	r1, sp, #8
 1234 001c 61E90245 		strd	r4, [r1, #-8]!
 1235 0020 1046     		mov	r0, r2
 1236 0022 3022     		movs	r2, #48
 1237 0024 FFF7FEFF 		bl	_ZN6uavcan11ScalarCodec15encodeBytesImplEPhj
 1238 0028 03B0     		add	sp, sp, #12
 1239              		@ sp needed
 1240 002a 30BD     		pop	{r4, r5, pc}
 1241              		.size	_ZN6uavcan11IntegerSpecILj48ELNS_10SignednessE0ELNS_8CastModeE0EE6encodeEyRNS_11ScalarCodecE
 1242              		.global	__aeabi_fcmpun
 1243              		.global	__aeabi_fcmpge
 1244              		.global	__aeabi_fmul
 1245              		.global	__aeabi_fcmple
 1246              		.section	.text._ZNK4node12_GLOBAL__N_112ParamManager7convertEf14ConfigDataTypeRN6uavcan8protocol5p
 1247              		.align	1
 1248              		.thumb
 1249              		.thumb_func
 1250              		.type	_ZNK4node12_GLOBAL__N_112ParamManager7convertEf14ConfigDataTypeRN6uavcan8protocol5param6Valu
 1251              	_ZNK4node12_GLOBAL__N_112ParamManager7convertEf14ConfigDataTypeRN6uavcan8protocol5param6Value_ILi0E
 1252              		@ args = 0, pretend = 0, frame = 0
 1253              		@ frame_needed = 0, uses_anonymous_args = 0
ARM GAS  /tmp/ccFEREDd.s 			page 23


 1254 0000 0229     		cmp	r1, #2
 1255 0002 F8B5     		push	{r3, r4, r5, r6, r7, lr}
 1256 0004 0646     		mov	r6, r0
 1257 0006 1546     		mov	r5, r2
 1258 0008 28D1     		bne	.L141
 1259 000a 92F89730 		ldrb	r3, [r2, #151]	@ zero_extendqisi2
 1260 000e 3146     		mov	r1, r6
 1261 0010 032B     		cmp	r3, #3
 1262 0012 1CBF     		itt	ne
 1263 0014 0323     		movne	r3, #3
 1264 0016 82F89730 		strbne	r3, [r2, #151]
 1265 001a FFF7FEFF 		bl	__aeabi_fcmpun
 1266 001e 08B1     		cbz	r0, .L167
 1267 0020 0020     		movs	r0, #0
 1268 0022 19E0     		b	.L143
 1269              	.L167:
 1270 0024 26F00047 		bic	r7, r6, #-2147483648
 1271 0028 3846     		mov	r0, r7
 1272 002a 2249     		ldr	r1, .L173
 1273 002c FFF7FEFF 		bl	__aeabi_fcmpun
 1274 0030 58BB     		cbnz	r0, .L157
 1275 0032 3846     		mov	r0, r7
 1276 0034 1F49     		ldr	r1, .L173
 1277 0036 FFF7FEFF 		bl	__aeabi_fcmple
 1278 003a 30BB     		cbnz	r0, .L157
 1279 003c 3046     		mov	r0, r6
 1280 003e 0021     		movs	r1, #0
 1281 0040 FFF7FEFF 		bl	__aeabi_fcmple
 1282 0044 40B1     		cbz	r0, .L143
 1283 0046 3046     		mov	r0, r6
 1284 0048 0021     		movs	r1, #0
 1285 004a 4FF00104 		mov	r4, #1
 1286 004e FFF7FEFF 		bl	__aeabi_fcmpge
 1287              	.L171:
 1288 0052 00B9     		cbnz	r0, .L146
 1289 0054 0446     		mov	r4, r0
 1290              	.L146:
 1291 0056 E0B2     		uxtb	r0, r4
 1292              	.L143:
 1293 0058 2875     		strb	r0, [r5, #20]
 1294 005a F8BD     		pop	{r3, r4, r5, r6, r7, pc}
 1295              	.L141:
 1296 005c 0129     		cmp	r1, #1
 1297 005e 0AD1     		bne	.L148
 1298 0060 92F89730 		ldrb	r3, [r2, #151]	@ zero_extendqisi2
 1299 0064 012B     		cmp	r3, #1
 1300 0066 18BF     		it	ne
 1301 0068 82F89710 		strbne	r1, [r2, #151]
 1302 006c FFF7FEFF 		bl	__aeabi_f2lz
 1303 0070 C5E90201 		strd	r0, [r5, #8]
 1304 0074 F8BD     		pop	{r3, r4, r5, r6, r7, pc}
 1305              	.L148:
 1306 0076 D9B9     		cbnz	r1, .L140
 1307 0078 92F89730 		ldrb	r3, [r2, #151]	@ zero_extendqisi2
 1308 007c 022B     		cmp	r3, #2
 1309 007e 1CBF     		itt	ne
 1310 0080 0223     		movne	r3, #2
ARM GAS  /tmp/ccFEREDd.s 			page 24


 1311 0082 82F89730 		strbne	r3, [r2, #151]
 1312 0086 2861     		str	r0, [r5, #16]	@ float
 1313 0088 F8BD     		pop	{r3, r4, r5, r6, r7, pc}
 1314              	.L157:
 1315 008a 3846     		mov	r0, r7
 1316 008c 4FF05051 		mov	r1, #872415232
 1317 0090 FFF7FEFF 		bl	__aeabi_fcmple
 1318 0094 50B9     		cbnz	r0, .L172
 1319 0096 3846     		mov	r0, r7
 1320 0098 0749     		ldr	r1, .L173+4
 1321 009a FFF7FEFF 		bl	__aeabi_fmul
 1322 009e 0146     		mov	r1, r0
 1323 00a0 3846     		mov	r0, r7
 1324 00a2 4FF00104 		mov	r4, #1
 1325 00a6 FFF7FEFF 		bl	__aeabi_fcmple
 1326 00aa D2E7     		b	.L171
 1327              	.L172:
 1328 00ac 0120     		movs	r0, #1
 1329 00ae D3E7     		b	.L143
 1330              	.L140:
 1331 00b0 F8BD     		pop	{r3, r4, r5, r6, r7, pc}
 1332              	.L174:
 1333 00b2 00BF     		.align	2
 1334              	.L173:
 1335 00b4 FFFF7F7F 		.word	2139095039
 1336 00b8 0000A035 		.word	899678208
 1337              		.size	_ZNK4node12_GLOBAL__N_112ParamManager7convertEf14ConfigDataTypeRN6uavcan8protocol5param6Valu
 1338              		.section	.text._ZNK4node12_GLOBAL__N_112ParamManager14readParamValueERKN6uavcan5ArrayINS2_11Intege
 1339              		.align	1
 1340              		.thumb
 1341              		.thumb_func
 1342              		.type	_ZNK4node12_GLOBAL__N_112ParamManager14readParamValueERKN6uavcan5ArrayINS2_11IntegerSpecILj8
 1343              	_ZNK4node12_GLOBAL__N_112ParamManager14readParamValueERKN6uavcan5ArrayINS2_11IntegerSpecILj8ELNS2_1
 1344              		@ args = 0, pretend = 0, frame = 24
 1345              		@ frame_needed = 0, uses_anonymous_args = 0
 1346 0000 F0B5     		push	{r4, r5, r6, r7, lr}
 1347 0002 0B78     		ldrb	r3, [r1]	@ zero_extendqisi2
 1348 0004 87B0     		sub	sp, sp, #28
 1349 0006 0B44     		add	r3, r3, r1
 1350 0008 0026     		movs	r6, #0
 1351 000a 4D1C     		adds	r5, r1, #1
 1352 000c 0C46     		mov	r4, r1
 1353 000e 5E70     		strb	r6, [r3, #1]
 1354 0010 2846     		mov	r0, r5
 1355 0012 01A9     		add	r1, sp, #4
 1356 0014 1746     		mov	r7, r2
 1357 0016 FFF7FEFF 		bl	configGetDescr
 1358 001a B042     		cmp	r0, r6
 1359 001c 0ADB     		blt	.L175
 1360 001e 2378     		ldrb	r3, [r4]	@ zero_extendqisi2
 1361 0020 2846     		mov	r0, r5
 1362 0022 1C44     		add	r4, r4, r3
 1363 0024 6670     		strb	r6, [r4, #1]
 1364 0026 FFF7FEFF 		bl	configGet
 1365 002a 9DF81410 		ldrb	r1, [sp, #20]	@ zero_extendqisi2
 1366 002e 3A46     		mov	r2, r7
 1367 0030 FFF7FEFF 		bl	_ZNK4node12_GLOBAL__N_112ParamManager7convertEf14ConfigDataTypeRN6uavcan8protocol5param6Value_I
ARM GAS  /tmp/ccFEREDd.s 			page 25


 1368              	.L175:
 1369 0034 07B0     		add	sp, sp, #28
 1370              		@ sp needed
 1371 0036 F0BD     		pop	{r4, r5, r6, r7, pc}
 1372              		.size	_ZNK4node12_GLOBAL__N_112ParamManager14readParamValueERKN6uavcan5ArrayINS2_11IntegerSpecILj8
 1373              		.section	.text._ZNK4node12_GLOBAL__N_112ParamManager22readParamDefaultMaxMinERKN6uavcan5ArrayINS2_
 1374              		.align	1
 1375              		.thumb
 1376              		.thumb_func
 1377              		.type	_ZNK4node12_GLOBAL__N_112ParamManager22readParamDefaultMaxMinERKN6uavcan5ArrayINS2_11Integer
 1378              	_ZNK4node12_GLOBAL__N_112ParamManager22readParamDefaultMaxMinERKN6uavcan5ArrayINS2_11IntegerSpecILj
 1379              		@ args = 4, pretend = 0, frame = 24
 1380              		@ frame_needed = 0, uses_anonymous_args = 0
 1381 0000 30B5     		push	{r4, r5, lr}
 1382 0002 1C46     		mov	r4, r3
 1383 0004 0B78     		ldrb	r3, [r1]	@ zero_extendqisi2
 1384 0006 87B0     		sub	sp, sp, #28
 1385 0008 0B44     		add	r3, r3, r1
 1386 000a 1546     		mov	r5, r2
 1387 000c 0022     		movs	r2, #0
 1388 000e 481C     		adds	r0, r1, #1
 1389 0010 5A70     		strb	r2, [r3, #1]
 1390 0012 01A9     		add	r1, sp, #4
 1391 0014 FFF7FEFF 		bl	configGetDescr
 1392 0018 0028     		cmp	r0, #0
 1393 001a 11DB     		blt	.L177
 1394 001c 0298     		ldr	r0, [sp, #8]	@ float
 1395 001e 9DF81410 		ldrb	r1, [sp, #20]	@ zero_extendqisi2
 1396 0022 2A46     		mov	r2, r5
 1397 0024 FFF7FEFF 		bl	_ZNK4node12_GLOBAL__N_112ParamManager7convertEf14ConfigDataTypeRN6uavcan8protocol5param6Value_I
 1398 0028 0498     		ldr	r0, [sp, #16]	@ float
 1399 002a 9DF81410 		ldrb	r1, [sp, #20]	@ zero_extendqisi2
 1400 002e 2246     		mov	r2, r4
 1401 0030 FFF7FEFF 		bl	_ZNK4node12_GLOBAL__N_112ParamManager7convertEf14ConfigDataTypeRN6uavcan8protocol5param13Numeri
 1402 0034 0398     		ldr	r0, [sp, #12]	@ float
 1403 0036 9DF81410 		ldrb	r1, [sp, #20]	@ zero_extendqisi2
 1404 003a 0A9A     		ldr	r2, [sp, #40]
 1405 003c FFF7FEFF 		bl	_ZNK4node12_GLOBAL__N_112ParamManager7convertEf14ConfigDataTypeRN6uavcan8protocol5param13Numeri
 1406              	.L177:
 1407 0040 07B0     		add	sp, sp, #28
 1408              		@ sp needed
 1409 0042 30BD     		pop	{r4, r5, pc}
 1410              		.size	_ZNK4node12_GLOBAL__N_112ParamManager22readParamDefaultMaxMinERKN6uavcan5ArrayINS2_11Integer
 1411              		.section	.text._ZNK6uavcan5ArrayINS_11IntegerSpecILj8ELNS_10SignednessE0ELNS_8CastModeE0EEELNS_9Ar
 1412              		.align	1
 1413              		.thumb
 1414              		.thumb_func
 1415              		.type	_ZNK6uavcan5ArrayINS_11IntegerSpecILj8ELNS_10SignednessE0ELNS_8CastModeE0EEELNS_9ArrayModeE1
 1416              	_ZNK6uavcan5ArrayINS_11IntegerSpecILj8ELNS_10SignednessE0ELNS_8CastModeE0EEELNS_9ArrayModeE1ELj80EE
 1417              		@ args = 0, pretend = 0, frame = 0
 1418              		@ frame_needed = 0, uses_anonymous_args = 0
 1419 0000 012A     		cmp	r2, #1
 1420 0002 70B5     		push	{r4, r5, r6, lr}
 1421 0004 0446     		mov	r4, r0
 1422 0006 0E46     		mov	r6, r1
 1423 0008 03D1     		bne	.L180
 1424              	.L184:
ARM GAS  /tmp/ccFEREDd.s 			page 26


 1425 000a 2378     		ldrb	r3, [r4]	@ zero_extendqisi2
 1426 000c 5BB1     		cbz	r3, .L181
 1427 000e 0025     		movs	r5, #0
 1428 0010 05E0     		b	.L182
 1429              	.L180:
 1430 0012 0078     		ldrb	r0, [r0]	@ zero_extendqisi2
 1431 0014 FFF7FEFF 		bl	_ZN6uavcan11IntegerSpecILj7ELNS_10SignednessE0ELNS_8CastModeE0EE6encodeEhRNS_11ScalarCodecENS_2
 1432 0018 0028     		cmp	r0, #0
 1433 001a F6DC     		bgt	.L184
 1434 001c 70BD     		pop	{r4, r5, r6, pc}
 1435              	.L182:
 1436 001e 2278     		ldrb	r2, [r4]	@ zero_extendqisi2
 1437 0020 EBB2     		uxtb	r3, r5
 1438 0022 9A42     		cmp	r2, r3
 1439 0024 01D8     		bhi	.L185
 1440              	.L181:
 1441 0026 0120     		movs	r0, #1
 1442 0028 70BD     		pop	{r4, r5, r6, pc}
 1443              	.L185:
 1444 002a 2344     		add	r3, r3, r4
 1445 002c 5878     		ldrb	r0, [r3, #1]	@ zero_extendqisi2
 1446 002e 3146     		mov	r1, r6
 1447 0030 FFF7FEFF 		bl	_ZN6uavcan11IntegerSpecILj8ELNS_10SignednessE0ELNS_8CastModeE0EE6encodeEhRNS_11ScalarCodecENS_2
 1448 0034 0028     		cmp	r0, #0
 1449 0036 05F10105 		add	r5, r5, #1
 1450 003a F0DC     		bgt	.L182
 1451 003c 70BD     		pop	{r4, r5, r6, pc}
 1452              		.size	_ZNK6uavcan5ArrayINS_11IntegerSpecILj8ELNS_10SignednessE0ELNS_8CastModeE0EEELNS_9ArrayModeE1
 1453              		.section	.text._ZN6uavcan8snprintfEPcjPKcz,"axG",%progbits,_ZN6uavcan8snprintfEPcjPKcz,comdat
 1454              		.align	1
 1455              		.weak	_ZN6uavcan8snprintfEPcjPKcz
 1456              		.thumb
 1457              		.thumb_func
 1458              		.type	_ZN6uavcan8snprintfEPcjPKcz, %function
 1459              	_ZN6uavcan8snprintfEPcjPKcz:
 1460              		@ args = 4, pretend = 8, frame = 8
 1461              		@ frame_needed = 0, uses_anonymous_args = 1
 1462 0000 0CB4     		push	{r2, r3}
 1463 0002 07B5     		push	{r0, r1, r2, lr}
 1464 0004 04AB     		add	r3, sp, #16
 1465 0006 53F8042B 		ldr	r2, [r3], #4
 1466 000a 0193     		str	r3, [sp, #4]
 1467 000c FFF7FEFF 		bl	vsnprintf
 1468 0010 03B0     		add	sp, sp, #12
 1469              		@ sp needed
 1470 0012 5DF804EB 		ldr	lr, [sp], #4
 1471 0016 02B0     		add	sp, sp, #8
 1472 0018 7047     		bx	lr
 1473              		.size	_ZN6uavcan8snprintfEPcjPKcz, .-_ZN6uavcan8snprintfEPcjPKcz
 1474              		.section	.text._ZN6uavcan22GlobalDataTypeRegistry5EntryC2Ev,"axG",%progbits,_ZN6uavcan22GlobalData
 1475              		.align	1
 1476              		.weak	_ZN6uavcan22GlobalDataTypeRegistry5EntryC2Ev
 1477              		.thumb
 1478              		.thumb_func
 1479              		.type	_ZN6uavcan22GlobalDataTypeRegistry5EntryC2Ev, %function
 1480              	_ZN6uavcan22GlobalDataTypeRegistry5EntryC2Ev:
 1481              		@ args = 0, pretend = 0, frame = 0
ARM GAS  /tmp/ccFEREDd.s 			page 27


 1482              		@ frame_needed = 0, uses_anonymous_args = 0
 1483 0000 30B5     		push	{r4, r5, lr}
 1484 0002 0022     		movs	r2, #0
 1485 0004 0549     		ldr	r1, .L193
 1486 0006 0260     		str	r2, [r0]
 1487 0008 0024     		movs	r4, #0
 1488 000a 0025     		movs	r5, #0
 1489 000c 0275     		strb	r2, [r0, #20]
 1490 000e 4FF0FF32 		mov	r2, #-1
 1491 0012 C0E90245 		strd	r4, [r0, #8]
 1492 0016 0161     		str	r1, [r0, #16]
 1493 0018 8261     		str	r2, [r0, #24]
 1494 001a 30BD     		pop	{r4, r5, pc}
 1495              	.L194:
 1496              		.align	2
 1497              	.L193:
 1498 001c 19000000 		.word	.LC1
 1499              		.size	_ZN6uavcan22GlobalDataTypeRegistry5EntryC2Ev, .-_ZN6uavcan22GlobalDataTypeRegistry5EntryC2Ev
 1500              		.weak	_ZN6uavcan22GlobalDataTypeRegistry5EntryC1Ev
 1501              		.thumb_set _ZN6uavcan22GlobalDataTypeRegistry5EntryC1Ev,_ZN6uavcan22GlobalDataTypeRegistry5EntryC2
 1502              		.section	.text._ZN6uavcan16TransferListenerC2ERNS_19TransferPerfCounterERKNS_18DataTypeDescriptorE
 1503              		.align	1
 1504              		.weak	_ZN6uavcan16TransferListenerC2ERNS_19TransferPerfCounterERKNS_18DataTypeDescriptorEtRNS_14IP
 1505              		.thumb
 1506              		.thumb_func
 1507              		.type	_ZN6uavcan16TransferListenerC2ERNS_19TransferPerfCounterERKNS_18DataTypeDescriptorEtRNS_14IP
 1508              	_ZN6uavcan16TransferListenerC2ERNS_19TransferPerfCounterERKNS_18DataTypeDescriptorEtRNS_14IPoolAllo
 1509              		@ args = 4, pretend = 0, frame = 0
 1510              		@ frame_needed = 0, uses_anonymous_args = 0
 1511 0000 70B5     		push	{r4, r5, r6, lr}
 1512 0002 0446     		mov	r4, r0
 1513 0004 094E     		ldr	r6, .L196
 1514 0006 0498     		ldr	r0, [sp, #16]
 1515 0008 0025     		movs	r5, #0
 1516 000a 2061     		str	r0, [r4, #16]
 1517 000c E061     		str	r0, [r4, #28]
 1518 000e 6560     		str	r5, [r4, #4]
 1519 0010 2660     		str	r6, [r4]
 1520 0012 A260     		str	r2, [r4, #8]
 1521 0014 E560     		str	r5, [r4, #12]
 1522 0016 A382     		strh	r3, [r4, #20]	@ movhi
 1523 0018 A561     		str	r5, [r4, #24]
 1524 001a 2162     		str	r1, [r4, #32]
 1525 001c 1046     		mov	r0, r2
 1526 001e FFF7FEFF 		bl	_ZNK6uavcan17DataTypeSignature13toTransferCRCEv
 1527 0022 84F82650 		strb	r5, [r4, #38]
 1528 0026 A084     		strh	r0, [r4, #36]	@ movhi
 1529 0028 2046     		mov	r0, r4
 1530 002a 70BD     		pop	{r4, r5, r6, pc}
 1531              	.L197:
 1532              		.align	2
 1533              	.L196:
 1534 002c 08000000 		.word	_ZTVN6uavcan16TransferListenerE+8
 1535              		.size	_ZN6uavcan16TransferListenerC2ERNS_19TransferPerfCounterERKNS_18DataTypeDescriptorEtRNS_14IP
 1536              		.weak	_ZN6uavcan16TransferListenerC1ERNS_19TransferPerfCounterERKNS_18DataTypeDescriptorEtRNS_14IP
 1537              		.thumb_set _ZN6uavcan16TransferListenerC1ERNS_19TransferPerfCounterERKNS_18DataTypeDescriptorEtRNS
 1538              		.section	.text._ZN6uavcan5INode13getDispatcherEv,"axG",%progbits,_ZN6uavcan5INode13getDispatcherEv
ARM GAS  /tmp/ccFEREDd.s 			page 28


 1539              		.align	1
 1540              		.weak	_ZN6uavcan5INode13getDispatcherEv
 1541              		.thumb
 1542              		.thumb_func
 1543              		.type	_ZN6uavcan5INode13getDispatcherEv, %function
 1544              	_ZN6uavcan5INode13getDispatcherEv:
 1545              		@ args = 0, pretend = 0, frame = 0
 1546              		@ frame_needed = 0, uses_anonymous_args = 0
 1547 0000 08B5     		push	{r3, lr}
 1548 0002 0368     		ldr	r3, [r0]
 1549 0004 DB68     		ldr	r3, [r3, #12]
 1550 0006 9847     		blx	r3
 1551 0008 0830     		adds	r0, r0, #8
 1552 000a 08BD     		pop	{r3, pc}
 1553              		.size	_ZN6uavcan5INode13getDispatcherEv, .-_ZN6uavcan5INode13getDispatcherEv
 1554              		.section	.text._ZNK6uavcan22TransportStatsProvider23handleGetTransportStatsERKNS_8protocol18GetTra
 1555              		.align	1
 1556              		.weak	_ZNK6uavcan22TransportStatsProvider23handleGetTransportStatsERKNS_8protocol18GetTransportSta
 1557              		.thumb
 1558              		.thumb_func
 1559              		.type	_ZNK6uavcan22TransportStatsProvider23handleGetTransportStatsERKNS_8protocol18GetTransportSta
 1560              	_ZNK6uavcan22TransportStatsProvider23handleGetTransportStatsERKNS_8protocol18GetTransportStats_8Req
 1561              		@ args = 0, pretend = 0, frame = 24
 1562              		@ frame_needed = 0, uses_anonymous_args = 0
 1563 0000 2DE9F043 		push	{r4, r5, r6, r7, r8, r9, lr}
 1564 0004 0546     		mov	r5, r0
 1565 0006 87B0     		sub	sp, sp, #28
 1566 0008 4068     		ldr	r0, [r0, #4]
 1567 000a 1446     		mov	r4, r2
 1568 000c FFF7FEFF 		bl	_ZN6uavcan5INode13getDispatcherEv
 1569 0010 D0E93023 		ldrd	r2, [r0, #192]
 1570 0014 C4E90423 		strd	r2, [r4, #16]
 1571 0018 D0E92C23 		ldrd	r2, [r0, #176]
 1572 001c C4E90023 		strd	r2, [r4]
 1573 0020 D0E92E23 		ldrd	r2, [r0, #184]
 1574 0024 6868     		ldr	r0, [r5, #4]
 1575 0026 C4E90223 		strd	r2, [r4, #8]
 1576 002a FFF7FEFF 		bl	_ZN6uavcan5INode13getDispatcherEv
 1577 002e 0646     		mov	r6, r0
 1578 0030 00F10807 		add	r7, r0, #8
 1579 0034 0025     		movs	r5, #0
 1580              	.L200:
 1581 0036 96F89830 		ldrb	r3, [r6, #152]	@ zero_extendqisi2
 1582 003a EAB2     		uxtb	r2, r5
 1583 003c 9342     		cmp	r3, r2
 1584 003e 2DD9     		bls	.L205
 1585 0040 6846     		mov	r0, sp
 1586 0042 3946     		mov	r1, r7
 1587 0044 FFF7FEFF 		bl	_ZNK6uavcan12CanIOManager20getIfacePerfCountersEh
 1588 0048 DDE90423 		ldrd	r2, [sp, #16]
 1589 004c DDE90089 		ldrd	r8, [sp]
 1590 0050 DDE90201 		ldrd	r0, [sp, #8]
 1591 0054 94F818E0 		ldrb	lr, [r4, #24]	@ zero_extendqisi2
 1592 0058 BEF1020F 		cmp	lr, #2
 1593 005c 9CBF     		itt	ls
 1594 005e 0EF1010E 		addls	lr, lr, #1
 1595 0062 84F818E0 		strbls	lr, [r4, #24]
ARM GAS  /tmp/ccFEREDd.s 			page 29


 1596 0066 94F818C0 		ldrb	ip, [r4, #24]	@ zero_extendqisi2
 1597 006a 0CF1FF3E 		add	lr, ip, #-1
 1598 006e 5FFA8EFE 		uxtb	lr, lr
 1599 0072 E645     		cmp	lr, ip
 1600 0074 04D3     		bcc	.L202
 1601 0076 BCF1000F 		cmp	ip, #0
 1602 007a 08BF     		it	eq
 1603 007c 4FF0000E 		moveq	lr, #0
 1604              	.L202:
 1605 0080 4FF0180C 		mov	ip, #24
 1606 0084 0CFB0E4E 		mla	lr, ip, lr, r4
 1607 0088 0135     		adds	r5, r5, #1
 1608 008a CEE90889 		strd	r8, [lr, #32]
 1609 008e CEE90A01 		strd	r0, [lr, #40]
 1610 0092 CEE90C23 		strd	r2, [lr, #48]
 1611 0096 0EF1200E 		add	lr, lr, #32
 1612 009a CCE7     		b	.L200
 1613              	.L205:
 1614 009c 07B0     		add	sp, sp, #28
 1615              		@ sp needed
 1616 009e BDE8F083 		pop	{r4, r5, r6, r7, r8, r9, pc}
 1617              		.size	_ZNK6uavcan22TransportStatsProvider23handleGetTransportStatsERKNS_8protocol18GetTransportSta
 1618              		.section	.text._ZN6uavcan13ServiceServerINS_8protocol16GetDataTypeInfo_ENS_12MethodBinderIPNS_20Da
 1619              		.align	1
 1620              		.thumb
 1621              		.thumb_func
 1622              		.type	_ZN6uavcan13ServiceServerINS_8protocol16GetDataTypeInfo_ENS_12MethodBinderIPNS_20DataTypeInf
 1623              	_ZN6uavcan13ServiceServerINS_8protocol16GetDataTypeInfo_ENS_12MethodBinderIPNS_20DataTypeInfoProvid
 1624              		@ args = 0, pretend = 0, frame = 0
 1625              		@ frame_needed = 0, uses_anonymous_args = 0
 1626 0000 10B5     		push	{r4, lr}
 1627 0002 0446     		mov	r4, r0
 1628 0004 006E     		ldr	r0, [r0, #96]
 1629 0006 FFF7FEFF 		bl	_ZN6uavcan5INode13getDispatcherEv
 1630 000a C030     		adds	r0, r0, #192
 1631 000c FFF7FEFF 		bl	_ZN6uavcan19TransferPerfCounter8addErrorEv.isra.6
 1632 0010 636F     		ldr	r3, [r4, #116]
 1633 0012 0133     		adds	r3, r3, #1
 1634 0014 6367     		str	r3, [r4, #116]
 1635 0016 10BD     		pop	{r4, pc}
 1636              		.size	_ZN6uavcan13ServiceServerINS_8protocol16GetDataTypeInfo_ENS_12MethodBinderIPNS_20DataTypeInf
 1637              		.section	.text._ZN6uavcan17GenericSubscriberINS_8protocol16GetDataTypeInfo_ENS2_8Request_ILi0EEENS
 1638              		.align	1
 1639              		.thumb
 1640              		.thumb_func
 1641              		.type	_ZN6uavcan17GenericSubscriberINS_8protocol16GetDataTypeInfo_ENS2_8Request_ILi0EEENS_16Transf
 1642              	_ZN6uavcan17GenericSubscriberINS_8protocol16GetDataTypeInfo_ENS2_8Request_ILi0EEENS_16TransferListe
 1643              		@ args = 0, pretend = 0, frame = 0
 1644              		@ frame_needed = 0, uses_anonymous_args = 0
 1645 0000 08B5     		push	{r3, lr}
 1646 0002 8368     		ldr	r3, [r0, #8]
 1647 0004 0133     		adds	r3, r3, #1
 1648 0006 8360     		str	r3, [r0, #8]
 1649 0008 4068     		ldr	r0, [r0, #4]
 1650 000a FFF7FEFF 		bl	_ZN6uavcan5INode13getDispatcherEv
 1651 000e BDE80840 		pop	{r3, lr}
 1652 0012 C030     		adds	r0, r0, #192
ARM GAS  /tmp/ccFEREDd.s 			page 30


 1653 0014 FFF7FEBF 		b	_ZN6uavcan19TransferPerfCounter8addErrorEv.isra.6
 1654              		.size	_ZN6uavcan17GenericSubscriberINS_8protocol16GetDataTypeInfo_ENS2_8Request_ILi0EEENS_16Transf
 1655              		.section	.text._ZN6uavcan13ServiceServerINS_8protocol4file20BeginFirmwareUpdate_EPFvRKNS_21Receive
 1656              		.align	1
 1657              		.thumb
 1658              		.thumb_func
 1659              		.type	_ZN6uavcan13ServiceServerINS_8protocol4file20BeginFirmwareUpdate_EPFvRKNS_21ReceivedDataStru
 1660              	_ZN6uavcan13ServiceServerINS_8protocol4file20BeginFirmwareUpdate_EPFvRKNS_21ReceivedDataStructureIN
 1661              		@ args = 0, pretend = 0, frame = 0
 1662              		@ frame_needed = 0, uses_anonymous_args = 0
 1663 0000 10B5     		push	{r4, lr}
 1664 0002 0446     		mov	r4, r0
 1665 0004 006E     		ldr	r0, [r0, #96]
 1666 0006 FFF7FEFF 		bl	_ZN6uavcan5INode13getDispatcherEv
 1667 000a C030     		adds	r0, r0, #192
 1668 000c FFF7FEFF 		bl	_ZN6uavcan19TransferPerfCounter8addErrorEv.isra.6
 1669 0010 E36E     		ldr	r3, [r4, #108]
 1670 0012 0133     		adds	r3, r3, #1
 1671 0014 E366     		str	r3, [r4, #108]
 1672 0016 10BD     		pop	{r4, pc}
 1673              		.size	_ZN6uavcan13ServiceServerINS_8protocol4file20BeginFirmwareUpdate_EPFvRKNS_21ReceivedDataStru
 1674              		.section	.text._ZN6uavcan17GenericSubscriberINS_8protocol4file20BeginFirmwareUpdate_ENS3_8Request_
 1675              		.align	1
 1676              		.thumb
 1677              		.thumb_func
 1678              		.type	_ZN6uavcan17GenericSubscriberINS_8protocol4file20BeginFirmwareUpdate_ENS3_8Request_ILi0EEENS
 1679              	_ZN6uavcan17GenericSubscriberINS_8protocol4file20BeginFirmwareUpdate_ENS3_8Request_ILi0EEENS_16Tran
 1680              		@ args = 0, pretend = 0, frame = 0
 1681              		@ frame_needed = 0, uses_anonymous_args = 0
 1682 0000 08B5     		push	{r3, lr}
 1683 0002 8368     		ldr	r3, [r0, #8]
 1684 0004 0133     		adds	r3, r3, #1
 1685 0006 8360     		str	r3, [r0, #8]
 1686 0008 4068     		ldr	r0, [r0, #4]
 1687 000a FFF7FEFF 		bl	_ZN6uavcan5INode13getDispatcherEv
 1688 000e BDE80840 		pop	{r3, lr}
 1689 0012 C030     		adds	r0, r0, #192
 1690 0014 FFF7FEBF 		b	_ZN6uavcan19TransferPerfCounter8addErrorEv.isra.6
 1691              		.size	_ZN6uavcan17GenericSubscriberINS_8protocol4file20BeginFirmwareUpdate_ENS3_8Request_ILi0EEENS
 1692              		.section	.text._ZN6uavcan13ServiceServerINS_8protocol5param7GetSet_ENS_12MethodBinderIPNS_11ParamS
 1693              		.align	1
 1694              		.thumb
 1695              		.thumb_func
 1696              		.type	_ZN6uavcan13ServiceServerINS_8protocol5param7GetSet_ENS_12MethodBinderIPNS_11ParamServerEMS5
 1697              	_ZN6uavcan13ServiceServerINS_8protocol5param7GetSet_ENS_12MethodBinderIPNS_11ParamServerEMS5_FvRKNS
 1698              		@ args = 0, pretend = 0, frame = 0
 1699              		@ frame_needed = 0, uses_anonymous_args = 0
 1700 0000 10B5     		push	{r4, lr}
 1701 0002 0446     		mov	r4, r0
 1702 0004 006E     		ldr	r0, [r0, #96]
 1703 0006 FFF7FEFF 		bl	_ZN6uavcan5INode13getDispatcherEv
 1704 000a C030     		adds	r0, r0, #192
 1705 000c FFF7FEFF 		bl	_ZN6uavcan19TransferPerfCounter8addErrorEv.isra.6
 1706 0010 636F     		ldr	r3, [r4, #116]
 1707 0012 0133     		adds	r3, r3, #1
 1708 0014 6367     		str	r3, [r4, #116]
 1709 0016 10BD     		pop	{r4, pc}
ARM GAS  /tmp/ccFEREDd.s 			page 31


 1710              		.size	_ZN6uavcan13ServiceServerINS_8protocol5param7GetSet_ENS_12MethodBinderIPNS_11ParamServerEMS5
 1711              		.section	.text._ZN6uavcan17GenericSubscriberINS_8protocol5param7GetSet_ENS3_8Request_ILi0EEENS_16T
 1712              		.align	1
 1713              		.thumb
 1714              		.thumb_func
 1715              		.type	_ZN6uavcan17GenericSubscriberINS_8protocol5param7GetSet_ENS3_8Request_ILi0EEENS_16TransferLi
 1716              	_ZN6uavcan17GenericSubscriberINS_8protocol5param7GetSet_ENS3_8Request_ILi0EEENS_16TransferListenerE
 1717              		@ args = 0, pretend = 0, frame = 0
 1718              		@ frame_needed = 0, uses_anonymous_args = 0
 1719 0000 08B5     		push	{r3, lr}
 1720 0002 8368     		ldr	r3, [r0, #8]
 1721 0004 0133     		adds	r3, r3, #1
 1722 0006 8360     		str	r3, [r0, #8]
 1723 0008 4068     		ldr	r0, [r0, #4]
 1724 000a FFF7FEFF 		bl	_ZN6uavcan5INode13getDispatcherEv
 1725 000e BDE80840 		pop	{r3, lr}
 1726 0012 C030     		adds	r0, r0, #192
 1727 0014 FFF7FEBF 		b	_ZN6uavcan19TransferPerfCounter8addErrorEv.isra.6
 1728              		.size	_ZN6uavcan17GenericSubscriberINS_8protocol5param7GetSet_ENS3_8Request_ILi0EEENS_16TransferLi
 1729              		.section	.text._ZN6uavcan13ServiceServerINS_8protocol18GetTransportStats_ENS_12MethodBinderIPKNS_2
 1730              		.align	1
 1731              		.thumb
 1732              		.thumb_func
 1733              		.type	_ZN6uavcan13ServiceServerINS_8protocol18GetTransportStats_ENS_12MethodBinderIPKNS_22Transpor
 1734              	_ZN6uavcan13ServiceServerINS_8protocol18GetTransportStats_ENS_12MethodBinderIPKNS_22TransportStatsP
 1735              		@ args = 0, pretend = 0, frame = 0
 1736              		@ frame_needed = 0, uses_anonymous_args = 0
 1737 0000 10B5     		push	{r4, lr}
 1738 0002 0446     		mov	r4, r0
 1739 0004 006E     		ldr	r0, [r0, #96]
 1740 0006 FFF7FEFF 		bl	_ZN6uavcan5INode13getDispatcherEv
 1741 000a C030     		adds	r0, r0, #192
 1742 000c FFF7FEFF 		bl	_ZN6uavcan19TransferPerfCounter8addErrorEv.isra.6
 1743 0010 636F     		ldr	r3, [r4, #116]
 1744 0012 0133     		adds	r3, r3, #1
 1745 0014 6367     		str	r3, [r4, #116]
 1746 0016 10BD     		pop	{r4, pc}
 1747              		.size	_ZN6uavcan13ServiceServerINS_8protocol18GetTransportStats_ENS_12MethodBinderIPKNS_22Transpor
 1748              		.section	.text._ZN6uavcan13ServiceServerINS_8protocol12GetNodeInfo_ENS_12MethodBinderIPNS_18NodeSt
 1749              		.align	1
 1750              		.thumb
 1751              		.thumb_func
 1752              		.type	_ZN6uavcan13ServiceServerINS_8protocol12GetNodeInfo_ENS_12MethodBinderIPNS_18NodeStatusProvi
 1753              	_ZN6uavcan13ServiceServerINS_8protocol12GetNodeInfo_ENS_12MethodBinderIPNS_18NodeStatusProviderEMS4
 1754              		@ args = 0, pretend = 0, frame = 0
 1755              		@ frame_needed = 0, uses_anonymous_args = 0
 1756 0000 10B5     		push	{r4, lr}
 1757 0002 0446     		mov	r4, r0
 1758 0004 006E     		ldr	r0, [r0, #96]
 1759 0006 FFF7FEFF 		bl	_ZN6uavcan5INode13getDispatcherEv
 1760 000a C030     		adds	r0, r0, #192
 1761 000c FFF7FEFF 		bl	_ZN6uavcan19TransferPerfCounter8addErrorEv.isra.6
 1762 0010 636F     		ldr	r3, [r4, #116]
 1763 0012 0133     		adds	r3, r3, #1
 1764 0014 6367     		str	r3, [r4, #116]
 1765 0016 10BD     		pop	{r4, pc}
 1766              		.size	_ZN6uavcan13ServiceServerINS_8protocol12GetNodeInfo_ENS_12MethodBinderIPNS_18NodeStatusProvi
ARM GAS  /tmp/ccFEREDd.s 			page 32


 1767              		.section	.text._ZN6uavcan5INode14getSystemClockEv,"axG",%progbits,_ZN6uavcan5INode14getSystemClock
 1768              		.align	1
 1769              		.weak	_ZN6uavcan5INode14getSystemClockEv
 1770              		.thumb
 1771              		.thumb_func
 1772              		.type	_ZN6uavcan5INode14getSystemClockEv, %function
 1773              	_ZN6uavcan5INode14getSystemClockEv:
 1774              		@ args = 0, pretend = 0, frame = 0
 1775              		@ frame_needed = 0, uses_anonymous_args = 0
 1776 0000 08B5     		push	{r3, lr}
 1777 0002 0368     		ldr	r3, [r0]
 1778 0004 DB68     		ldr	r3, [r3, #12]
 1779 0006 9847     		blx	r3
 1780 0008 D0F8A800 		ldr	r0, [r0, #168]
 1781 000c 08BD     		pop	{r3, pc}
 1782              		.size	_ZN6uavcan5INode14getSystemClockEv, .-_ZN6uavcan5INode14getSystemClockEv
 1783              		.section	.text._ZNK6uavcan5INode16getMonotonicTimeEv,"axG",%progbits,_ZNK6uavcan5INode16getMonoton
 1784              		.align	1
 1785              		.weak	_ZNK6uavcan5INode16getMonotonicTimeEv
 1786              		.thumb
 1787              		.thumb_func
 1788              		.type	_ZNK6uavcan5INode16getMonotonicTimeEv, %function
 1789              	_ZNK6uavcan5INode16getMonotonicTimeEv:
 1790              		@ args = 0, pretend = 0, frame = 0
 1791              		@ frame_needed = 0, uses_anonymous_args = 0
 1792 0000 0B68     		ldr	r3, [r1]
 1793 0002 10B5     		push	{r4, lr}
 1794 0004 1B69     		ldr	r3, [r3, #16]
 1795 0006 0446     		mov	r4, r0
 1796 0008 0846     		mov	r0, r1
 1797 000a 9847     		blx	r3
 1798 000c D0F8A810 		ldr	r1, [r0, #168]
 1799 0010 2046     		mov	r0, r4
 1800 0012 0B68     		ldr	r3, [r1]
 1801 0014 9B68     		ldr	r3, [r3, #8]
 1802 0016 9847     		blx	r3
 1803 0018 2046     		mov	r0, r4
 1804 001a 10BD     		pop	{r4, pc}
 1805              		.size	_ZNK6uavcan5INode16getMonotonicTimeEv, .-_ZNK6uavcan5INode16getMonotonicTimeEv
 1806              		.section	.text._ZNK6uavcan5INode9getNodeIDEv,"axG",%progbits,_ZNK6uavcan5INode9getNodeIDEv,comdat
 1807              		.align	1
 1808              		.weak	_ZNK6uavcan5INode9getNodeIDEv
 1809              		.thumb
 1810              		.thumb_func
 1811              		.type	_ZNK6uavcan5INode9getNodeIDEv, %function
 1812              	_ZNK6uavcan5INode9getNodeIDEv:
 1813              		@ args = 0, pretend = 0, frame = 0
 1814              		@ frame_needed = 0, uses_anonymous_args = 0
 1815 0000 08B5     		push	{r3, lr}
 1816 0002 0368     		ldr	r3, [r0]
 1817 0004 1B69     		ldr	r3, [r3, #16]
 1818 0006 9847     		blx	r3
 1819 0008 90F8E400 		ldrb	r0, [r0, #228]	@ zero_extendqisi2
 1820 000c 08BD     		pop	{r3, pc}
 1821              		.size	_ZNK6uavcan5INode9getNodeIDEv, .-_ZNK6uavcan5INode9getNodeIDEv
 1822              		.section	.text._ZN6uavcan20GlobalTimeSyncMaster19handleLoopbackFrameERKNS_7RxFrameE,"axG",%progbit
 1823              		.align	1
ARM GAS  /tmp/ccFEREDd.s 			page 33


 1824              		.weak	_ZN6uavcan20GlobalTimeSyncMaster19handleLoopbackFrameERKNS_7RxFrameE
 1825              		.thumb
 1826              		.thumb_func
 1827              		.type	_ZN6uavcan20GlobalTimeSyncMaster19handleLoopbackFrameERKNS_7RxFrameE, %function
 1828              	_ZN6uavcan20GlobalTimeSyncMaster19handleLoopbackFrameERKNS_7RxFrameE:
 1829              		@ args = 0, pretend = 0, frame = 0
 1830              		@ frame_needed = 0, uses_anonymous_args = 0
 1831 0000 2DE9F041 		push	{r4, r5, r6, r7, r8, lr}
 1832 0004 90F8F430 		ldrb	r3, [r0, #244]	@ zero_extendqisi2
 1833 0008 0646     		mov	r6, r0
 1834 000a 0C46     		mov	r4, r1
 1835 000c 91F83050 		ldrb	r5, [r1, #48]	@ zero_extendqisi2
 1836 0010 002B     		cmp	r3, #0
 1837 0012 3CD0     		beq	.L217
 1838 0014 022D     		cmp	r5, #2
 1839 0016 3AD8     		bhi	.L217
 1840 0018 CA68     		ldr	r2, [r1, #12]
 1841 001a D0F8F030 		ldr	r3, [r0, #240]
 1842 001e 9A42     		cmp	r2, r3
 1843 0020 35D1     		bne	.L217
 1844 0022 0B7A     		ldrb	r3, [r1, #8]	@ zero_extendqisi2
 1845 0024 022B     		cmp	r3, #2
 1846 0026 32D1     		bne	.L217
 1847 0028 CB7D     		ldrb	r3, [r1, #23]	@ zero_extendqisi2
 1848 002a 002B     		cmp	r3, #0
 1849 002c 2FD0     		beq	.L217
 1850 002e 0B7E     		ldrb	r3, [r1, #24]	@ zero_extendqisi2
 1851 0030 002B     		cmp	r3, #0
 1852 0032 2CD0     		beq	.L217
 1853 0034 C068     		ldr	r0, [r0, #12]
 1854 0036 0F7D     		ldrb	r7, [r1, #20]	@ zero_extendqisi2
 1855 0038 FFF7FEFF 		bl	_ZNK6uavcan5INode9getNodeIDEv
 1856 003c C0B2     		uxtb	r0, r0
 1857 003e B842     		cmp	r0, r7
 1858 0040 25D1     		bne	.L217
 1859 0042 4823     		movs	r3, #72
 1860 0044 03FB0565 		mla	r5, r3, r5, r6
 1861 0048 2B6D     		ldr	r3, [r5, #80]
 1862 004a 13B9     		cbnz	r3, .L235
 1863 004c 1148     		ldr	r0, .L237
 1864 004e FFF7FEFF 		bl	_ZN6uavcan16handleFatalErrorEPKc
 1865              	.L235:
 1866 0052 D4E90A01 		ldrd	r0, [r4, #40]
 1867 0056 50EA0102 		orrs	r2, r0, r1
 1868 005a 04D1     		bne	.L221
 1869 005c 186A     		ldr	r0, [r3, #32]
 1870 005e 0E49     		ldr	r1, .L237+4
 1871 0060 0368     		ldr	r3, [r0]
 1872 0062 5B69     		ldr	r3, [r3, #20]
 1873 0064 0CE0     		b	.L236
 1874              	.L221:
 1875 0066 D3E90C45 		ldrd	r4, [r3, #48]
 1876 006a 54EA0502 		orrs	r2, r4, r5
 1877 006e 0AD0     		beq	.L222
 1878 0070 0020     		movs	r0, #0
 1879 0072 0021     		movs	r1, #0
 1880 0074 C3E90C01 		strd	r0, [r3, #48]
ARM GAS  /tmp/ccFEREDd.s 			page 34


 1881 0078 186A     		ldr	r0, [r3, #32]
 1882 007a 0849     		ldr	r1, .L237+8
 1883 007c 0368     		ldr	r3, [r0]
 1884 007e 5B69     		ldr	r3, [r3, #20]
 1885              	.L236:
 1886 0080 BDE8F041 		pop	{r4, r5, r6, r7, r8, lr}
 1887 0084 1847     		bx	r3	@ indirect register sibling call
 1888              	.L222:
 1889 0086 C3E90C01 		strd	r0, [r3, #48]
 1890 008a BDE8F081 		pop	{r4, r5, r6, r7, r8, pc}
 1891              	.L217:
 1892 008e BDE8F081 		pop	{r4, r5, r6, r7, r8, pc}
 1893              	.L238:
 1894 0092 00BF     		.align	2
 1895              	.L237:
 1896 0094 1A000000 		.word	.LC2
 1897 0098 2D000000 		.word	.LC3
 1898 009c 4D000000 		.word	.LC4
 1899              		.size	_ZN6uavcan20GlobalTimeSyncMaster19handleLoopbackFrameERKNS_7RxFrameE, .-_ZN6uavcan20GlobalTi
 1900              		.section	.text._ZN6uavcan5INode9setNodeIDENS_6NodeIDE,"axG",%progbits,_ZN6uavcan5INode9setNodeIDEN
 1901              		.align	1
 1902              		.weak	_ZN6uavcan5INode9setNodeIDENS_6NodeIDE
 1903              		.thumb
 1904              		.thumb_func
 1905              		.type	_ZN6uavcan5INode9setNodeIDENS_6NodeIDE, %function
 1906              	_ZN6uavcan5INode9setNodeIDENS_6NodeIDE:
 1907              		@ args = 0, pretend = 0, frame = 0
 1908              		@ frame_needed = 0, uses_anonymous_args = 0
 1909 0000 0368     		ldr	r3, [r0]
 1910 0002 10B5     		push	{r4, lr}
 1911 0004 DB68     		ldr	r3, [r3, #12]
 1912 0006 0C46     		mov	r4, r1
 1913 0008 9847     		blx	r3
 1914 000a 2146     		mov	r1, r4
 1915 000c BDE81040 		pop	{r4, lr}
 1916 0010 0830     		adds	r0, r0, #8
 1917 0012 FFF7FEBF 		b	_ZN6uavcan10Dispatcher9setNodeIDENS_6NodeIDE
 1918              		.size	_ZN6uavcan5INode9setNodeIDENS_6NodeIDE, .-_ZN6uavcan5INode9setNodeIDENS_6NodeIDE
 1919              		.section	.text._ZN6uavcan20GenericPublisherBaseC2ERNS_5INodeENS_17MonotonicDurationES3_,"axG",%pro
 1920              		.align	1
 1921              		.weak	_ZN6uavcan20GenericPublisherBaseC2ERNS_5INodeENS_17MonotonicDurationES3_
 1922              		.thumb
 1923              		.thumb_func
 1924              		.type	_ZN6uavcan20GenericPublisherBaseC2ERNS_5INodeENS_17MonotonicDurationES3_, %function
 1925              	_ZN6uavcan20GenericPublisherBaseC2ERNS_5INodeENS_17MonotonicDurationES3_:
 1926              		@ args = 0, pretend = 0, frame = 8
 1927              		@ frame_needed = 0, uses_anonymous_args = 0
 1928 0000 F7B5     		push	{r0, r1, r2, r4, r5, r6, r7, lr}
 1929 0002 0446     		mov	r4, r0
 1930 0004 1F46     		mov	r7, r3
 1931 0006 0846     		mov	r0, r1
 1932 0008 1546     		mov	r5, r2
 1933 000a 0E46     		mov	r6, r1
 1934 000c FFF7FEFF 		bl	_ZN6uavcan5INode13getDispatcherEv
 1935 0010 D7E90023 		ldrd	r2, [r7]
 1936 0014 C4E90023 		strd	r2, [r4]
 1937 0018 4FF6FF72 		movw	r2, #65535
ARM GAS  /tmp/ccFEREDd.s 			page 35


 1938 001c 0F4B     		ldr	r3, .L241
 1939 001e A275     		strb	r2, [r4, #22]
 1940 0020 1B78     		ldrb	r3, [r3]	@ zero_extendqisi2
 1941 0022 4FF0FF31 		mov	r1, #-1
 1942 0026 2373     		strb	r3, [r4, #12]
 1943 0028 0023     		movs	r3, #0
 1944 002a 6373     		strb	r3, [r4, #13]
 1945 002c A382     		strh	r3, [r4, #20]	@ movhi
 1946 002e E375     		strb	r3, [r4, #23]
 1947 0030 04F11803 		add	r3, r4, #24
 1948 0034 A060     		str	r0, [r4, #8]
 1949 0036 2161     		str	r1, [r4, #16]
 1950 0038 E281     		strh	r2, [r4, #14]	@ movhi
 1951 003a 95E80300 		ldmia	r5, {r0, r1}
 1952 003e 83E80300 		stmia	r3, {r0, r1}
 1953 0042 2662     		str	r6, [r4, #32]
 1954 0044 95E80300 		ldmia	r5, {r0, r1}
 1955 0048 8DE80300 		stmia	sp, {r0, r1}
 1956 004c 2046     		mov	r0, r4
 1957 004e 6946     		mov	r1, sp
 1958 0050 FFF7FEFF 		bl	_ZN6uavcan20GenericPublisherBase12setTxTimeoutENS_17MonotonicDurationE
 1959 0054 2046     		mov	r0, r4
 1960 0056 03B0     		add	sp, sp, #12
 1961              		@ sp needed
 1962 0058 F0BD     		pop	{r4, r5, r6, r7, pc}
 1963              	.L242:
 1964 005a 00BF     		.align	2
 1965              	.L241:
 1966 005c 00000000 		.word	_ZN6uavcan16TransferPriority7DefaultE
 1967              		.size	_ZN6uavcan20GenericPublisherBaseC2ERNS_5INodeENS_17MonotonicDurationES3_, .-_ZN6uavcan20Gene
 1968              		.weak	_ZN6uavcan20GenericPublisherBaseC1ERNS_5INodeENS_17MonotonicDurationES3_
 1969              		.thumb_set _ZN6uavcan20GenericPublisherBaseC1ERNS_5INodeENS_17MonotonicDurationES3_,_ZN6uavcan20Ge
 1970              		.section	.text._ZNSt14_Function_baseD2Ev,"axG",%progbits,_ZNSt14_Function_baseD5Ev,comdat
 1971              		.align	1
 1972              		.weak	_ZNSt14_Function_baseD2Ev
 1973              		.thumb
 1974              		.thumb_func
 1975              		.type	_ZNSt14_Function_baseD2Ev, %function
 1976              	_ZNSt14_Function_baseD2Ev:
 1977              		@ args = 0, pretend = 0, frame = 0
 1978              		@ frame_needed = 0, uses_anonymous_args = 0
 1979 0000 8368     		ldr	r3, [r0, #8]
 1980 0002 10B5     		push	{r4, lr}
 1981 0004 0446     		mov	r4, r0
 1982 0006 13B1     		cbz	r3, .L244
 1983 0008 0146     		mov	r1, r0
 1984 000a 0322     		movs	r2, #3
 1985 000c 9847     		blx	r3
 1986              	.L244:
 1987 000e 2046     		mov	r0, r4
 1988 0010 10BD     		pop	{r4, pc}
 1989              		.size	_ZNSt14_Function_baseD2Ev, .-_ZNSt14_Function_baseD2Ev
 1990              		.weak	_ZNSt14_Function_baseD1Ev
 1991              		.thumb_set _ZNSt14_Function_baseD1Ev,_ZNSt14_Function_baseD2Ev
 1992              		.section	.text._ZN6uavcan19TimerEventForwarderISt8functionIFvRKNS_10TimerEventEEEED2Ev,"axG",%prog
 1993              		.align	1
 1994              		.weak	_ZN6uavcan19TimerEventForwarderISt8functionIFvRKNS_10TimerEventEEEED2Ev
ARM GAS  /tmp/ccFEREDd.s 			page 36


 1995              		.thumb
 1996              		.thumb_func
 1997              		.type	_ZN6uavcan19TimerEventForwarderISt8functionIFvRKNS_10TimerEventEEEED2Ev, %function
 1998              	_ZN6uavcan19TimerEventForwarderISt8functionIFvRKNS_10TimerEventEEEED2Ev:
 1999              		@ args = 0, pretend = 0, frame = 0
 2000              		@ frame_needed = 0, uses_anonymous_args = 0
 2001 0000 10B5     		push	{r4, lr}
 2002 0002 0446     		mov	r4, r0
 2003 0004 054B     		ldr	r3, .L249
 2004 0006 40F8203B 		str	r3, [r0], #32
 2005 000a FFF7FEFF 		bl	_ZNSt14_Function_baseD2Ev
 2006 000e 044B     		ldr	r3, .L249+4
 2007 0010 2046     		mov	r0, r4
 2008 0012 2360     		str	r3, [r4]
 2009 0014 FFF7FEFF 		bl	_ZN6uavcan15DeadlineHandler4stopEv
 2010 0018 2046     		mov	r0, r4
 2011 001a 10BD     		pop	{r4, pc}
 2012              	.L250:
 2013              		.align	2
 2014              	.L249:
 2015 001c 08000000 		.word	_ZTVN6uavcan19TimerEventForwarderISt8functionIFvRKNS_10TimerEventEEEEE+8
 2016 0020 08000000 		.word	_ZTVN6uavcan15DeadlineHandlerE+8
 2017              		.size	_ZN6uavcan19TimerEventForwarderISt8functionIFvRKNS_10TimerEventEEEED2Ev, .-_ZN6uavcan19Timer
 2018              		.weak	_ZN6uavcan19TimerEventForwarderISt8functionIFvRKNS_10TimerEventEEEED1Ev
 2019              		.thumb_set _ZN6uavcan19TimerEventForwarderISt8functionIFvRKNS_10TimerEventEEEED1Ev,_ZN6uavcan19Tim
 2020              		.section	.text._ZN6uavcan19TimerEventForwarderISt8functionIFvRKNS_10TimerEventEEEED0Ev,"axG",%prog
 2021              		.align	1
 2022              		.weak	_ZN6uavcan19TimerEventForwarderISt8functionIFvRKNS_10TimerEventEEEED0Ev
 2023              		.thumb
 2024              		.thumb_func
 2025              		.type	_ZN6uavcan19TimerEventForwarderISt8functionIFvRKNS_10TimerEventEEEED0Ev, %function
 2026              	_ZN6uavcan19TimerEventForwarderISt8functionIFvRKNS_10TimerEventEEEED0Ev:
 2027              		@ args = 0, pretend = 0, frame = 0
 2028              		@ frame_needed = 0, uses_anonymous_args = 0
 2029 0000 10B5     		push	{r4, lr}
 2030 0002 0446     		mov	r4, r0
 2031 0004 FFF7FEFF 		bl	_ZN6uavcan19TimerEventForwarderISt8functionIFvRKNS_10TimerEventEEEED1Ev
 2032 0008 2046     		mov	r0, r4
 2033 000a FFF7FEFF 		bl	_ZdlPv
 2034 000e 2046     		mov	r0, r4
 2035 0010 10BD     		pop	{r4, pc}
 2036              		.size	_ZN6uavcan19TimerEventForwarderISt8functionIFvRKNS_10TimerEventEEEED0Ev, .-_ZN6uavcan19Timer
 2037              		.section	.text._ZN6uavcan9TimerBaseC2ERNS_5INodeE,"axG",%progbits,_ZN6uavcan9TimerBaseC5ERNS_5INod
 2038              		.align	1
 2039              		.weak	_ZN6uavcan9TimerBaseC2ERNS_5INodeE
 2040              		.thumb
 2041              		.thumb_func
 2042              		.type	_ZN6uavcan9TimerBaseC2ERNS_5INodeE, %function
 2043              	_ZN6uavcan9TimerBaseC2ERNS_5INodeE:
 2044              		@ args = 0, pretend = 0, frame = 0
 2045              		@ frame_needed = 0, uses_anonymous_args = 0
 2046 0000 10B5     		push	{r4, lr}
 2047 0002 0446     		mov	r4, r0
 2048 0004 0B68     		ldr	r3, [r1]
 2049 0006 0846     		mov	r0, r1
 2050 0008 DB68     		ldr	r3, [r3, #12]
 2051 000a 9847     		blx	r3
ARM GAS  /tmp/ccFEREDd.s 			page 37


 2052 000c 0023     		movs	r3, #0
 2053 000e 6360     		str	r3, [r4, #4]
 2054 0010 0022     		movs	r2, #0
 2055 0012 0023     		movs	r3, #0
 2056 0014 C4E90223 		strd	r2, [r4, #8]
 2057 0018 054B     		ldr	r3, .L253
 2058 001a 4FF0FF32 		mov	r2, #-1
 2059 001e 2360     		str	r3, [r4]
 2060 0020 6FF00043 		mvn	r3, #-2147483648
 2061 0024 2061     		str	r0, [r4, #16]
 2062 0026 C4E90623 		strd	r2, [r4, #24]
 2063 002a 2046     		mov	r0, r4
 2064 002c 10BD     		pop	{r4, pc}
 2065              	.L254:
 2066 002e 00BF     		.align	2
 2067              	.L253:
 2068 0030 08000000 		.word	_ZTVN6uavcan9TimerBaseE+8
 2069              		.size	_ZN6uavcan9TimerBaseC2ERNS_5INodeE, .-_ZN6uavcan9TimerBaseC2ERNS_5INodeE
 2070              		.weak	_ZN6uavcan9TimerBaseC1ERNS_5INodeE
 2071              		.thumb_set _ZN6uavcan9TimerBaseC1ERNS_5INodeE,_ZN6uavcan9TimerBaseC2ERNS_5INodeE
 2072              		.section	.text._ZN6uavcan6LoggerC2ERNS_5INodeE,"axG",%progbits,_ZN6uavcan6LoggerC5ERNS_5INodeE,com
 2073              		.align	1
 2074              		.weak	_ZN6uavcan6LoggerC2ERNS_5INodeE
 2075              		.thumb
 2076              		.thumb_func
 2077              		.type	_ZN6uavcan6LoggerC2ERNS_5INodeE, %function
 2078              	_ZN6uavcan6LoggerC2ERNS_5INodeE:
 2079              		@ args = 0, pretend = 0, frame = 16
 2080              		@ frame_needed = 0, uses_anonymous_args = 0
 2081 0000 1FB5     		push	{r0, r1, r2, r3, r4, lr}
 2082 0002 0446     		mov	r4, r0
 2083 0004 114A     		ldr	r2, .L256
 2084 0006 0023     		movs	r3, #0
 2085 0008 CDE90223 		strd	r2, [sp, #8]
 2086 000c 104A     		ldr	r2, .L256+4
 2087 000e 0023     		movs	r3, #0
 2088 0010 CDE90023 		strd	r2, [sp]
 2089 0014 02AA     		add	r2, sp, #8
 2090 0016 6B46     		mov	r3, sp
 2091 0018 FFF7FEFF 		bl	_ZN6uavcan20GenericPublisherBaseC2ERNS_5INodeENS_17MonotonicDurationES3_
 2092 001c 0023     		movs	r3, #0
 2093 001e 84F82830 		strb	r3, [r4, #40]
 2094 0022 84F82930 		strb	r3, [r4, #41]
 2095 0026 84F84A30 		strb	r3, [r4, #74]
 2096 002a C4F8A830 		str	r3, [r4, #168]
 2097 002e 094A     		ldr	r2, .L256+8
 2098 0030 0323     		movs	r3, #3
 2099 0032 84F8A630 		strb	r3, [r4, #166]
 2100 0036 2046     		mov	r0, r4
 2101 0038 0023     		movs	r3, #0
 2102 003a 02A9     		add	r1, sp, #8
 2103 003c CDE90223 		strd	r2, [sp, #8]
 2104 0040 FFF7FEFF 		bl	_ZN6uavcan20GenericPublisherBase12setTxTimeoutENS_17MonotonicDurationE
 2105 0044 2046     		mov	r0, r4
 2106 0046 04B0     		add	sp, sp, #16
 2107              		@ sp needed
 2108 0048 10BD     		pop	{r4, pc}
ARM GAS  /tmp/ccFEREDd.s 			page 38


 2109              	.L257:
 2110 004a 00BF     		.align	2
 2111              	.L256:
 2112 004c A0860100 		.word	100000
 2113 0050 00879303 		.word	60000000
 2114 0054 80841E00 		.word	2000000
 2115              		.size	_ZN6uavcan6LoggerC2ERNS_5INodeE, .-_ZN6uavcan6LoggerC2ERNS_5INodeE
 2116              		.weak	_ZN6uavcan6LoggerC1ERNS_5INodeE
 2117              		.thumb_set _ZN6uavcan6LoggerC1ERNS_5INodeE,_ZN6uavcan6LoggerC2ERNS_5INodeE
 2118              		.section	.text._ZN12uavcan_stm3211MutexLockerD2Ev,"axG",%progbits,_ZN12uavcan_stm3211MutexLockerD5
 2119              		.align	1
 2120              		.weak	_ZN12uavcan_stm3211MutexLockerD2Ev
 2121              		.thumb
 2122              		.thumb_func
 2123              		.type	_ZN12uavcan_stm3211MutexLockerD2Ev, %function
 2124              	_ZN12uavcan_stm3211MutexLockerD2Ev:
 2125              		@ args = 0, pretend = 0, frame = 0
 2126              		@ frame_needed = 0, uses_anonymous_args = 0
 2127 0000 10B5     		push	{r4, lr}
 2128 0002 0446     		mov	r4, r0
 2129 0004 0068     		ldr	r0, [r0]
 2130 0006 FFF7FEFF 		bl	_ZN12uavcan_stm325Mutex6unlockEv
 2131 000a 2046     		mov	r0, r4
 2132 000c 10BD     		pop	{r4, pc}
 2133              		.size	_ZN12uavcan_stm3211MutexLockerD2Ev, .-_ZN12uavcan_stm3211MutexLockerD2Ev
 2134              		.weak	_ZN12uavcan_stm3211MutexLockerD1Ev
 2135              		.thumb_set _ZN12uavcan_stm3211MutexLockerD1Ev,_ZN12uavcan_stm3211MutexLockerD2Ev
 2136              		.section	.text._ZN6uavcan19GlobalTimeSyncSlave13adjustFromMsgERKNS_21ReceivedDataStructureINS_8pro
 2137              		.align	1
 2138              		.weak	_ZN6uavcan19GlobalTimeSyncSlave13adjustFromMsgERKNS_21ReceivedDataStructureINS_8protocol15Gl
 2139              		.thumb
 2140              		.thumb_func
 2141              		.type	_ZN6uavcan19GlobalTimeSyncSlave13adjustFromMsgERKNS_21ReceivedDataStructureINS_8protocol15Gl
 2142              	_ZN6uavcan19GlobalTimeSyncSlave13adjustFromMsgERKNS_21ReceivedDataStructureINS_8protocol15GlobalTim
 2143              		@ args = 0, pretend = 0, frame = 8
 2144              		@ frame_needed = 0, uses_anonymous_args = 0
 2145 0000 F7B5     		push	{r0, r1, r2, r4, r5, r6, r7, lr}
 2146 0002 0446     		mov	r4, r0
 2147 0004 0D46     		mov	r5, r1
 2148 0006 D4E91223 		ldrd	r2, [r4, #72]
 2149 000a D1E90001 		ldrd	r0, [r1]
 2150 000e 801A     		subs	r0, r0, r2
 2151 0010 61EB0301 		sbc	r1, r1, r3
 2152 0014 94F86430 		ldrb	r3, [r4, #100]	@ zero_extendqisi2
 2153 0018 0646     		mov	r6, r0
 2154 001a 0F46     		mov	r7, r1
 2155 001c 43B9     		cbnz	r3, .L262
 2156 001e 6068     		ldr	r0, [r4, #4]
 2157 0020 FFF7FEFF 		bl	_ZN6uavcan5INode14getSystemClockEv
 2158 0024 0368     		ldr	r3, [r0]
 2159 0026 02A9     		add	r1, sp, #8
 2160 0028 1B69     		ldr	r3, [r3, #16]
 2161 002a 61E90267 		strd	r6, [r1, #-8]!
 2162 002e 9847     		blx	r3
 2163              	.L262:
 2164 0030 AB68     		ldr	r3, [r5, #8]
 2165 0032 13B1     		cbz	r3, .L264
ARM GAS  /tmp/ccFEREDd.s 			page 39


 2166 0034 D3E90223 		ldrd	r2, [r3, #8]
 2167 0038 01E0     		b	.L263
 2168              	.L264:
 2169 003a 0022     		movs	r2, #0
 2170 003c 0023     		movs	r3, #0
 2171              	.L263:
 2172 003e C4E91623 		strd	r2, [r4, #88]
 2173 0042 0023     		movs	r3, #0
 2174 0044 84F86030 		strb	r3, [r4, #96]
 2175 0048 03B0     		add	sp, sp, #12
 2176              		@ sp needed
 2177 004a F0BD     		pop	{r4, r5, r6, r7, pc}
 2178              		.size	_ZN6uavcan19GlobalTimeSyncSlave13adjustFromMsgERKNS_21ReceivedDataStructureINS_8protocol15Gl
 2179              		.section	.text._ZN6uavcan19GlobalTimeSyncSlave13updateFromMsgERKNS_21ReceivedDataStructureINS_8pro
 2180              		.align	1
 2181              		.weak	_ZN6uavcan19GlobalTimeSyncSlave13updateFromMsgERKNS_21ReceivedDataStructureINS_8protocol15Gl
 2182              		.thumb
 2183              		.thumb_func
 2184              		.type	_ZN6uavcan19GlobalTimeSyncSlave13updateFromMsgERKNS_21ReceivedDataStructureINS_8protocol15Gl
 2185              	_ZN6uavcan19GlobalTimeSyncSlave13updateFromMsgERKNS_21ReceivedDataStructureINS_8protocol15GlobalTim
 2186              		@ args = 0, pretend = 0, frame = 0
 2187              		@ frame_needed = 0, uses_anonymous_args = 0
 2188 0000 8B68     		ldr	r3, [r1, #8]
 2189 0002 30B5     		push	{r4, r5, lr}
 2190 0004 13B1     		cbz	r3, .L271
 2191 0006 D3E90445 		ldrd	r4, [r3, #16]
 2192 000a 01E0     		b	.L266
 2193              	.L271:
 2194 000c 0024     		movs	r4, #0
 2195 000e 0025     		movs	r5, #0
 2196              	.L266:
 2197 0010 C0E91245 		strd	r4, [r0, #72]
 2198 0014 13B1     		cbz	r3, .L272
 2199 0016 D3E90245 		ldrd	r4, [r3, #8]
 2200 001a 01E0     		b	.L267
 2201              	.L272:
 2202 001c 0024     		movs	r4, #0
 2203 001e 0025     		movs	r5, #0
 2204              	.L267:
 2205 0020 C0E91445 		strd	r4, [r0, #80]
 2206 0024 0BB1     		cbz	r3, .L273
 2207 0026 DB7E     		ldrb	r3, [r3, #27]	@ zero_extendqisi2
 2208 0028 00E0     		b	.L268
 2209              	.L273:
 2210 002a FF23     		movs	r3, #255
 2211              	.L268:
 2212 002c 80F86130 		strb	r3, [r0, #97]
 2213 0030 8B68     		ldr	r3, [r1, #8]
 2214 0032 03B1     		cbz	r3, .L269
 2215 0034 1B7F     		ldrb	r3, [r3, #28]	@ zero_extendqisi2
 2216              	.L269:
 2217 0036 80F86330 		strb	r3, [r0, #99]
 2218 003a 8B68     		ldr	r3, [r1, #8]
 2219 003c 03B1     		cbz	r3, .L270
 2220 003e 9B7E     		ldrb	r3, [r3, #26]	@ zero_extendqisi2
 2221              	.L270:
 2222 0040 80F86230 		strb	r3, [r0, #98]
ARM GAS  /tmp/ccFEREDd.s 			page 40


 2223 0044 0123     		movs	r3, #1
 2224 0046 80F86030 		strb	r3, [r0, #96]
 2225 004a 30BD     		pop	{r4, r5, pc}
 2226              		.size	_ZN6uavcan19GlobalTimeSyncSlave13updateFromMsgERKNS_21ReceivedDataStructureINS_8protocol15Gl
 2227              		.section	.text._ZN4node4LockC2Ev,"ax",%progbits
 2228              		.align	1
 2229              		.global	_ZN4node4LockC2Ev
 2230              		.thumb
 2231              		.thumb_func
 2232              		.type	_ZN4node4LockC2Ev, %function
 2233              	_ZN4node4LockC2Ev:
 2234              		@ args = 0, pretend = 0, frame = 0
 2235              		@ frame_needed = 0, uses_anonymous_args = 0
 2236 0000 10B5     		push	{r4, lr}
 2237 0002 0446     		mov	r4, r0
 2238 0004 0248     		ldr	r0, .L277
 2239 0006 2060     		str	r0, [r4]
 2240 0008 FFF7FEFF 		bl	_ZN12uavcan_stm325Mutex4lockEv
 2241 000c 2046     		mov	r0, r4
 2242 000e 10BD     		pop	{r4, pc}
 2243              	.L278:
 2244              		.align	2
 2245              	.L277:
 2246 0010 00000000 		.word	.LANCHOR1
 2247              		.size	_ZN4node4LockC2Ev, .-_ZN4node4LockC2Ev
 2248              		.global	_ZN4node4LockC1Ev
 2249              		.thumb_set _ZN4node4LockC1Ev,_ZN4node4LockC2Ev
 2250              		.section	.text._ZN4node9isStartedEv,"ax",%progbits
 2251              		.align	1
 2252              		.global	_ZN4node9isStartedEv
 2253              		.thumb
 2254              		.thumb_func
 2255              		.type	_ZN4node9isStartedEv, %function
 2256              	_ZN4node9isStartedEv:
 2257              		@ args = 0, pretend = 0, frame = 0
 2258              		@ frame_needed = 0, uses_anonymous_args = 0
 2259              		@ link register save eliminated.
 2260 0000 014B     		ldr	r3, .L280
 2261 0002 1878     		ldrb	r0, [r3]	@ zero_extendqisi2
 2262 0004 7047     		bx	lr
 2263              	.L281:
 2264 0006 00BF     		.align	2
 2265              	.L280:
 2266 0008 00000000 		.word	.LANCHOR2
 2267              		.size	_ZN4node9isStartedEv, .-_ZN4node9isStartedEv
 2268              		.section	.text._ZN4node24hasPendingRestartRequestEv,"ax",%progbits
 2269              		.align	1
 2270              		.global	_ZN4node24hasPendingRestartRequestEv
 2271              		.thumb
 2272              		.thumb_func
 2273              		.type	_ZN4node24hasPendingRestartRequestEv, %function
 2274              	_ZN4node24hasPendingRestartRequestEv:
 2275              		@ args = 0, pretend = 0, frame = 0
 2276              		@ frame_needed = 0, uses_anonymous_args = 0
 2277              		@ link register save eliminated.
 2278 0000 014B     		ldr	r3, .L283
 2279 0002 1878     		ldrb	r0, [r3]	@ zero_extendqisi2
ARM GAS  /tmp/ccFEREDd.s 			page 41


 2280 0004 7047     		bx	lr
 2281              	.L284:
 2282 0006 00BF     		.align	2
 2283              	.L283:
 2284 0008 00000000 		.word	.LANCHOR0
 2285              		.size	_ZN4node24hasPendingRestartRequestEv, .-_ZN4node24hasPendingRestartRequestEv
 2286              		.section	.text._ZN4node18setComponentHealthENS_11ComponentIDEh,"ax",%progbits
 2287              		.align	1
 2288              		.global	_ZN4node18setComponentHealthENS_11ComponentIDEh
 2289              		.thumb
 2290              		.thumb_func
 2291              		.type	_ZN4node18setComponentHealthENS_11ComponentIDEh, %function
 2292              	_ZN4node18setComponentHealthENS_11ComponentIDEh:
 2293              		@ args = 0, pretend = 0, frame = 8
 2294              		@ frame_needed = 0, uses_anonymous_args = 0
 2295 0000 37B5     		push	{r0, r1, r2, r4, r5, lr}
 2296 0002 0446     		mov	r4, r0
 2297 0004 0D46     		mov	r5, r1
 2298 0006 01A8     		add	r0, sp, #4
 2299 0008 FFF7FEFF 		bl	_ZN4node4LockC2Ev
 2300 000c 034B     		ldr	r3, .L286
 2301 000e 01A8     		add	r0, sp, #4
 2302 0010 1C44     		add	r4, r4, r3
 2303 0012 E570     		strb	r5, [r4, #3]
 2304 0014 FFF7FEFF 		bl	_ZN12uavcan_stm3211MutexLockerD2Ev
 2305 0018 03B0     		add	sp, sp, #12
 2306              		@ sp needed
 2307 001a 30BD     		pop	{r4, r5, pc}
 2308              	.L287:
 2309              		.align	2
 2310              	.L286:
 2311 001c 00000000 		.word	.LANCHOR3
 2312              		.size	_ZN4node18setComponentHealthENS_11ComponentIDEh, .-_ZN4node18setComponentHealthENS_11Compone
 2313              		.section	.text._ZN4node24markComponentInitializedENS_11ComponentIDE,"ax",%progbits
 2314              		.align	1
 2315              		.global	_ZN4node24markComponentInitializedENS_11ComponentIDE
 2316              		.thumb
 2317              		.thumb_func
 2318              		.type	_ZN4node24markComponentInitializedENS_11ComponentIDE, %function
 2319              	_ZN4node24markComponentInitializedENS_11ComponentIDE:
 2320              		@ args = 0, pretend = 0, frame = 8
 2321              		@ frame_needed = 0, uses_anonymous_args = 0
 2322 0000 13B5     		push	{r0, r1, r4, lr}
 2323 0002 0446     		mov	r4, r0
 2324 0004 01A8     		add	r0, sp, #4
 2325 0006 FFF7FEFF 		bl	_ZN4node4LockC2Ev
 2326 000a 044B     		ldr	r3, .L289
 2327 000c 0122     		movs	r2, #1
 2328 000e 01A8     		add	r0, sp, #4
 2329 0010 1A55     		strb	r2, [r3, r4]
 2330 0012 FFF7FEFF 		bl	_ZN12uavcan_stm3211MutexLockerD2Ev
 2331 0016 02B0     		add	sp, sp, #8
 2332              		@ sp needed
 2333 0018 10BD     		pop	{r4, pc}
 2334              	.L290:
 2335 001a 00BF     		.align	2
 2336              	.L289:
ARM GAS  /tmp/ccFEREDd.s 			page 42


 2337 001c 00000000 		.word	.LANCHOR3
 2338              		.size	_ZN4node24markComponentInitializedENS_11ComponentIDE, .-_ZN4node24markComponentInitializedEN
 2339              		.section	.text._ZN4node4initEv,"ax",%progbits
 2340              		.align	1
 2341              		.global	_ZN4node4initEv
 2342              		.thumb
 2343              		.thumb_func
 2344              		.type	_ZN4node4initEv, %function
 2345              	_ZN4node4initEv:
 2346              		@ args = 0, pretend = 0, frame = 8
 2347              		@ frame_needed = 0, uses_anonymous_args = 0
 2348 0000 07B5     		push	{r0, r1, r2, lr}
 2349 0002 0449     		ldr	r1, .L292
 2350 0004 6846     		mov	r0, sp
 2351 0006 0C22     		movs	r2, #12
 2352 0008 FFF7FEFF 		bl	_ZN10chibios_rt16BaseStaticThreadILi3000EE5startEm
 2353 000c 03B0     		add	sp, sp, #12
 2354              		@ sp needed
 2355 000e 5DF804FB 		ldr	pc, [sp], #4
 2356              	.L293:
 2357 0012 00BF     		.align	2
 2358              	.L292:
 2359 0014 00000000 		.word	.LANCHOR4
 2360              		.size	_ZN4node4initEv, .-_ZN4node4initEv
 2361              		.section	.text._ZN6uavcan4fillIPhhEEvT_S2_RKT0_,"axG",%progbits,_ZN6uavcan4fillIPhhEEvT_S2_RKT0_,c
 2362              		.align	1
 2363              		.weak	_ZN6uavcan4fillIPhhEEvT_S2_RKT0_
 2364              		.thumb
 2365              		.thumb_func
 2366              		.type	_ZN6uavcan4fillIPhhEEvT_S2_RKT0_, %function
 2367              	_ZN6uavcan4fillIPhhEEvT_S2_RKT0_:
 2368              		@ args = 0, pretend = 0, frame = 0
 2369              		@ frame_needed = 0, uses_anonymous_args = 0
 2370              		@ link register save eliminated.
 2371              	.L295:
 2372 0000 8842     		cmp	r0, r1
 2373 0002 03D0     		beq	.L297
 2374 0004 1378     		ldrb	r3, [r2]	@ zero_extendqisi2
 2375 0006 00F8013B 		strb	r3, [r0], #1
 2376 000a F9E7     		b	.L295
 2377              	.L297:
 2378 000c 7047     		bx	lr
 2379              		.size	_ZN6uavcan4fillIPhhEEvT_S2_RKT0_, .-_ZN6uavcan4fillIPhhEEvT_S2_RKT0_
 2380              		.section	.text._ZN6uavcan8CanFrameC2Ev,"axG",%progbits,_ZN6uavcan8CanFrameC5Ev,comdat
 2381              		.align	1
 2382              		.weak	_ZN6uavcan8CanFrameC2Ev
 2383              		.thumb
 2384              		.thumb_func
 2385              		.type	_ZN6uavcan8CanFrameC2Ev, %function
 2386              	_ZN6uavcan8CanFrameC2Ev:
 2387              		@ args = 0, pretend = 0, frame = 8
 2388              		@ frame_needed = 0, uses_anonymous_args = 0
 2389 0000 13B5     		push	{r0, r1, r4, lr}
 2390 0002 0446     		mov	r4, r0
 2391 0004 0023     		movs	r3, #0
 2392 0006 02AA     		add	r2, sp, #8
 2393 0008 0360     		str	r3, [r0]
ARM GAS  /tmp/ccFEREDd.s 			page 43


 2394 000a 0373     		strb	r3, [r0, #12]
 2395 000c 02F8013D 		strb	r3, [r2, #-1]!
 2396 0010 0430     		adds	r0, r0, #4
 2397 0012 04F10C01 		add	r1, r4, #12
 2398 0016 FFF7FEFF 		bl	_ZN6uavcan4fillIPhhEEvT_S2_RKT0_
 2399 001a 2046     		mov	r0, r4
 2400 001c 02B0     		add	sp, sp, #8
 2401              		@ sp needed
 2402 001e 10BD     		pop	{r4, pc}
 2403              		.size	_ZN6uavcan8CanFrameC2Ev, .-_ZN6uavcan8CanFrameC2Ev
 2404              		.weak	_ZN6uavcan8CanFrameC1Ev
 2405              		.thumb_set _ZN6uavcan8CanFrameC1Ev,_ZN6uavcan8CanFrameC2Ev
 2406              		.section	.text._ZN6uavcan20GlobalTimeSyncMasterD2Ev,"axG",%progbits,_ZN6uavcan20GlobalTimeSyncMast
 2407              		.align	1
 2408              		.weak	_ZN6uavcan20GlobalTimeSyncMasterD2Ev
 2409              		.thumb
 2410              		.thumb_func
 2411              		.type	_ZN6uavcan20GlobalTimeSyncMasterD2Ev, %function
 2412              	_ZN6uavcan20GlobalTimeSyncMasterD2Ev:
 2413              		@ args = 0, pretend = 0, frame = 8
 2414              		@ frame_needed = 0, uses_anonymous_args = 0
 2415 0000 73B5     		push	{r0, r1, r4, r5, r6, lr}
 2416 0002 0646     		mov	r6, r0
 2417 0004 0446     		mov	r4, r0
 2418 0006 0D4B     		ldr	r3, .L302
 2419 0008 00F1E805 		add	r5, r0, #232
 2420 000c 46F8103B 		str	r3, [r6], #16
 2421              	.L301:
 2422 0010 B542     		cmp	r5, r6
 2423 0012 0BD0     		beq	.L300
 2424 0014 483D     		subs	r5, r5, #72
 2425 0016 2946     		mov	r1, r5
 2426 0018 0023     		movs	r3, #0
 2427 001a 02AA     		add	r2, sp, #8
 2428 001c 41F8403F 		str	r3, [r1, #64]!
 2429 0020 02F8013D 		strb	r3, [r2, #-1]!
 2430 0024 2846     		mov	r0, r5
 2431 0026 FFF7FEFF 		bl	_ZN6uavcan4fillIPhhEEvT_S2_RKT0_
 2432 002a F1E7     		b	.L301
 2433              	.L300:
 2434 002c 044B     		ldr	r3, .L302+4
 2435 002e 2046     		mov	r0, r4
 2436 0030 2360     		str	r3, [r4]
 2437 0032 FFF7FEFF 		bl	_ZN6uavcan25LoopbackFrameListenerBase13stopListeningEv
 2438 0036 2046     		mov	r0, r4
 2439 0038 02B0     		add	sp, sp, #8
 2440              		@ sp needed
 2441 003a 70BD     		pop	{r4, r5, r6, pc}
 2442              	.L303:
 2443              		.align	2
 2444              	.L302:
 2445 003c 08000000 		.word	_ZTVN6uavcan20GlobalTimeSyncMasterE+8
 2446 0040 08000000 		.word	_ZTVN6uavcan25LoopbackFrameListenerBaseE+8
 2447              		.size	_ZN6uavcan20GlobalTimeSyncMasterD2Ev, .-_ZN6uavcan20GlobalTimeSyncMasterD2Ev
 2448              		.weak	_ZN6uavcan20GlobalTimeSyncMasterD1Ev
 2449              		.thumb_set _ZN6uavcan20GlobalTimeSyncMasterD1Ev,_ZN6uavcan20GlobalTimeSyncMasterD2Ev
 2450              		.section	.text._ZN6uavcan20GlobalTimeSyncMasterD0Ev,"axG",%progbits,_ZN6uavcan20GlobalTimeSyncMast
ARM GAS  /tmp/ccFEREDd.s 			page 44


 2451              		.align	1
 2452              		.weak	_ZN6uavcan20GlobalTimeSyncMasterD0Ev
 2453              		.thumb
 2454              		.thumb_func
 2455              		.type	_ZN6uavcan20GlobalTimeSyncMasterD0Ev, %function
 2456              	_ZN6uavcan20GlobalTimeSyncMasterD0Ev:
 2457              		@ args = 0, pretend = 0, frame = 0
 2458              		@ frame_needed = 0, uses_anonymous_args = 0
 2459 0000 10B5     		push	{r4, lr}
 2460 0002 0446     		mov	r4, r0
 2461 0004 FFF7FEFF 		bl	_ZN6uavcan20GlobalTimeSyncMasterD1Ev
 2462 0008 2046     		mov	r0, r4
 2463 000a FFF7FEFF 		bl	_ZdlPv
 2464 000e 2046     		mov	r0, r4
 2465 0010 10BD     		pop	{r4, pc}
 2466              		.size	_ZN6uavcan20GlobalTimeSyncMasterD0Ev, .-_ZN6uavcan20GlobalTimeSyncMasterD0Ev
 2467              		.section	.text._ZN6uavcan19DynamicNodeIDClientC2ERNS_5INodeE,"axG",%progbits,_ZN6uavcan19DynamicNo
 2468              		.align	1
 2469              		.weak	_ZN6uavcan19DynamicNodeIDClientC2ERNS_5INodeE
 2470              		.thumb
 2471              		.thumb_func
 2472              		.type	_ZN6uavcan19DynamicNodeIDClientC2ERNS_5INodeE, %function
 2473              	_ZN6uavcan19DynamicNodeIDClientC2ERNS_5INodeE:
 2474              		@ args = 0, pretend = 0, frame = 16
 2475              		@ frame_needed = 0, uses_anonymous_args = 0
 2476 0000 30B5     		push	{r4, r5, lr}
 2477 0002 0446     		mov	r4, r0
 2478 0004 85B0     		sub	sp, sp, #20
 2479 0006 0D46     		mov	r5, r1
 2480 0008 FFF7FEFF 		bl	_ZN6uavcan9TimerBaseC2ERNS_5INodeE
 2481 000c 2046     		mov	r0, r4
 2482 000e 1A4B     		ldr	r3, .L306
 2483 0010 1A4A     		ldr	r2, .L306+4
 2484 0012 40F8203B 		str	r3, [r0], #32
 2485 0016 0023     		movs	r3, #0
 2486 0018 CDE90223 		strd	r2, [sp, #8]
 2487 001c 184A     		ldr	r2, .L306+8
 2488 001e 0023     		movs	r3, #0
 2489 0020 CDE90023 		strd	r2, [sp]
 2490 0024 2946     		mov	r1, r5
 2491 0026 02AA     		add	r2, sp, #8
 2492 0028 6B46     		mov	r3, sp
 2493 002a FFF7FEFF 		bl	_ZN6uavcan20GenericPublisherBaseC2ERNS_5INodeENS_17MonotonicDurationES3_
 2494 002e 154B     		ldr	r3, .L306+12
 2495 0030 E564     		str	r5, [r4, #76]
 2496 0032 0025     		movs	r5, #0
 2497 0034 A364     		str	r3, [r4, #72]
 2498 0036 04F15400 		add	r0, r4, #84
 2499 003a 2565     		str	r5, [r4, #80]
 2500 003c C4F88050 		str	r5, [r4, #128]
 2501 0040 04F18001 		add	r1, r4, #128
 2502 0044 02AA     		add	r2, sp, #8
 2503 0046 8DF80850 		strb	r5, [sp, #8]
 2504 004a FFF7FEFF 		bl	_ZN6uavcan4fillIPhhEEvT_S2_RKT0_
 2505 004e 2046     		mov	r0, r4
 2506 0050 0D4B     		ldr	r3, .L306+16
 2507 0052 C4F88450 		str	r5, [r4, #132]
ARM GAS  /tmp/ccFEREDd.s 			page 45


 2508 0056 A364     		str	r3, [r4, #72]
 2509 0058 FF23     		movs	r3, #255
 2510 005a C4F88850 		str	r5, [r4, #136]
 2511 005e C4F88C50 		str	r5, [r4, #140]
 2512 0062 84F8A050 		strb	r5, [r4, #160]
 2513 0066 84F8A130 		strb	r3, [r4, #161]
 2514 006a 84F8A230 		strb	r3, [r4, #162]
 2515 006e 84F8A330 		strb	r3, [r4, #163]
 2516 0072 05B0     		add	sp, sp, #20
 2517              		@ sp needed
 2518 0074 30BD     		pop	{r4, r5, pc}
 2519              	.L307:
 2520 0076 00BF     		.align	2
 2521              	.L306:
 2522 0078 08000000 		.word	_ZTVN6uavcan19DynamicNodeIDClientE+8
 2523 007c A0860100 		.word	100000
 2524 0080 00879303 		.word	60000000
 2525 0084 08000000 		.word	_ZTVN6uavcan17GenericSubscriberINS_8protocol15dynamic_node_id11Allocation_ILi0EEES4_NS_16Tra
 2526 0088 08000000 		.word	_ZTVN6uavcan10SubscriberINS_8protocol15dynamic_node_id11Allocation_ILi0EEENS_12MethodBinderI
 2527              		.size	_ZN6uavcan19DynamicNodeIDClientC2ERNS_5INodeE, .-_ZN6uavcan19DynamicNodeIDClientC2ERNS_5INod
 2528              		.weak	_ZN6uavcan19DynamicNodeIDClientC1ERNS_5INodeE
 2529              		.thumb_set _ZN6uavcan19DynamicNodeIDClientC1ERNS_5INodeE,_ZN6uavcan19DynamicNodeIDClientC2ERNS_5IN
 2530              		.section	.text._ZNK6uavcan8TimeBaseINS_13MonotonicTimeENS_17MonotonicDurationEEplERKS2_,"axG",%pro
 2531              		.align	1
 2532              		.weak	_ZNK6uavcan8TimeBaseINS_13MonotonicTimeENS_17MonotonicDurationEEplERKS2_
 2533              		.thumb
 2534              		.thumb_func
 2535              		.type	_ZNK6uavcan8TimeBaseINS_13MonotonicTimeENS_17MonotonicDurationEEplERKS2_, %function
 2536              	_ZNK6uavcan8TimeBaseINS_13MonotonicTimeENS_17MonotonicDurationEEplERKS2_:
 2537              		@ args = 0, pretend = 0, frame = 0
 2538              		@ frame_needed = 0, uses_anonymous_args = 0
 2539 0000 0CCA     		ldmia	r2, {r2-r3}
 2540 0002 002A     		cmp	r2, #0
 2541 0004 F0B5     		push	{r4, r5, r6, r7, lr}
 2542 0006 73F10004 		sbcs	r4, r3, #0
 2543 000a D1E90045 		ldrd	r4, [r1]
 2544 000e 09DA     		bge	.L309
 2545 0010 5642     		rsbs	r6, r2, #0
 2546 0012 63EB4307 		sbc	r7, r3, r3, lsl #1
 2547 0016 BD42     		cmp	r5, r7
 2548 0018 08BF     		it	eq
 2549 001a B442     		cmpeq	r4, r6
 2550 001c 0ED2     		bcs	.L310
 2551 001e 0022     		movs	r2, #0
 2552 0020 0023     		movs	r3, #0
 2553 0022 0DE0     		b	.L312
 2554              	.L309:
 2555 0024 A618     		adds	r6, r4, r2
 2556 0026 45EB0307 		adc	r7, r5, r3
 2557 002a AF42     		cmp	r7, r5
 2558 002c 08BF     		it	eq
 2559 002e A642     		cmpeq	r6, r4
 2560 0030 04D2     		bcs	.L310
 2561 0032 4FF0FF32 		mov	r2, #-1
 2562 0036 4FF0FF33 		mov	r3, #-1
 2563 003a 01E0     		b	.L312
 2564              	.L310:
ARM GAS  /tmp/ccFEREDd.s 			page 46


 2565 003c 1219     		adds	r2, r2, r4
 2566 003e 6B41     		adcs	r3, r3, r5
 2567              	.L312:
 2568 0040 C0E90023 		strd	r2, [r0]
 2569 0044 F0BD     		pop	{r4, r5, r6, r7, pc}
 2570              		.size	_ZNK6uavcan8TimeBaseINS_13MonotonicTimeENS_17MonotonicDurationEEplERKS2_, .-_ZNK6uavcan8Time
 2571              		.section	.text._ZN6uavcan8protocol12GetNodeInfo_9Response_ILi0EEC2Ev,"axG",%progbits,_ZN6uavcan8pr
 2572              		.align	1
 2573              		.weak	_ZN6uavcan8protocol12GetNodeInfo_9Response_ILi0EEC2Ev
 2574              		.thumb
 2575              		.thumb_func
 2576              		.type	_ZN6uavcan8protocol12GetNodeInfo_9Response_ILi0EEC2Ev, %function
 2577              	_ZN6uavcan8protocol12GetNodeInfo_9Response_ILi0EEC2Ev:
 2578              		@ args = 0, pretend = 0, frame = 8
 2579              		@ frame_needed = 0, uses_anonymous_args = 0
 2580 0000 37B5     		push	{r0, r1, r2, r4, r5, lr}
 2581 0002 0446     		mov	r4, r0
 2582 0004 0023     		movs	r3, #0
 2583 0006 0022     		movs	r2, #0
 2584 0008 0025     		movs	r5, #0
 2585 000a C0E90623 		strd	r2, [r0, #24]
 2586 000e 02AA     		add	r2, sp, #8
 2587 0010 0560     		str	r5, [r0]
 2588 0012 0571     		strb	r5, [r0, #4]
 2589 0014 4571     		strb	r5, [r0, #5]
 2590 0016 8571     		strb	r5, [r0, #6]
 2591 0018 0581     		strh	r5, [r0, #8]	@ movhi
 2592 001a 0574     		strb	r5, [r0, #16]
 2593 001c 4574     		strb	r5, [r0, #17]
 2594 001e 8574     		strb	r5, [r0, #18]
 2595 0020 4561     		str	r5, [r0, #20]
 2596 0022 80F82050 		strb	r5, [r0, #32]
 2597 0026 80F82150 		strb	r5, [r0, #33]
 2598 002a 02F8015D 		strb	r5, [r2, #-1]!
 2599 002e 2230     		adds	r0, r0, #34
 2600 0030 04F13201 		add	r1, r4, #50
 2601 0034 FFF7FEFF 		bl	_ZN6uavcan4fillIPhhEEvT_S2_RKT0_
 2602 0038 2046     		mov	r0, r4
 2603 003a 84F83250 		strb	r5, [r4, #50]
 2604 003e 84F83351 		strb	r5, [r4, #307]
 2605 0042 03B0     		add	sp, sp, #12
 2606              		@ sp needed
 2607 0044 30BD     		pop	{r4, r5, pc}
 2608              		.size	_ZN6uavcan8protocol12GetNodeInfo_9Response_ILi0EEC2Ev, .-_ZN6uavcan8protocol12GetNodeInfo_9R
 2609              		.weak	_ZN6uavcan8protocol12GetNodeInfo_9Response_ILi0EEC1Ev
 2610              		.thumb_set _ZN6uavcan8protocol12GetNodeInfo_9Response_ILi0EEC1Ev,_ZN6uavcan8protocol12GetNodeInfo_
 2611              		.section	.text._ZN6uavcan18NodeStatusProviderC2ERNS_5INodeE,"axG",%progbits,_ZN6uavcan18NodeStatus
 2612              		.align	1
 2613              		.weak	_ZN6uavcan18NodeStatusProviderC2ERNS_5INodeE
 2614              		.thumb
 2615              		.thumb_func
 2616              		.type	_ZN6uavcan18NodeStatusProviderC2ERNS_5INodeE, %function
 2617              	_ZN6uavcan18NodeStatusProviderC2ERNS_5INodeE:
 2618              		@ args = 0, pretend = 0, frame = 16
 2619              		@ frame_needed = 0, uses_anonymous_args = 0
 2620 0000 2DE97F43 		push	{r0, r1, r2, r3, r4, r5, r6, r8, r9, lr}
 2621 0004 0446     		mov	r4, r0
ARM GAS  /tmp/ccFEREDd.s 			page 47


 2622 0006 0E46     		mov	r6, r1
 2623 0008 FFF7FEFF 		bl	_ZN6uavcan9TimerBaseC2ERNS_5INodeE
 2624 000c 2046     		mov	r0, r4
 2625 000e 254B     		ldr	r3, .L315
 2626 0010 3146     		mov	r1, r6
 2627 0012 40F8203B 		str	r3, [r0], #32
 2628 0016 FFF7FEFF 		bl	_ZNK6uavcan5INode16getMonotonicTimeEv
 2629 001a 234A     		ldr	r2, .L315+4
 2630 001c DFF89880 		ldr	r8, .L315+20
 2631 0020 0023     		movs	r3, #0
 2632 0022 CDE90223 		strd	r2, [sp, #8]
 2633 0026 4FF00009 		mov	r9, #0
 2634 002a 3146     		mov	r1, r6
 2635 002c 02AA     		add	r2, sp, #8
 2636 002e 6B46     		mov	r3, sp
 2637 0030 04F12800 		add	r0, r4, #40
 2638 0034 CDE90089 		strd	r8, [sp]
 2639 0038 FFF7FEFF 		bl	_ZN6uavcan20GenericPublisherBaseC2ERNS_5INodeENS_17MonotonicDurationES3_
 2640 003c 1B4B     		ldr	r3, .L315+8
 2641 003e 0025     		movs	r5, #0
 2642 0040 2365     		str	r3, [r4, #80]
 2643 0042 04F15C00 		add	r0, r4, #92
 2644 0046 04F18801 		add	r1, r4, #136
 2645 004a 02AA     		add	r2, sp, #8
 2646 004c 6665     		str	r6, [r4, #84]
 2647 004e A565     		str	r5, [r4, #88]
 2648 0050 C4F88850 		str	r5, [r4, #136]
 2649 0054 8DF80850 		strb	r5, [sp, #8]
 2650 0058 FFF7FEFF 		bl	_ZN6uavcan4fillIPhhEEvT_S2_RKT0_
 2651 005c 144B     		ldr	r3, .L315+12
 2652 005e 154A     		ldr	r2, .L315+16
 2653 0060 2365     		str	r3, [r4, #80]
 2654 0062 0023     		movs	r3, #0
 2655 0064 CDE90223 		strd	r2, [sp, #8]
 2656 0068 3146     		mov	r1, r6
 2657 006a 6B46     		mov	r3, sp
 2658 006c 02AA     		add	r2, sp, #8
 2659 006e 04F19000 		add	r0, r4, #144
 2660 0072 CDE90089 		strd	r8, [sp]
 2661 0076 FFF7FEFF 		bl	_ZN6uavcan20GenericPublisherBaseC2ERNS_5INodeENS_17MonotonicDurationES3_
 2662 007a C4F8B850 		str	r5, [r4, #184]
 2663 007e C4F8BC50 		str	r5, [r4, #188]
 2664 0082 C4F8C050 		str	r5, [r4, #192]
 2665 0086 C4F8C450 		str	r5, [r4, #196]
 2666 008a 04F1C800 		add	r0, r4, #200
 2667 008e FFF7FEFF 		bl	_ZN6uavcan8protocol12GetNodeInfo_9Response_ILi0EEC1Ev
 2668 0092 2046     		mov	r0, r4
 2669 0094 0123     		movs	r3, #1
 2670 0096 84F8CD30 		strb	r3, [r4, #205]
 2671 009a 84F8CC50 		strb	r5, [r4, #204]
 2672 009e 04B0     		add	sp, sp, #16
 2673              		@ sp needed
 2674 00a0 BDE87083 		pop	{r4, r5, r6, r8, r9, pc}
 2675              	.L316:
 2676              		.align	2
 2677              	.L315:
 2678 00a4 08000000 		.word	_ZTVN6uavcan18NodeStatusProviderE+8
ARM GAS  /tmp/ccFEREDd.s 			page 48


 2679 00a8 A0860100 		.word	100000
 2680 00ac 08000000 		.word	_ZTVN6uavcan17GenericSubscriberINS_8protocol12GetNodeInfo_ENS2_8Request_ILi0EEENS_16Transfer
 2681 00b0 08000000 		.word	_ZTVN6uavcan13ServiceServerINS_8protocol12GetNodeInfo_ENS_12MethodBinderIPNS_18NodeStatusPro
 2682 00b4 40420F00 		.word	1000000
 2683 00b8 00879303 		.word	60000000
 2684              		.size	_ZN6uavcan18NodeStatusProviderC2ERNS_5INodeE, .-_ZN6uavcan18NodeStatusProviderC2ERNS_5INodeE
 2685              		.weak	_ZN6uavcan18NodeStatusProviderC1ERNS_5INodeE
 2686              		.thumb_set _ZN6uavcan18NodeStatusProviderC1ERNS_5INodeE,_ZN6uavcan18NodeStatusProviderC2ERNS_5INod
 2687              		.section	.text._ZN6uavcan8protocol13DataTypeKind_ILi0EE23extendDataTypeSignatureERNS_17DataTypeSig
 2688              		.align	1
 2689              		.weak	_ZN6uavcan8protocol13DataTypeKind_ILi0EE23extendDataTypeSignatureERNS_17DataTypeSignatureE
 2690              		.thumb
 2691              		.thumb_func
 2692              		.type	_ZN6uavcan8protocol13DataTypeKind_ILi0EE23extendDataTypeSignatureERNS_17DataTypeSignatureE, 
 2693              	_ZN6uavcan8protocol13DataTypeKind_ILi0EE23extendDataTypeSignatureERNS_17DataTypeSignatureE:
 2694              		@ args = 0, pretend = 0, frame = 0
 2695              		@ frame_needed = 0, uses_anonymous_args = 0
 2696 0000 08B5     		push	{r3, lr}
 2697 0002 03A3     		adr	r3, .L318
 2698 0004 D3E90023 		ldrd	r2, [r3]
 2699 0008 FFF7FEFF 		bl	_ZN6uavcan17DataTypeSignature6extendES0_
 2700 000c 08BD     		pop	{r3, pc}
 2701              	.L319:
 2702 000e 00BF     		.align	3
 2703              	.L318:
 2704 0010 30598E00 		.word	9328944
 2705 0014 3EA72094 		.word	-1809799362
 2706              		.size	_ZN6uavcan8protocol13DataTypeKind_ILi0EE23extendDataTypeSignatureERNS_17DataTypeSignatureE, 
 2707              		.section	.text._ZNK6uavcan8TimeBaseINS_13MonotonicTimeENS_17MonotonicDurationEEmiERKS1_,"axG",%pro
 2708              		.align	1
 2709              		.weak	_ZNK6uavcan8TimeBaseINS_13MonotonicTimeENS_17MonotonicDurationEEmiERKS1_
 2710              		.thumb
 2711              		.thumb_func
 2712              		.type	_ZNK6uavcan8TimeBaseINS_13MonotonicTimeENS_17MonotonicDurationEEmiERKS1_, %function
 2713              	_ZNK6uavcan8TimeBaseINS_13MonotonicTimeENS_17MonotonicDurationEEmiERKS1_:
 2714              		@ args = 0, pretend = 0, frame = 0
 2715              		@ frame_needed = 0, uses_anonymous_args = 0
 2716 0000 30B5     		push	{r4, r5, lr}
 2717 0002 0CCA     		ldmia	r2, {r2-r3}
 2718 0004 D1E90045 		ldrd	r4, [r1]
 2719 0008 A41A     		subs	r4, r4, r2
 2720 000a 65EB0305 		sbc	r5, r5, r3
 2721 000e C0E90045 		strd	r4, [r0]
 2722 0012 30BD     		pop	{r4, r5, pc}
 2723              		.size	_ZNK6uavcan8TimeBaseINS_13MonotonicTimeENS_17MonotonicDurationEEmiERKS1_, .-_ZNK6uavcan8Time
 2724              		.section	.text._ZNK6uavcan19GlobalTimeSyncSlave8isActiveEv,"axG",%progbits,_ZNK6uavcan19GlobalTime
 2725              		.align	1
 2726              		.weak	_ZNK6uavcan19GlobalTimeSyncSlave8isActiveEv
 2727              		.thumb
 2728              		.thumb_func
 2729              		.type	_ZNK6uavcan19GlobalTimeSyncSlave8isActiveEv, %function
 2730              	_ZNK6uavcan19GlobalTimeSyncSlave8isActiveEv:
 2731              		@ args = 0, pretend = 0, frame = 16
 2732              		@ frame_needed = 0, uses_anonymous_args = 0
 2733 0000 1FB5     		push	{r0, r1, r2, r3, r4, lr}
 2734 0002 0446     		mov	r4, r0
 2735 0004 4068     		ldr	r0, [r0, #4]
ARM GAS  /tmp/ccFEREDd.s 			page 49


 2736 0006 FFF7FEFF 		bl	_ZN6uavcan5INode14getSystemClockEv
 2737 000a 0368     		ldr	r3, [r0]
 2738 000c 0146     		mov	r1, r0
 2739 000e 9B68     		ldr	r3, [r3, #8]
 2740 0010 02A8     		add	r0, sp, #8
 2741 0012 9847     		blx	r3
 2742 0014 04F15802 		add	r2, r4, #88
 2743 0018 6846     		mov	r0, sp
 2744 001a 02A9     		add	r1, sp, #8
 2745 001c FFF7FEFF 		bl	_ZNK6uavcan8TimeBaseINS_13MonotonicTimeENS_17MonotonicDurationEEmiERKS1_
 2746 0020 D4E91623 		ldrd	r2, [r4, #88]
 2747 0024 1343     		orrs	r3, r2, r3
 2748 0026 0BD0     		beq	.L325
 2749 0028 07A1     		adr	r1, .L326
 2750 002a D1E90001 		ldrd	r0, [r1]
 2751 002e DDE90023 		ldrd	r2, [sp]
 2752 0032 9042     		cmp	r0, r2
 2753 0034 71EB0303 		sbcs	r3, r1, r3
 2754 0038 ACBF     		ite	ge
 2755 003a 0120     		movge	r0, #1
 2756 003c 0020     		movlt	r0, #0
 2757 003e 00E0     		b	.L324
 2758              	.L325:
 2759 0040 0020     		movs	r0, #0
 2760              	.L324:
 2761 0042 04B0     		add	sp, sp, #16
 2762              		@ sp needed
 2763 0044 10BD     		pop	{r4, pc}
 2764              	.L327:
 2765 0046 00BF     		.align	3
 2766              	.L326:
 2767 0048 A7952100 		.word	2200999
 2768 004c 00000000 		.word	0
 2769              		.size	_ZNK6uavcan19GlobalTimeSyncSlave8isActiveEv, .-_ZNK6uavcan19GlobalTimeSyncSlave8isActiveEv
 2770              		.section	.text._ZN6uavcan19GlobalTimeSyncSlave10processMsgERKNS_21ReceivedDataStructureINS_8protoc
 2771              		.align	1
 2772              		.weak	_ZN6uavcan19GlobalTimeSyncSlave10processMsgERKNS_21ReceivedDataStructureINS_8protocol15Globa
 2773              		.thumb
 2774              		.thumb_func
 2775              		.type	_ZN6uavcan19GlobalTimeSyncSlave10processMsgERKNS_21ReceivedDataStructureINS_8protocol15Globa
 2776              	_ZN6uavcan19GlobalTimeSyncSlave10processMsgERKNS_21ReceivedDataStructureINS_8protocol15GlobalTimeSy
 2777              		@ args = 0, pretend = 0, frame = 16
 2778              		@ frame_needed = 0, uses_anonymous_args = 0
 2779 0000 2DE9F043 		push	{r4, r5, r6, r7, r8, r9, lr}
 2780 0004 8B68     		ldr	r3, [r1, #8]
 2781 0006 85B0     		sub	sp, sp, #20
 2782 0008 0446     		mov	r4, r0
 2783 000a 0D46     		mov	r5, r1
 2784 000c 02AA     		add	r2, sp, #8
 2785 000e 23B9     		cbnz	r3, .L329
 2786 0010 0020     		movs	r0, #0
 2787 0012 0021     		movs	r1, #0
 2788 0014 CDE90201 		strd	r0, [sp, #8]
 2789 0018 04E0     		b	.L330
 2790              	.L329:
 2791 001a 0833     		adds	r3, r3, #8
 2792 001c 93E80300 		ldmia	r3, {r0, r1}
ARM GAS  /tmp/ccFEREDd.s 			page 50


 2793 0020 82E80300 		stmia	r2, {r0, r1}
 2794              	.L330:
 2795 0024 1146     		mov	r1, r2
 2796 0026 6846     		mov	r0, sp
 2797 0028 04F15002 		add	r2, r4, #80
 2798 002c FFF7FEFF 		bl	_ZNK6uavcan8TimeBaseINS_13MonotonicTimeENS_17MonotonicDurationEEmiERKS1_
 2799 0030 94F86130 		ldrb	r3, [r4, #97]	@ zero_extendqisi2
 2800 0034 1A06     		lsls	r2, r3, #24
 2801 0036 06D4     		bmi	.L343
 2802 0038 626D     		ldr	r2, [r4, #84]
 2803 003a 216D     		ldr	r1, [r4, #80]
 2804 003c 0A43     		orrs	r2, r1, r2
 2805 003e 0CBF     		ite	eq
 2806 0040 0122     		moveq	r2, #1
 2807 0042 0022     		movne	r2, #0
 2808 0044 00E0     		b	.L331
 2809              	.L343:
 2810 0046 0122     		movs	r2, #1
 2811              	.L331:
 2812 0048 A968     		ldr	r1, [r5, #8]
 2813 004a 09B1     		cbz	r1, .L344
 2814 004c C87E     		ldrb	r0, [r1, #27]	@ zero_extendqisi2
 2815 004e 00E0     		b	.L332
 2816              	.L344:
 2817 0050 FF20     		movs	r0, #255
 2818              	.L332:
 2819 0052 9842     		cmp	r0, r3
 2820 0054 DDE90067 		ldrd	r6, [sp]
 2821 0058 08D3     		bcc	.L333
 2822 005a 0FF28809 		adr	r9, .L351+4
 2823 005e D9E90089 		ldrd	r8, [r9]
 2824 0062 B045     		cmp	r8, r6
 2825 0064 79EB0700 		sbcs	r0, r9, r7
 2826 0068 00DB     		blt	.L333
 2827 006a 22B1     		cbz	r2, .L334
 2828              	.L333:
 2829 006c 2046     		mov	r0, r4
 2830 006e 2946     		mov	r1, r5
 2831 0070 FFF7FEFF 		bl	_ZN6uavcan19GlobalTimeSyncSlave13updateFromMsgERKNS_21ReceivedDataStructureINS_8protocol15Globa
 2832 0074 31E0     		b	.L328
 2833              	.L334:
 2834 0076 09B1     		cbz	r1, .L345
 2835 0078 0A7F     		ldrb	r2, [r1, #28]	@ zero_extendqisi2
 2836 007a 00E0     		b	.L336
 2837              	.L345:
 2838 007c 0A46     		mov	r2, r1
 2839              	.L336:
 2840 007e 94F86300 		ldrb	r0, [r4, #99]	@ zero_extendqisi2
 2841 0082 9042     		cmp	r0, r2
 2842 0084 29D1     		bne	.L328
 2843 0086 09B1     		cbz	r1, .L346
 2844 0088 CA7E     		ldrb	r2, [r1, #27]	@ zero_extendqisi2
 2845 008a 00E0     		b	.L337
 2846              	.L346:
 2847 008c FF22     		movs	r2, #255
 2848              	.L337:
 2849 008e 9A42     		cmp	r2, r3
ARM GAS  /tmp/ccFEREDd.s 			page 51


 2850 0090 23D1     		bne	.L328
 2851 0092 94F86030 		ldrb	r3, [r4, #96]	@ zero_extendqisi2
 2852 0096 012B     		cmp	r3, #1
 2853 0098 17D1     		bne	.L339
 2854 009a D5E90067 		ldrd	r6, [r5]
 2855 009e 04F16200 		add	r0, r4, #98
 2856 00a2 01B1     		cbz	r1, .L340
 2857 00a4 897E     		ldrb	r1, [r1, #26]	@ zero_extendqisi2
 2858              	.L340:
 2859 00a6 FFF7FEFF 		bl	_ZNK6uavcan10TransferID22computeForwardDistanceES0_
 2860 00aa DDE90023 		ldrd	r2, [sp]
 2861 00ae 56EA0701 		orrs	r1, r6, r7
 2862 00b2 07D0     		beq	.L341
 2863 00b4 0128     		cmp	r0, #1
 2864 00b6 05D1     		bne	.L341
 2865 00b8 0948     		ldr	r0, .L351
 2866 00ba 0021     		movs	r1, #0
 2867 00bc 9042     		cmp	r0, r2
 2868 00be 71EB0303 		sbcs	r3, r1, r3
 2869 00c2 02DA     		bge	.L339
 2870              	.L341:
 2871 00c4 0023     		movs	r3, #0
 2872 00c6 84F86030 		strb	r3, [r4, #96]
 2873              	.L339:
 2874 00ca 94F86030 		ldrb	r3, [r4, #96]	@ zero_extendqisi2
 2875 00ce 012B     		cmp	r3, #1
 2876 00d0 CCD1     		bne	.L333
 2877 00d2 2046     		mov	r0, r4
 2878 00d4 2946     		mov	r1, r5
 2879 00d6 FFF7FEFF 		bl	_ZN6uavcan19GlobalTimeSyncSlave13adjustFromMsgERKNS_21ReceivedDataStructureINS_8protocol15Globa
 2880              	.L328:
 2881 00da 05B0     		add	sp, sp, #20
 2882              		@ sp needed
 2883 00dc BDE8F083 		pop	{r4, r5, r6, r7, r8, r9, pc}
 2884              	.L352:
 2885              		.align	3
 2886              	.L351:
 2887 00e0 C7CC1000 		.word	1100999
 2888 00e4 A7952100 		.word	2200999
 2889 00e8 00000000 		.word	0
 2890              		.size	_ZN6uavcan19GlobalTimeSyncSlave10processMsgERKNS_21ReceivedDataStructureINS_8protocol15Globa
 2891              		.section	.text._ZN6uavcan19GlobalTimeSyncSlave20handleGlobalTimeSyncERKNS_21ReceivedDataStructureI
 2892              		.align	1
 2893              		.weak	_ZN6uavcan19GlobalTimeSyncSlave20handleGlobalTimeSyncERKNS_21ReceivedDataStructureINS_8proto
 2894              		.thumb
 2895              		.thumb_func
 2896              		.type	_ZN6uavcan19GlobalTimeSyncSlave20handleGlobalTimeSyncERKNS_21ReceivedDataStructureINS_8proto
 2897              	_ZN6uavcan19GlobalTimeSyncSlave20handleGlobalTimeSyncERKNS_21ReceivedDataStructureINS_8protocol15Gl
 2898              		@ args = 0, pretend = 0, frame = 0
 2899              		@ frame_needed = 0, uses_anonymous_args = 0
 2900 0000 08B5     		push	{r3, lr}
 2901 0002 8B68     		ldr	r3, [r1, #8]
 2902 0004 23B1     		cbz	r3, .L353
 2903 0006 5B7E     		ldrb	r3, [r3, #25]	@ zero_extendqisi2
 2904 0008 022B     		cmp	r3, #2
 2905 000a 01D1     		bne	.L353
 2906 000c FFF7FEFF 		bl	_ZN6uavcan19GlobalTimeSyncSlave10processMsgERKNS_21ReceivedDataStructureINS_8protocol15GlobalTi
ARM GAS  /tmp/ccFEREDd.s 			page 52


 2907              	.L353:
 2908 0010 08BD     		pop	{r3, pc}
 2909              		.size	_ZN6uavcan19GlobalTimeSyncSlave20handleGlobalTimeSyncERKNS_21ReceivedDataStructureINS_8proto
 2910              		.section	.text._ZN12uavcan_stm328CanIfaceD2Ev,"axG",%progbits,_ZN12uavcan_stm328CanIfaceD5Ev,comda
 2911              		.align	1
 2912              		.weak	_ZN12uavcan_stm328CanIfaceD2Ev
 2913              		.thumb
 2914              		.thumb_func
 2915              		.type	_ZN12uavcan_stm328CanIfaceD2Ev, %function
 2916              	_ZN12uavcan_stm328CanIfaceD2Ev:
 2917              		@ args = 0, pretend = 0, frame = 0
 2918              		@ frame_needed = 0, uses_anonymous_args = 0
 2919              		@ link register save eliminated.
 2920 0000 0246     		mov	r2, r0
 2921 0002 054B     		ldr	r3, .L362
 2922 0004 42F8283B 		str	r3, [r2], #40
 2923 0008 00F18803 		add	r3, r0, #136
 2924              	.L360:
 2925 000c 9342     		cmp	r3, r2
 2926 000e 01D0     		beq	.L359
 2927 0010 203B     		subs	r3, r3, #32
 2928 0012 FBE7     		b	.L360
 2929              	.L359:
 2930 0014 7047     		bx	lr
 2931              	.L363:
 2932 0016 00BF     		.align	2
 2933              	.L362:
 2934 0018 08000000 		.word	_ZTVN12uavcan_stm328CanIfaceE+8
 2935              		.size	_ZN12uavcan_stm328CanIfaceD2Ev, .-_ZN12uavcan_stm328CanIfaceD2Ev
 2936              		.weak	_ZN12uavcan_stm328CanIfaceD1Ev
 2937              		.thumb_set _ZN12uavcan_stm328CanIfaceD1Ev,_ZN12uavcan_stm328CanIfaceD2Ev
 2938              		.section	.text._ZN12uavcan_stm3213CanInitHelperILj32EED2Ev,"axG",%progbits,_ZN12uavcan_stm3213CanI
 2939              		.align	1
 2940              		.weak	_ZN12uavcan_stm3213CanInitHelperILj32EED2Ev
 2941              		.thumb
 2942              		.thumb_func
 2943              		.type	_ZN12uavcan_stm3213CanInitHelperILj32EED2Ev, %function
 2944              	_ZN12uavcan_stm3213CanInitHelperILj32EED2Ev:
 2945              		@ args = 0, pretend = 0, frame = 0
 2946              		@ frame_needed = 0, uses_anonymous_args = 0
 2947 0000 10B5     		push	{r4, lr}
 2948 0002 0446     		mov	r4, r0
 2949 0004 064B     		ldr	r3, .L365
 2950 0006 00F50A60 		add	r0, r0, #2208
 2951 000a 40F8A03C 		str	r3, [r0, #-160]
 2952 000e FFF7FEFF 		bl	_ZN12uavcan_stm328CanIfaceD1Ev
 2953 0012 04F50160 		add	r0, r4, #2064
 2954 0016 FFF7FEFF 		bl	_ZN12uavcan_stm328CanIfaceD1Ev
 2955 001a 2046     		mov	r0, r4
 2956 001c 10BD     		pop	{r4, pc}
 2957              	.L366:
 2958 001e 00BF     		.align	2
 2959              	.L365:
 2960 0020 08000000 		.word	_ZTVN12uavcan_stm329CanDriverE+8
 2961              		.size	_ZN12uavcan_stm3213CanInitHelperILj32EED2Ev, .-_ZN12uavcan_stm3213CanInitHelperILj32EED2Ev
 2962              		.weak	_ZN12uavcan_stm3213CanInitHelperILj32EED1Ev
 2963              		.thumb_set _ZN12uavcan_stm3213CanInitHelperILj32EED1Ev,_ZN12uavcan_stm3213CanInitHelperILj32EED2Ev
ARM GAS  /tmp/ccFEREDd.s 			page 53


 2964              		.section	.text._ZN12uavcan_stm328CanIfaceD0Ev,"axG",%progbits,_ZN12uavcan_stm328CanIfaceD5Ev,comda
 2965              		.align	1
 2966              		.weak	_ZN12uavcan_stm328CanIfaceD0Ev
 2967              		.thumb
 2968              		.thumb_func
 2969              		.type	_ZN12uavcan_stm328CanIfaceD0Ev, %function
 2970              	_ZN12uavcan_stm328CanIfaceD0Ev:
 2971              		@ args = 0, pretend = 0, frame = 0
 2972              		@ frame_needed = 0, uses_anonymous_args = 0
 2973 0000 10B5     		push	{r4, lr}
 2974 0002 0446     		mov	r4, r0
 2975 0004 FFF7FEFF 		bl	_ZN12uavcan_stm328CanIfaceD1Ev
 2976 0008 2046     		mov	r0, r4
 2977 000a FFF7FEFF 		bl	_ZdlPv
 2978 000e 2046     		mov	r0, r4
 2979 0010 10BD     		pop	{r4, pc}
 2980              		.size	_ZN12uavcan_stm328CanIfaceD0Ev, .-_ZN12uavcan_stm328CanIfaceD0Ev
 2981              		.section	.text._ZN6uavcan4NodeILj7168EEC2ERNS_10ICanDriverERNS_12ISystemClockE,"axG",%progbits,_ZN
 2982              		.align	1
 2983              		.weak	_ZN6uavcan4NodeILj7168EEC2ERNS_10ICanDriverERNS_12ISystemClockE
 2984              		.thumb
 2985              		.thumb_func
 2986              		.type	_ZN6uavcan4NodeILj7168EEC2ERNS_10ICanDriverERNS_12ISystemClockE, %function
 2987              	_ZN6uavcan4NodeILj7168EEC2ERNS_10ICanDriverERNS_12ISystemClockE:
 2988              		@ args = 0, pretend = 0, frame = 24
 2989              		@ frame_needed = 0, uses_anonymous_args = 0
 2990 0000 994B     		ldr	r3, .L372
 2991 0002 2DE9F04F 		push	{r4, r5, r6, r7, r8, r9, r10, fp, lr}
 2992 0006 0360     		str	r3, [r0]
 2993 0008 984B     		ldr	r3, .L372+4
 2994 000a 0446     		mov	r4, r0
 2995 000c 40F8083F 		str	r3, [r0, #8]!
 2996 0010 41F61043 		movw	r3, #7184
 2997 0014 0025     		movs	r5, #0
 2998 0016 0830     		adds	r0, r0, #8
 2999 0018 E060     		str	r0, [r4, #12]
 3000 001a E552     		strh	r5, [r4, r3]	@ movhi
 3001 001c 41F61243 		movw	r3, #7186
 3002 0020 8846     		mov	r8, r1
 3003 0022 1646     		mov	r6, r2
 3004 0024 89B0     		sub	sp, sp, #36
 3005 0026 E552     		strh	r5, [r4, r3]	@ movhi
 3006 0028 2946     		mov	r1, r5
 3007 002a 4FF4E052 		mov	r2, #7168
 3008 002e FFF7FEFF 		bl	memset
 3009              	.L369:
 3010 0032 05F13802 		add	r2, r5, #56
 3011 0036 B2F5E05F 		cmp	r2, #7168
 3012 003a E368     		ldr	r3, [r4, #12]
 3013 003c 03D0     		beq	.L371
 3014 003e 9918     		adds	r1, r3, r2
 3015 0040 5951     		str	r1, [r3, r5]
 3016 0042 1546     		mov	r5, r2
 3017 0044 F5E7     		b	.L369
 3018              	.L371:
 3019 0046 41F6C832 		movw	r2, #7112
 3020 004a 0025     		movs	r5, #0
ARM GAS  /tmp/ccFEREDd.s 			page 54


 3021 004c 9D50     		str	r5, [r3, r2]
 3022 004e 41F61C43 		movw	r3, #7196
 3023 0052 04F5E157 		add	r7, r4, #7200
 3024 0056 04F10809 		add	r9, r4, #8
 3025 005a E550     		str	r5, [r4, r3]
 3026 005c 4146     		mov	r1, r8
 3027 005e 4A46     		mov	r2, r9
 3028 0060 3346     		mov	r3, r6
 3029 0062 0095     		str	r5, [sp]
 3030 0064 07F10800 		add	r0, r7, #8
 3031 0068 FFF7FEFF 		bl	_ZN6uavcan12CanIOManagerC1ERNS_10ICanDriverERNS_14IPoolAllocatorERNS_12ISystemClockEj
 3032 006c 41F6C842 		movw	r2, #7368
 3033 0070 04F5E653 		add	r3, r4, #7360
 3034 0074 C7F8A060 		str	r6, [r7, #160]
 3035 0078 4FF00008 		mov	r8, #0
 3036 007c A550     		str	r5, [r4, r2]
 3037 007e C3F80C90 		str	r9, [r3, #12]
 3038 0082 04F5E653 		add	r3, r4, #7360
 3039 0086 4FF00009 		mov	r9, #0
 3040 008a C3E90489 		strd	r8, [r3, #16]
 3041 008e C3E90689 		strd	r8, [r3, #24]
 3042 0092 C3E90889 		strd	r8, [r3, #32]
 3043 0096 41F6E843 		movw	r3, #7400
 3044 009a E550     		str	r5, [r4, r3]
 3045 009c 41F6EC43 		movw	r3, #7404
 3046 00a0 E550     		str	r5, [r4, r3]
 3047 00a2 41F6F043 		movw	r3, #7408
 3048 00a6 E550     		str	r5, [r4, r3]
 3049 00a8 41F6F443 		movw	r3, #7412
 3050 00ac E550     		str	r5, [r4, r3]
 3051 00ae 704B     		ldr	r3, .L372+8
 3052 00b0 C7F8D850 		str	r5, [r7, #216]
 3053 00b4 1B78     		ldrb	r3, [r3]	@ zero_extendqisi2
 3054 00b6 87F8DD50 		strb	r5, [r7, #221]
 3055 00ba 87F8DC30 		strb	r3, [r7, #220]
 3056 00be 3368     		ldr	r3, [r6]
 3057 00c0 04F5E850 		add	r0, r4, #7424
 3058 00c4 3146     		mov	r1, r6
 3059 00c6 9B68     		ldr	r3, [r3, #8]
 3060 00c8 9847     		blx	r3
 3061 00ca 41F28830 		movw	r0, #5000
 3062 00ce 694E     		ldr	r6, .L372+12
 3063 00d0 04F5E853 		add	r3, r4, #7424
 3064 00d4 0021     		movs	r1, #0
 3065 00d6 C3E90201 		strd	r0, [r3, #8]
 3066 00da 0027     		movs	r7, #0
 3067 00dc 04F5E853 		add	r3, r4, #7424
 3068 00e0 04F5E05A 		add	r10, r4, #7168
 3069 00e4 C3E90467 		strd	r6, [r3, #16]
 3070 00e8 2146     		mov	r1, r4
 3071 00ea 8AF81851 		strb	r5, [r10, #280]
 3072 00ee 04F5E950 		add	r0, r4, #7456
 3073 00f2 FFF7FEFF 		bl	_ZN6uavcan18NodeStatusProviderC1ERNS_5INodeE
 3074 00f6 41F67472 		movw	r2, #8052
 3075 00fa 04F5FB50 		add	r0, r4, #8032
 3076 00fe 1C30     		adds	r0, r0, #28
 3077 0100 0146     		mov	r1, r0
ARM GAS  /tmp/ccFEREDd.s 			page 55


 3078 0102 41F6707B 		movw	fp, #8048
 3079 0106 04F5FB53 		add	r3, r4, #8032
 3080 010a 0DF1200A 		add	r10, sp, #32
 3081 010e A450     		str	r4, [r4, r2]
 3082 0110 9D61     		str	r5, [r3, #24]
 3083 0112 594B     		ldr	r3, .L372+16
 3084 0114 0AF8085D 		strb	r5, [r10, #-8]!
 3085 0118 04F5FB5C 		add	ip, r4, #8032
 3086 011c 0CF1100C 		add	ip, ip, #16
 3087 0120 44F80B30 		str	r3, [r4, fp]
 3088 0124 5246     		mov	r2, r10
 3089 0126 41F82C5F 		str	r5, [r1, #44]!
 3090 012a CDF808C0 		str	ip, [sp, #8]
 3091 012e CDF80CC0 		str	ip, [sp, #12]
 3092 0132 FFF7FEFF 		bl	_ZN6uavcan4fillIPhhEEvT_S2_RKT0_
 3093 0136 514B     		ldr	r3, .L372+20
 3094 0138 514A     		ldr	r2, .L372+24
 3095 013a 44F80B30 		str	r3, [r4, fp]
 3096 013e 0DF1200B 		add	fp, sp, #32
 3097 0142 0023     		movs	r3, #0
 3098 0144 6BE90423 		strd	r2, [fp, #-16]!
 3099 0148 04F5FD50 		add	r0, r4, #8096
 3100 014c 2146     		mov	r1, r4
 3101 014e 5246     		mov	r2, r10
 3102 0150 5B46     		mov	r3, fp
 3103 0152 1030     		adds	r0, r0, #16
 3104 0154 CDE90667 		strd	r6, [sp, #24]
 3105 0158 FFF7FEFF 		bl	_ZN6uavcan20GenericPublisherBaseC2ERNS_5INodeENS_17MonotonicDurationES3_
 3106 015c 41F6D872 		movw	r2, #8152
 3107 0160 DDF808C0 		ldr	ip, [sp, #8]
 3108 0164 04F5FE53 		add	r3, r4, #8128
 3109 0168 04F5FF50 		add	r0, r4, #8160
 3110 016c A550     		str	r5, [r4, r2]
 3111 016e 2146     		mov	r1, r4
 3112 0170 DD61     		str	r5, [r3, #28]
 3113 0172 1D62     		str	r5, [r3, #32]
 3114 0174 0830     		adds	r0, r0, #8
 3115 0176 CCF87450 		str	r5, [ip, #116]
 3116 017a FFF7FEFF 		bl	_ZN6uavcan6LoggerC1ERNS_5INodeE
 3117 017e 42F29C02 		movw	r2, #8348
 3118 0182 04F50250 		add	r0, r4, #8320
 3119 0186 04F50253 		add	r3, r4, #8320
 3120 018a 2430     		adds	r0, r0, #36
 3121 018c A450     		str	r4, [r4, r2]
 3122 018e 0146     		mov	r1, r0
 3123 0190 1D62     		str	r5, [r3, #32]
 3124 0192 42F29803 		movw	r3, #8344
 3125 0196 3B4A     		ldr	r2, .L372+28
 3126 0198 04F5025C 		add	ip, r4, #8320
 3127 019c E250     		str	r2, [r4, r3]
 3128 019e 0CF1180C 		add	ip, ip, #24
 3129 01a2 41F82C5F 		str	r5, [r1, #44]!
 3130 01a6 5246     		mov	r2, r10
 3131 01a8 CDF80CC0 		str	ip, [sp, #12]
 3132 01ac 0293     		str	r3, [sp, #8]
 3133 01ae 8DF81850 		strb	r5, [sp, #24]
 3134 01b2 FFF7FEFF 		bl	_ZN6uavcan4fillIPhhEEvT_S2_RKT0_
ARM GAS  /tmp/ccFEREDd.s 			page 56


 3135 01b6 029B     		ldr	r3, [sp, #8]
 3136 01b8 334A     		ldr	r2, .L372+32
 3137 01ba 04F50350 		add	r0, r4, #8384
 3138 01be E250     		str	r2, [r4, r3]
 3139 01c0 2F4A     		ldr	r2, .L372+24
 3140 01c2 0023     		movs	r3, #0
 3141 01c4 CDE90423 		strd	r2, [sp, #16]
 3142 01c8 2146     		mov	r1, r4
 3143 01ca 5246     		mov	r2, r10
 3144 01cc 5B46     		mov	r3, fp
 3145 01ce 1830     		adds	r0, r0, #24
 3146 01d0 CDE90667 		strd	r6, [sp, #24]
 3147 01d4 FFF7FEFF 		bl	_ZN6uavcan20GenericPublisherBaseC2ERNS_5INodeENS_17MonotonicDurationES3_
 3148 01d8 42F21C12 		movw	r2, #8476
 3149 01dc DDF80CC0 		ldr	ip, [sp, #12]
 3150 01e0 04F50450 		add	r0, r4, #8448
 3151 01e4 04F50453 		add	r3, r4, #8448
 3152 01e8 2430     		adds	r0, r0, #36
 3153 01ea 1D60     		str	r5, [r3]
 3154 01ec 5D60     		str	r5, [r3, #4]
 3155 01ee 9D60     		str	r5, [r3, #8]
 3156 01f0 0146     		mov	r1, r0
 3157 01f2 CCF87450 		str	r5, [ip, #116]
 3158 01f6 CCF87850 		str	r5, [ip, #120]
 3159 01fa A450     		str	r4, [r4, r2]
 3160 01fc 1D62     		str	r5, [r3, #32]
 3161 01fe 42F21813 		movw	r3, #8472
 3162 0202 224A     		ldr	r2, .L372+36
 3163 0204 04F5045C 		add	ip, r4, #8448
 3164 0208 E250     		str	r2, [r4, r3]
 3165 020a 0CF1180C 		add	ip, ip, #24
 3166 020e 41F82C5F 		str	r5, [r1, #44]!
 3167 0212 5246     		mov	r2, r10
 3168 0214 CDF80CC0 		str	ip, [sp, #12]
 3169 0218 0293     		str	r3, [sp, #8]
 3170 021a 8DF81850 		strb	r5, [sp, #24]
 3171 021e FFF7FEFF 		bl	_ZN6uavcan4fillIPhhEEvT_S2_RKT0_
 3172 0222 029B     		ldr	r3, [sp, #8]
 3173 0224 1A4A     		ldr	r2, .L372+40
 3174 0226 04F50550 		add	r0, r4, #8512
 3175 022a E250     		str	r2, [r4, r3]
 3176 022c 144A     		ldr	r2, .L372+24
 3177 022e 0023     		movs	r3, #0
 3178 0230 CDE90423 		strd	r2, [sp, #16]
 3179 0234 2146     		mov	r1, r4
 3180 0236 5B46     		mov	r3, fp
 3181 0238 5246     		mov	r2, r10
 3182 023a 1830     		adds	r0, r0, #24
 3183 023c CDE90667 		strd	r6, [sp, #24]
 3184 0240 FFF7FEFF 		bl	_ZN6uavcan20GenericPublisherBaseC2ERNS_5INodeENS_17MonotonicDurationES3_
 3185 0244 DDF80CC0 		ldr	ip, [sp, #12]
 3186 0248 04F50653 		add	r3, r4, #8576
 3187 024c 1D60     		str	r5, [r3]
 3188 024e 5D60     		str	r5, [r3, #4]
 3189 0250 9D60     		str	r5, [r3, #8]
 3190 0252 2046     		mov	r0, r4
 3191 0254 CCF87450 		str	r5, [ip, #116]
ARM GAS  /tmp/ccFEREDd.s 			page 57


 3192 0258 C3E90489 		strd	r8, [r3, #16]
 3193 025c 42F29813 		movw	r3, #8600
 3194 0260 E554     		strb	r5, [r4, r3]
 3195 0262 09B0     		add	sp, sp, #36
 3196              		@ sp needed
 3197 0264 BDE8F08F 		pop	{r4, r5, r6, r7, r8, r9, r10, fp, pc}
 3198              	.L373:
 3199              		.align	2
 3200              	.L372:
 3201 0268 08000000 		.word	_ZTVN6uavcan4NodeILj7168EEE+8
 3202 026c 08000000 		.word	_ZTVN6uavcan13PoolAllocatorILj7168ELh56EcEE+8
 3203 0270 00000000 		.word	_ZN6uavcan6NodeID9BroadcastE
 3204 0274 40420F00 		.word	1000000
 3205 0278 08000000 		.word	_ZTVN6uavcan17GenericSubscriberINS_8protocol16GetDataTypeInfo_ENS2_8Request_ILi0EEENS_16Tran
 3206 027c 08000000 		.word	_ZTVN6uavcan13ServiceServerINS_8protocol16GetDataTypeInfo_ENS_12MethodBinderIPNS_20DataTypeI
 3207 0280 00879303 		.word	60000000
 3208 0284 08000000 		.word	_ZTVN6uavcan17GenericSubscriberINS_8protocol12RestartNode_ENS2_8Request_ILi0EEENS_16Transfer
 3209 0288 08000000 		.word	_ZTVN6uavcan13ServiceServerINS_8protocol12RestartNode_ENS_12MethodBinderIPKNS_20RestartReque
 3210 028c 08000000 		.word	_ZTVN6uavcan17GenericSubscriberINS_8protocol18GetTransportStats_ENS2_8Request_ILi0EEENS_16Tr
 3211 0290 08000000 		.word	_ZTVN6uavcan13ServiceServerINS_8protocol18GetTransportStats_ENS_12MethodBinderIPKNS_22Transp
 3212              		.size	_ZN6uavcan4NodeILj7168EEC2ERNS_10ICanDriverERNS_12ISystemClockE, .-_ZN6uavcan4NodeILj7168EEC
 3213              		.weak	_ZN6uavcan4NodeILj7168EEC1ERNS_10ICanDriverERNS_12ISystemClockE
 3214              		.thumb_set _ZN6uavcan4NodeILj7168EEC1ERNS_10ICanDriverERNS_12ISystemClockE,_ZN6uavcan4NodeILj7168E
 3215              		.section	.text._ZN4node7getNodeEv,"ax",%progbits
 3216              		.align	1
 3217              		.global	_ZN4node7getNodeEv
 3218              		.thumb
 3219              		.thumb_func
 3220              		.type	_ZN4node7getNodeEv, %function
 3221              	_ZN4node7getNodeEv:
 3222              		@ args = 0, pretend = 0, frame = 0
 3223              		@ frame_needed = 0, uses_anonymous_args = 0
 3224 0000 10B5     		push	{r4, lr}
 3225 0002 0A4C     		ldr	r4, .L376
 3226 0004 2368     		ldr	r3, [r4]
 3227 0006 DB07     		lsls	r3, r3, #31
 3228 0008 0DD4     		bmi	.L375
 3229 000a FFF7FEFF 		bl	_ZN12uavcan_stm3211SystemClock8instanceEv
 3230 000e 0849     		ldr	r1, .L376+4
 3231 0010 0246     		mov	r2, r0
 3232 0012 0848     		ldr	r0, .L376+8
 3233 0014 FFF7FEFF 		bl	_ZN6uavcan4NodeILj7168EEC1ERNS_10ICanDriverERNS_12ISystemClockE
 3234 0018 0123     		movs	r3, #1
 3235 001a 0648     		ldr	r0, .L376+8
 3236 001c 0649     		ldr	r1, .L376+12
 3237 001e 074A     		ldr	r2, .L376+16
 3238 0020 2360     		str	r3, [r4]
 3239 0022 FFF7FEFF 		bl	__aeabi_atexit
 3240              	.L375:
 3241 0026 0348     		ldr	r0, .L376+8
 3242 0028 10BD     		pop	{r4, pc}
 3243              	.L377:
 3244 002a 00BF     		.align	2
 3245              	.L376:
 3246 002c 00000000 		.word	.LANCHOR5
 3247 0030 00080000 		.word	.LANCHOR7+2048
 3248 0034 00000000 		.word	.LANCHOR6
ARM GAS  /tmp/ccFEREDd.s 			page 58


 3249 0038 00000000 		.word	_ZN6uavcan4NodeILj7168EED1Ev
 3250 003c 00000000 		.word	__dso_handle
 3251              		.size	_ZN4node7getNodeEv, .-_ZN4node7getNodeEv
 3252              		.section	.text._ZN4node12_GLOBAL__N_116getTimeSyncSlaveEv,"ax",%progbits
 3253              		.align	1
 3254              		.thumb
 3255              		.thumb_func
 3256              		.type	_ZN4node12_GLOBAL__N_116getTimeSyncSlaveEv, %function
 3257              	_ZN4node12_GLOBAL__N_116getTimeSyncSlaveEv:
 3258              		@ args = 0, pretend = 0, frame = 8
 3259              		@ frame_needed = 0, uses_anonymous_args = 0
 3260 0000 73B5     		push	{r0, r1, r4, r5, r6, lr}
 3261 0002 1C4E     		ldr	r6, .L380
 3262 0004 3568     		ldr	r5, [r6]
 3263 0006 15F00105 		ands	r5, r5, #1
 3264 000a 2FD1     		bne	.L379
 3265 000c FFF7FEFF 		bl	_ZN4node7getNodeEv
 3266 0010 194C     		ldr	r4, .L380+4
 3267 0012 1A4B     		ldr	r3, .L380+8
 3268 0014 02AA     		add	r2, sp, #8
 3269 0016 6060     		str	r0, [r4, #4]
 3270 0018 02F8015D 		strb	r5, [r2, #-1]!
 3271 001c 04F10C00 		add	r0, r4, #12
 3272 0020 04F13801 		add	r1, r4, #56
 3273 0024 2360     		str	r3, [r4]
 3274 0026 A560     		str	r5, [r4, #8]
 3275 0028 A563     		str	r5, [r4, #56]
 3276 002a FFF7FEFF 		bl	_ZN6uavcan4fillIPhhEEvT_S2_RKT0_
 3277 002e 144B     		ldr	r3, .L380+12
 3278 0030 0022     		movs	r2, #0
 3279 0032 2360     		str	r3, [r4]
 3280 0034 0023     		movs	r3, #0
 3281 0036 C4E91223 		strd	r2, [r4, #72]
 3282 003a C4E91423 		strd	r2, [r4, #80]
 3283 003e C4E91623 		strd	r2, [r4, #88]
 3284 0042 FF23     		movs	r3, #255
 3285 0044 84F86130 		strb	r3, [r4, #97]
 3286 0048 84F86330 		strb	r3, [r4, #99]
 3287 004c 2046     		mov	r0, r4
 3288 004e 0123     		movs	r3, #1
 3289 0050 0C49     		ldr	r1, .L380+16
 3290 0052 0D4A     		ldr	r2, .L380+20
 3291 0054 E563     		str	r5, [r4, #60]
 3292 0056 2564     		str	r5, [r4, #64]
 3293 0058 6564     		str	r5, [r4, #68]
 3294 005a 84F86050 		strb	r5, [r4, #96]
 3295 005e 84F86250 		strb	r5, [r4, #98]
 3296 0062 84F86450 		strb	r5, [r4, #100]
 3297 0066 3360     		str	r3, [r6]
 3298 0068 FFF7FEFF 		bl	__aeabi_atexit
 3299              	.L379:
 3300 006c 0248     		ldr	r0, .L380+4
 3301 006e 02B0     		add	sp, sp, #8
 3302              		@ sp needed
 3303 0070 70BD     		pop	{r4, r5, r6, pc}
 3304              	.L381:
 3305 0072 00BF     		.align	2
ARM GAS  /tmp/ccFEREDd.s 			page 59


 3306              	.L380:
 3307 0074 00000000 		.word	.LANCHOR8
 3308 0078 00000000 		.word	.LANCHOR9
 3309 007c 08000000 		.word	_ZTVN6uavcan17GenericSubscriberINS_8protocol15GlobalTimeSync_ILi0EEES3_NS_16TransferListener
 3310 0080 08000000 		.word	_ZTVN6uavcan10SubscriberINS_8protocol15GlobalTimeSync_ILi0EEENS_12MethodBinderIPNS_19GlobalT
 3311 0084 00000000 		.word	_ZN6uavcan19GlobalTimeSyncSlaveD1Ev
 3312 0088 00000000 		.word	__dso_handle
 3313              		.size	_ZN4node12_GLOBAL__N_116getTimeSyncSlaveEv, .-_ZN4node12_GLOBAL__N_116getTimeSyncSlaveEv
 3314              		.section	.text._ZN4node12_GLOBAL__N_123isLocalUtcSourceEnabledEv,"ax",%progbits
 3315              		.align	1
 3316              		.thumb
 3317              		.thumb_func
 3318              		.type	_ZN4node12_GLOBAL__N_123isLocalUtcSourceEnabledEv, %function
 3319              	_ZN4node12_GLOBAL__N_123isLocalUtcSourceEnabledEv:
 3320              		@ args = 0, pretend = 0, frame = 0
 3321              		@ frame_needed = 0, uses_anonymous_args = 0
 3322 0000 38B5     		push	{r3, r4, r5, lr}
 3323 0002 FFF7FEFF 		bl	_ZN4node12_GLOBAL__N_116getTimeSyncSlaveEv
 3324 0006 FFF7FEFF 		bl	_ZNK6uavcan19GlobalTimeSyncSlave8isActiveEv
 3325 000a A0B1     		cbz	r0, .L385
 3326 000c FFF7FEFF 		bl	_ZN4node7getNodeEv
 3327 0010 FFF7FEFF 		bl	_ZNK6uavcan5INode9getNodeIDEv
 3328 0014 0446     		mov	r4, r0
 3329 0016 FFF7FEFF 		bl	_ZN4node12_GLOBAL__N_116getTimeSyncSlaveEv
 3330 001a 0546     		mov	r5, r0
 3331 001c FFF7FEFF 		bl	_ZNK6uavcan19GlobalTimeSyncSlave8isActiveEv
 3332 0020 10B1     		cbz	r0, .L386
 3333 0022 95F86100 		ldrb	r0, [r5, #97]	@ zero_extendqisi2
 3334 0026 00E0     		b	.L384
 3335              	.L386:
 3336 0028 FF20     		movs	r0, #255
 3337              	.L384:
 3338 002a E4B2     		uxtb	r4, r4
 3339 002c 8442     		cmp	r4, r0
 3340 002e 2CBF     		ite	cs
 3341 0030 0020     		movcs	r0, #0
 3342 0032 0120     		movcc	r0, #1
 3343 0034 38BD     		pop	{r3, r4, r5, pc}
 3344              	.L385:
 3345 0036 0120     		movs	r0, #1
 3346 0038 38BD     		pop	{r3, r4, r5, pc}
 3347              		.size	_ZN4node12_GLOBAL__N_123isLocalUtcSourceEnabledEv, .-_ZN4node12_GLOBAL__N_123isLocalUtcSourc
 3348              		.section	.text._ZN4node28adjustUtcTimeFromLocalSourceERKN6uavcan11UtcDurationE,"ax",%progbits
 3349              		.align	1
 3350              		.global	_ZN4node28adjustUtcTimeFromLocalSourceERKN6uavcan11UtcDurationE
 3351              		.thumb
 3352              		.thumb_func
 3353              		.type	_ZN4node28adjustUtcTimeFromLocalSourceERKN6uavcan11UtcDurationE, %function
 3354              	_ZN4node28adjustUtcTimeFromLocalSourceERKN6uavcan11UtcDurationE:
 3355              		@ args = 0, pretend = 0, frame = 16
 3356              		@ frame_needed = 0, uses_anonymous_args = 0
 3357 0000 30B5     		push	{r4, r5, lr}
 3358 0002 85B0     		sub	sp, sp, #20
 3359 0004 0546     		mov	r5, r0
 3360 0006 01A8     		add	r0, sp, #4
 3361 0008 FFF7FEFF 		bl	_ZN4node4LockC2Ev
 3362 000c 0D4B     		ldr	r3, .L395
ARM GAS  /tmp/ccFEREDd.s 			page 60


 3363 000e 1B78     		ldrb	r3, [r3]	@ zero_extendqisi2
 3364 0010 13B1     		cbz	r3, .L390
 3365 0012 FFF7FEFF 		bl	_ZN4node12_GLOBAL__N_123isLocalUtcSourceEnabledEv
 3366 0016 20B9     		cbnz	r0, .L389
 3367              	.L390:
 3368 0018 01A8     		add	r0, sp, #4
 3369 001a FFF7FEFF 		bl	_ZN12uavcan_stm3211MutexLockerD2Ev
 3370 001e 05B0     		add	sp, sp, #20
 3371              		@ sp needed
 3372 0020 30BD     		pop	{r4, r5, pc}
 3373              	.L389:
 3374 0022 FFF7FEFF 		bl	_ZN4node12_GLOBAL__N_116getTimeSyncSlaveEv
 3375 0026 0124     		movs	r4, #1
 3376 0028 02AB     		add	r3, sp, #8
 3377 002a 80F86440 		strb	r4, [r0, #100]
 3378 002e 95E80300 		ldmia	r5, {r0, r1}
 3379 0032 83E80300 		stmia	r3, {r0, r1}
 3380 0036 1846     		mov	r0, r3
 3381 0038 FFF7FEFF 		bl	_ZN12uavcan_stm325clock9adjustUtcEN6uavcan11UtcDurationE
 3382 003c 024B     		ldr	r3, .L395+4
 3383 003e 1C70     		strb	r4, [r3]
 3384 0040 EAE7     		b	.L390
 3385              	.L396:
 3386 0042 00BF     		.align	2
 3387              	.L395:
 3388 0044 00000000 		.word	.LANCHOR10
 3389 0048 00000000 		.word	.LANCHOR11
 3390              		.size	_ZN4node28adjustUtcTimeFromLocalSourceERKN6uavcan11UtcDurationE, .-_ZN4node28adjustUtcTimeFr
 3391              		.section	.text._ZN4node12_GLOBAL__N_132handleBeginFirmwareUpdateRequestERKN6uavcan21ReceivedDataSt
 3392              		.align	1
 3393              		.thumb
 3394              		.thumb_func
 3395              		.type	_ZN4node12_GLOBAL__N_132handleBeginFirmwareUpdateRequestERKN6uavcan21ReceivedDataStructureIN
 3396              	_ZN4node12_GLOBAL__N_132handleBeginFirmwareUpdateRequestERKN6uavcan21ReceivedDataStructureINS1_8pro
 3397              		@ args = 0, pretend = 0, frame = 0
 3398              		@ frame_needed = 0, uses_anonymous_args = 0
 3399 0000 38B5     		push	{r3, r4, r5, lr}
 3400 0002 D0F8CC30 		ldr	r3, [r0, #204]
 3401 0006 0D46     		mov	r5, r1
 3402 0008 0BB1     		cbz	r3, .L401
 3403 000a D97E     		ldrb	r1, [r3, #27]	@ zero_extendqisi2
 3404 000c 00E0     		b	.L398
 3405              	.L401:
 3406 000e FF21     		movs	r1, #255
 3407              	.L398:
 3408 0010 0B4C     		ldr	r4, .L402
 3409 0012 0C48     		ldr	r0, .L402+4
 3410 0014 FFF7FEFF 		bl	lowsyslog
 3411 0018 2378     		ldrb	r3, [r4]	@ zero_extendqisi2
 3412 001a 13B1     		cbz	r3, .L399
 3413 001c 0223     		movs	r3, #2
 3414 001e 2B70     		strb	r3, [r5]
 3415 0020 38BD     		pop	{r3, r4, r5, pc}
 3416              	.L399:
 3417 0022 094B     		ldr	r3, .L402+8
 3418 0024 1D68     		ldr	r5, [r3]
 3419 0026 FFF7FEFF 		bl	_ZN4node7getNodeEv
ARM GAS  /tmp/ccFEREDd.s 			page 61


 3420 002a FFF7FEFF 		bl	_ZNK6uavcan5INode9getNodeIDEv
 3421 002e 0146     		mov	r1, r0
 3422 0030 2846     		mov	r0, r5
 3423 0032 FFF7FEFF 		bl	_ZN20bootloader_interface26passParametersToBootloaderEmN6uavcan6NodeIDE
 3424 0036 054A     		ldr	r2, .L402+12
 3425 0038 0123     		movs	r3, #1
 3426 003a 1370     		strb	r3, [r2]
 3427 003c 2370     		strb	r3, [r4]
 3428 003e 38BD     		pop	{r3, r4, r5, pc}
 3429              	.L403:
 3430              		.align	2
 3431              	.L402:
 3432 0040 00000000 		.word	.LANCHOR12
 3433 0044 6F000000 		.word	.LC5
 3434 0048 00000000 		.word	.LANCHOR13
 3435 004c 00000000 		.word	.LANCHOR0
 3436              		.size	_ZN4node12_GLOBAL__N_132handleBeginFirmwareUpdateRequestERKN6uavcan21ReceivedDataStructureIN
 3437              		.section	.text._ZN4node12_GLOBAL__N_117getTimeSyncMasterEv.part.122,"ax",%progbits
 3438              		.align	1
 3439              		.thumb
 3440              		.thumb_func
 3441              		.type	_ZN4node12_GLOBAL__N_117getTimeSyncMasterEv.part.122, %function
 3442              	_ZN4node12_GLOBAL__N_117getTimeSyncMasterEv.part.122:
 3443              		@ args = 0, pretend = 0, frame = 8
 3444              		@ frame_needed = 0, uses_anonymous_args = 0
 3445 0000 F7B5     		push	{r0, r1, r2, r4, r5, r6, r7, lr}
 3446 0002 FFF7FEFF 		bl	_ZN4node7getNodeEv
 3447 0006 0546     		mov	r5, r0
 3448 0008 FFF7FEFF 		bl	_ZN6uavcan5INode13getDispatcherEv
 3449 000c 164B     		ldr	r3, .L407
 3450 000e 174A     		ldr	r2, .L407+4
 3451 0010 DD60     		str	r5, [r3, #12]
 3452 0012 1D46     		mov	r5, r3
 3453 0014 0024     		movs	r4, #0
 3454 0016 5C60     		str	r4, [r3, #4]
 3455 0018 9860     		str	r0, [r3, #8]
 3456 001a 1A60     		str	r2, [r3]
 3457              	.L405:
 3458 001c 2B19     		adds	r3, r5, r4
 3459 001e 0027     		movs	r7, #0
 3460 0020 02AA     		add	r2, sp, #8
 3461 0022 04F11000 		add	r0, r4, #16
 3462 0026 04F15001 		add	r1, r4, #80
 3463 002a 1F65     		str	r7, [r3, #80]
 3464 002c 02F8017D 		strb	r7, [r2, #-1]!
 3465 0030 2844     		add	r0, r0, r5
 3466 0032 2944     		add	r1, r1, r5
 3467 0034 4834     		adds	r4, r4, #72
 3468 0036 FFF7FEFF 		bl	_ZN6uavcan4fillIPhhEEvT_S2_RKT0_
 3469 003a D82C     		cmp	r4, #216
 3470 003c 0A4E     		ldr	r6, .L407
 3471 003e EDD1     		bne	.L405
 3472 0040 0022     		movs	r2, #0
 3473 0042 0023     		movs	r3, #0
 3474 0044 C6E93A23 		strd	r2, [r6, #232]
 3475 0048 4FF0FF33 		mov	r3, #-1
 3476 004c C6F8F030 		str	r3, [r6, #240]
ARM GAS  /tmp/ccFEREDd.s 			page 62


 3477 0050 074B     		ldr	r3, .L407+8
 3478 0052 0122     		movs	r2, #1
 3479 0054 1A60     		str	r2, [r3]
 3480 0056 3046     		mov	r0, r6
 3481 0058 0649     		ldr	r1, .L407+12
 3482 005a 074A     		ldr	r2, .L407+16
 3483 005c 86F8F470 		strb	r7, [r6, #244]
 3484 0060 FFF7FEFF 		bl	__aeabi_atexit
 3485 0064 03B0     		add	sp, sp, #12
 3486              		@ sp needed
 3487 0066 F0BD     		pop	{r4, r5, r6, r7, pc}
 3488              	.L408:
 3489              		.align	2
 3490              	.L407:
 3491 0068 00000000 		.word	.LANCHOR14
 3492 006c 08000000 		.word	_ZTVN6uavcan20GlobalTimeSyncMasterE+8
 3493 0070 00000000 		.word	.LANCHOR15
 3494 0074 00000000 		.word	_ZN6uavcan20GlobalTimeSyncMasterD1Ev
 3495 0078 00000000 		.word	__dso_handle
 3496              		.size	_ZN4node12_GLOBAL__N_117getTimeSyncMasterEv.part.122, .-_ZN4node12_GLOBAL__N_117getTimeSyncM
 3497              		.section	.text._ZNK4node12_GLOBAL__N_15._3458spinOnceEv,"ax",%progbits
 3498              		.align	1
 3499              		.thumb
 3500              		.thumb_func
 3501              		.type	_ZNK4node12_GLOBAL__N_15._3458spinOnceEv, %function
 3502              	_ZNK4node12_GLOBAL__N_15._3458spinOnceEv:
 3503              		@ args = 0, pretend = 0, frame = 24
 3504              		@ frame_needed = 0, uses_anonymous_args = 0
 3505 0000 2DE9F041 		push	{r4, r5, r6, r7, r8, lr}
 3506 0004 86B0     		sub	sp, sp, #24
 3507 0006 0546     		mov	r5, r0
 3508 0008 FFF7FEFF 		bl	_ZN4node7getNodeEv
 3509 000c 344B     		ldr	r3, .L418
 3510 000e 00F5E950 		add	r0, r0, #7456
 3511 0012 DE78     		ldrb	r6, [r3, #3]	@ zero_extendqisi2
 3512 0014 1979     		ldrb	r1, [r3, #4]	@ zero_extendqisi2
 3513 0016 DC1C     		adds	r4, r3, #3
 3514 0018 1A1D     		adds	r2, r3, #4
 3515 001a 8E42     		cmp	r6, r1
 3516 001c 2CBF     		ite	cs
 3517 001e 2146     		movcs	r1, r4
 3518 0020 1146     		movcc	r1, r2
 3519 0022 13F8052F 		ldrb	r2, [r3, #5]!	@ zero_extendqisi2
 3520 0026 0C78     		ldrb	r4, [r1]	@ zero_extendqisi2
 3521 0028 9442     		cmp	r4, r2
 3522 002a 38BF     		it	cc
 3523 002c 1946     		movcc	r1, r3
 3524 002e 0978     		ldrb	r1, [r1]	@ zero_extendqisi2
 3525 0030 FFF7FEFF 		bl	_ZN6uavcan18NodeStatusProvider9setHealthEh
 3526 0034 FFF7FEFF 		bl	_ZN4node7getNodeEv
 3527 0038 42F29813 		movw	r3, #8600
 3528 003c C35C     		ldrb	r3, [r0, r3]	@ zero_extendqisi2
 3529 003e 0746     		mov	r7, r0
 3530 0040 02AC     		add	r4, sp, #8
 3531 0042 CBB1     		cbz	r3, .L417
 3532 0044 4FF4FA72 		mov	r2, #500
 3533 0048 06AE     		add	r6, sp, #24
ARM GAS  /tmp/ccFEREDd.s 			page 63


 3534 004a 0023     		movs	r3, #0
 3535 004c 66E90623 		strd	r2, [r6, #-24]!
 3536 0050 0368     		ldr	r3, [r0]
 3537 0052 DB68     		ldr	r3, [r3, #12]
 3538 0054 9847     		blx	r3
 3539 0056 8046     		mov	r8, r0
 3540 0058 3946     		mov	r1, r7
 3541 005a 2046     		mov	r0, r4
 3542 005c FFF7FEFF 		bl	_ZNK6uavcan5INode16getMonotonicTimeEv
 3543 0060 04A8     		add	r0, sp, #16
 3544 0062 2146     		mov	r1, r4
 3545 0064 3246     		mov	r2, r6
 3546 0066 FFF7FEFF 		bl	_ZNK6uavcan8TimeBaseINS_13MonotonicTimeENS_17MonotonicDurationEEplERKS2_
 3547 006a 04A9     		add	r1, sp, #16
 3548 006c 4046     		mov	r0, r8
 3549 006e FFF7FEFF 		bl	_ZN6uavcan9Scheduler4spinENS_13MonotonicTimeE
 3550 0072 011E     		subs	r1, r0, #0
 3551 0074 05DA     		bge	.L413
 3552 0076 01E0     		b	.L412
 3553              	.L417:
 3554 0078 6FF00701 		mvn	r1, #7
 3555              	.L412:
 3556 007c 1948     		ldr	r0, .L418+4
 3557 007e FFF7FEFF 		bl	lowsyslog
 3558              	.L413:
 3559 0082 2046     		mov	r0, r4
 3560 0084 05F64865 		addw	r5, r5, #3656
 3561 0088 FFF7FEFF 		bl	_ZN12uavcan_stm325clock12getMonotonicEv
 3562 008c 04A8     		add	r0, sp, #16
 3563 008e 2146     		mov	r1, r4
 3564 0090 2A46     		mov	r2, r5
 3565 0092 FFF7FEFF 		bl	_ZNK6uavcan8TimeBaseINS_13MonotonicTimeENS_17MonotonicDurationEEmiERKS1_
 3566 0096 DDE90423 		ldrd	r2, [sp, #16]
 3567 009a 46F2A710 		movw	r0, #24999
 3568 009e 0021     		movs	r1, #0
 3569 00a0 9042     		cmp	r0, r2
 3570 00a2 71EB0303 		sbcs	r3, r1, r3
 3571 00a6 17DA     		bge	.L409
 3572 00a8 94E80300 		ldmia	r4, {r0, r1}
 3573 00ac 85E80300 		stmia	r5, {r0, r1}
 3574 00b0 0021     		movs	r1, #0
 3575 00b2 0D48     		ldr	r0, .L418+8
 3576 00b4 FFF7FEFF 		bl	_ZN12uavcan_stm329CanDriver8getIfaceEh
 3577 00b8 FFF7FEFF 		bl	_ZN12uavcan_stm328CanIface11hadActivityEv
 3578 00bc 0146     		mov	r1, r0
 3579 00be 0020     		movs	r0, #0
 3580 00c0 FFF7FEFF 		bl	_ZN5board9setCANLedEjb
 3581 00c4 0121     		movs	r1, #1
 3582 00c6 0848     		ldr	r0, .L418+8
 3583 00c8 FFF7FEFF 		bl	_ZN12uavcan_stm329CanDriver8getIfaceEh
 3584 00cc FFF7FEFF 		bl	_ZN12uavcan_stm328CanIface11hadActivityEv
 3585 00d0 0146     		mov	r1, r0
 3586 00d2 0120     		movs	r0, #1
 3587 00d4 FFF7FEFF 		bl	_ZN5board9setCANLedEjb
 3588              	.L409:
 3589 00d8 06B0     		add	sp, sp, #24
 3590              		@ sp needed
ARM GAS  /tmp/ccFEREDd.s 			page 64


 3591 00da BDE8F081 		pop	{r4, r5, r6, r7, r8, pc}
 3592              	.L419:
 3593 00de 00BF     		.align	2
 3594              	.L418:
 3595 00e0 00000000 		.word	.LANCHOR3
 3596 00e4 94000000 		.word	.LC6
 3597 00e8 00080000 		.word	.LANCHOR7+2048
 3598              		.size	_ZNK4node12_GLOBAL__N_15._3458spinOnceEv, .-_ZNK4node12_GLOBAL__N_15._3458spinOnceEv
 3599              		.section	.text._ZN6uavcan22GlobalDataTypeRegistry16registerDataTypeINS_8protocol12GetNodeInfo_EEEN
 3600              		.align	1
 3601              		.weak	_ZN6uavcan22GlobalDataTypeRegistry16registerDataTypeINS_8protocol12GetNodeInfo_EEENS0_18Regi
 3602              		.thumb
 3603              		.thumb_func
 3604              		.type	_ZN6uavcan22GlobalDataTypeRegistry16registerDataTypeINS_8protocol12GetNodeInfo_EEENS0_18Regi
 3605              	_ZN6uavcan22GlobalDataTypeRegistry16registerDataTypeINS_8protocol12GetNodeInfo_EEENS0_18Registratio
 3606              		@ args = 0, pretend = 0, frame = 40
 3607              		@ frame_needed = 0, uses_anonymous_args = 0
 3608 0000 F0B5     		push	{r4, r5, r6, r7, lr}
 3609 0002 037A     		ldrb	r3, [r0, #8]	@ zero_extendqisi2
 3610 0004 8BB0     		sub	sp, sp, #44
 3611 0006 0646     		mov	r6, r0
 3612 0008 0F46     		mov	r7, r1
 3613 000a 002B     		cmp	r3, #0
 3614 000c 4AD1     		bne	.L423
 3615 000e 304C     		ldr	r4, .L426+32
 3616 0010 2368     		ldr	r3, [r4]
 3617 0012 DB07     		lsls	r3, r3, #31
 3618 0014 09D4     		bmi	.L422
 3619 0016 2F48     		ldr	r0, .L426+36
 3620 0018 FFF7FEFF 		bl	_ZN6uavcan22GlobalDataTypeRegistry5EntryC1Ev
 3621 001c 0123     		movs	r3, #1
 3622 001e 2D48     		ldr	r0, .L426+36
 3623 0020 2D49     		ldr	r1, .L426+40
 3624 0022 2E4A     		ldr	r2, .L426+44
 3625 0024 2360     		str	r3, [r4]
 3626 0026 FFF7FEFF 		bl	__aeabi_atexit
 3627              	.L422:
 3628 002a 3046     		mov	r0, r6
 3629 002c 2949     		ldr	r1, .L426+36
 3630 002e FFF7FEFF 		bl	_ZN6uavcan22GlobalDataTypeRegistry6removeEPNS0_5EntryE
 3631 0032 0446     		mov	r4, r0
 3632 0034 0028     		cmp	r0, #0
 3633 0036 36D1     		bne	.L421
 3634 0038 1DA3     		adr	r3, .L426
 3635 003a D3E90023 		ldrd	r2, [r3]
 3636 003e 0AAD     		add	r5, sp, #40
 3637 0040 65E90A23 		strd	r2, [r5, #-40]!
 3638 0044 1CA3     		adr	r3, .L426+8
 3639 0046 D3E90023 		ldrd	r2, [r3]
 3640 004a 2846     		mov	r0, r5
 3641 004c FFF7FEFF 		bl	_ZN6uavcan17DataTypeSignature6extendES0_
 3642 0050 1BA3     		adr	r3, .L426+16
 3643 0052 D3E90023 		ldrd	r2, [r3]
 3644 0056 2846     		mov	r0, r5
 3645 0058 FFF7FEFF 		bl	_ZN6uavcan17DataTypeSignature6extendES0_
 3646 005c 1AA3     		adr	r3, .L426+24
 3647 005e D3E90023 		ldrd	r2, [r3]
ARM GAS  /tmp/ccFEREDd.s 			page 65


 3648 0062 2846     		mov	r0, r5
 3649 0064 FFF7FEFF 		bl	_ZN6uavcan17DataTypeSignature6extendES0_
 3650 0068 DDE90023 		ldrd	r2, [sp]
 3651 006c CDE90423 		strd	r2, [sp, #16]
 3652 0070 1B4B     		ldr	r3, .L426+48
 3653 0072 8DF81C40 		strb	r4, [sp, #28]
 3654 0076 0294     		str	r4, [sp, #8]
 3655 0078 164C     		ldr	r4, .L426+36
 3656 007a 0693     		str	r3, [sp, #24]
 3657 007c 0897     		str	r7, [sp, #32]
 3658 007e 02AD     		add	r5, sp, #8
 3659 0080 0FCD     		ldmia	r5!, {r0, r1, r2, r3}
 3660 0082 0FC4     		stmia	r4!, {r0, r1, r2, r3}
 3661 0084 95E80F00 		ldmia	r5, {r0, r1, r2, r3}
 3662 0088 84E80F00 		stmia	r4, {r0, r1, r2, r3}
 3663 008c 3046     		mov	r0, r6
 3664 008e A4F11001 		sub	r1, r4, #16
 3665 0092 FFF7FEFF 		bl	_ZN6uavcan22GlobalDataTypeRegistry6removeEPNS0_5EntryE
 3666 0096 30B9     		cbnz	r0, .L421
 3667 0098 3046     		mov	r0, r6
 3668 009a A4F11001 		sub	r1, r4, #16
 3669 009e FFF7FEFF 		bl	_ZN6uavcan22GlobalDataTypeRegistry10registImplEPNS0_5EntryE
 3670 00a2 00E0     		b	.L421
 3671              	.L423:
 3672 00a4 0320     		movs	r0, #3
 3673              	.L421:
 3674 00a6 0BB0     		add	sp, sp, #44
 3675              		@ sp needed
 3676 00a8 F0BD     		pop	{r4, r5, r6, r7, pc}
 3677              	.L427:
 3678 00aa 00BFAFF3 		.align	3
 3678      0080
 3679              	.L426:
 3680 00b0 85E65350 		.word	1347675781
 3681 00b4 99C80DA8 		.word	-1475491687
 3682 00b8 F1C6A7C1 		.word	-1045969167
 3683 00bc D068080F 		.word	252209360
 3684 00c0 A1FE2765 		.word	1697119905
 3685 00c4 37FD46DD 		.word	-582550217
 3686 00c8 C4A0F433 		.word	871669956
 3687 00cc C9C4D50A 		.word	181781705
 3688 00d0 00000000 		.word	_ZGVZN6uavcan22GlobalDataTypeRegistry16registerDataTypeINS_8protocol12GetNodeInfo_EEENS0_18R
 3689 00d4 00000000 		.word	_ZZN6uavcan22GlobalDataTypeRegistry16registerDataTypeINS_8protocol12GetNodeInfo_EEENS0_18Reg
 3690 00d8 00000000 		.word	_ZN6uavcan22GlobalDataTypeRegistry5EntryD1Ev
 3691 00dc 00000000 		.word	__dso_handle
 3692 00e0 AD000000 		.word	.LC7
 3693              		.size	_ZN6uavcan22GlobalDataTypeRegistry16registerDataTypeINS_8protocol12GetNodeInfo_EEENS0_18Regi
 3694              		.section	.text._ZN6uavcan17GenericSubscriberINS_8protocol12GetNodeInfo_ENS2_8Request_ILi0EEENS_16T
 3695              		.align	1
 3696              		.weak	_ZN6uavcan17GenericSubscriberINS_8protocol12GetNodeInfo_ENS2_8Request_ILi0EEENS_16TransferLi
 3697              		.thumb
 3698              		.thumb_func
 3699              		.type	_ZN6uavcan17GenericSubscriberINS_8protocol12GetNodeInfo_ENS2_8Request_ILi0EEENS_16TransferLi
 3700              	_ZN6uavcan17GenericSubscriberINS_8protocol12GetNodeInfo_ENS2_8Request_ILi0EEENS_16TransferListenerE
 3701              		@ args = 0, pretend = 0, frame = 8
 3702              		@ frame_needed = 0, uses_anonymous_args = 0
 3703 0000 13B5     		push	{r0, r1, r4, lr}
ARM GAS  /tmp/ccFEREDd.s 			page 66


 3704 0002 0446     		mov	r4, r0
 3705 0004 0C4B     		ldr	r3, .L433
 3706 0006 40F8043B 		str	r3, [r0], #4
 3707 000a A16B     		ldr	r1, [r4, #56]
 3708 000c FFF7FEFF 		bl	_ZN6uavcan21GenericSubscriberBase4stopEPNS_16TransferListenerE
 3709 0010 A06B     		ldr	r0, [r4, #56]
 3710 0012 10B1     		cbz	r0, .L429
 3711 0014 0368     		ldr	r3, [r0]
 3712 0016 5B68     		ldr	r3, [r3, #4]
 3713 0018 9847     		blx	r3
 3714              	.L429:
 3715 001a 0023     		movs	r3, #0
 3716 001c 02AA     		add	r2, sp, #8
 3717 001e 04F10C00 		add	r0, r4, #12
 3718 0022 A363     		str	r3, [r4, #56]
 3719 0024 02F8013D 		strb	r3, [r2, #-1]!
 3720 0028 04F13801 		add	r1, r4, #56
 3721 002c FFF7FEFF 		bl	_ZN6uavcan4fillIPhhEEvT_S2_RKT0_
 3722 0030 2046     		mov	r0, r4
 3723 0032 02B0     		add	sp, sp, #8
 3724              		@ sp needed
 3725 0034 10BD     		pop	{r4, pc}
 3726              	.L434:
 3727 0036 00BF     		.align	2
 3728              	.L433:
 3729 0038 08000000 		.word	_ZTVN6uavcan17GenericSubscriberINS_8protocol12GetNodeInfo_ENS2_8Request_ILi0EEENS_16Transfer
 3730              		.size	_ZN6uavcan17GenericSubscriberINS_8protocol12GetNodeInfo_ENS2_8Request_ILi0EEENS_16TransferLi
 3731              		.weak	_ZN6uavcan17GenericSubscriberINS_8protocol12GetNodeInfo_ENS2_8Request_ILi0EEENS_16TransferLi
 3732              		.thumb_set _ZN6uavcan17GenericSubscriberINS_8protocol12GetNodeInfo_ENS2_8Request_ILi0EEENS_16Trans
 3733              		.section	.text._ZN6uavcan13ServiceServerINS_8protocol12GetNodeInfo_ENS_12MethodBinderIPNS_18NodeSt
 3734              		.align	1
 3735              		.weak	_ZN6uavcan13ServiceServerINS_8protocol12GetNodeInfo_ENS_12MethodBinderIPNS_18NodeStatusProvi
 3736              		.thumb
 3737              		.thumb_func
 3738              		.type	_ZN6uavcan13ServiceServerINS_8protocol12GetNodeInfo_ENS_12MethodBinderIPNS_18NodeStatusProvi
 3739              	_ZN6uavcan13ServiceServerINS_8protocol12GetNodeInfo_ENS_12MethodBinderIPNS_18NodeStatusProviderEMS4
 3740              		@ args = 0, pretend = 0, frame = 0
 3741              		@ frame_needed = 0, uses_anonymous_args = 0
 3742 0000 10B5     		push	{r4, lr}
 3743 0002 0446     		mov	r4, r0
 3744 0004 024B     		ldr	r3, .L436
 3745 0006 0360     		str	r3, [r0]
 3746 0008 FFF7FEFF 		bl	_ZN6uavcan17GenericSubscriberINS_8protocol12GetNodeInfo_ENS2_8Request_ILi0EEENS_16TransferListe
 3747 000c 2046     		mov	r0, r4
 3748 000e 10BD     		pop	{r4, pc}
 3749              	.L437:
 3750              		.align	2
 3751              	.L436:
 3752 0010 08000000 		.word	_ZTVN6uavcan13ServiceServerINS_8protocol12GetNodeInfo_ENS_12MethodBinderIPNS_18NodeStatusPro
 3753              		.size	_ZN6uavcan13ServiceServerINS_8protocol12GetNodeInfo_ENS_12MethodBinderIPNS_18NodeStatusProvi
 3754              		.weak	_ZN6uavcan13ServiceServerINS_8protocol12GetNodeInfo_ENS_12MethodBinderIPNS_18NodeStatusProvi
 3755              		.thumb_set _ZN6uavcan13ServiceServerINS_8protocol12GetNodeInfo_ENS_12MethodBinderIPNS_18NodeStatus
 3756              		.section	.text._ZN6uavcan18NodeStatusProviderD2Ev,"axG",%progbits,_ZN6uavcan18NodeStatusProviderD5
 3757              		.align	1
 3758              		.weak	_ZN6uavcan18NodeStatusProviderD2Ev
 3759              		.thumb
 3760              		.thumb_func
ARM GAS  /tmp/ccFEREDd.s 			page 67


 3761              		.type	_ZN6uavcan18NodeStatusProviderD2Ev, %function
 3762              	_ZN6uavcan18NodeStatusProviderD2Ev:
 3763              		@ args = 0, pretend = 0, frame = 0
 3764              		@ frame_needed = 0, uses_anonymous_args = 0
 3765 0000 10B5     		push	{r4, lr}
 3766 0002 0446     		mov	r4, r0
 3767 0004 054B     		ldr	r3, .L439
 3768 0006 40F8503B 		str	r3, [r0], #80
 3769 000a FFF7FEFF 		bl	_ZN6uavcan13ServiceServerINS_8protocol12GetNodeInfo_ENS_12MethodBinderIPNS_18NodeStatusProvider
 3770 000e 044B     		ldr	r3, .L439+4
 3771 0010 2046     		mov	r0, r4
 3772 0012 2360     		str	r3, [r4]
 3773 0014 FFF7FEFF 		bl	_ZN6uavcan15DeadlineHandler4stopEv
 3774 0018 2046     		mov	r0, r4
 3775 001a 10BD     		pop	{r4, pc}
 3776              	.L440:
 3777              		.align	2
 3778              	.L439:
 3779 001c 08000000 		.word	_ZTVN6uavcan18NodeStatusProviderE+8
 3780 0020 08000000 		.word	_ZTVN6uavcan15DeadlineHandlerE+8
 3781              		.size	_ZN6uavcan18NodeStatusProviderD2Ev, .-_ZN6uavcan18NodeStatusProviderD2Ev
 3782              		.weak	_ZN6uavcan18NodeStatusProviderD1Ev
 3783              		.thumb_set _ZN6uavcan18NodeStatusProviderD1Ev,_ZN6uavcan18NodeStatusProviderD2Ev
 3784              		.section	.text._ZN6uavcan18NodeStatusProviderD0Ev,"axG",%progbits,_ZN6uavcan18NodeStatusProviderD5
 3785              		.align	1
 3786              		.weak	_ZN6uavcan18NodeStatusProviderD0Ev
 3787              		.thumb
 3788              		.thumb_func
 3789              		.type	_ZN6uavcan18NodeStatusProviderD0Ev, %function
 3790              	_ZN6uavcan18NodeStatusProviderD0Ev:
 3791              		@ args = 0, pretend = 0, frame = 0
 3792              		@ frame_needed = 0, uses_anonymous_args = 0
 3793 0000 10B5     		push	{r4, lr}
 3794 0002 0446     		mov	r4, r0
 3795 0004 FFF7FEFF 		bl	_ZN6uavcan18NodeStatusProviderD1Ev
 3796 0008 2046     		mov	r0, r4
 3797 000a FFF7FEFF 		bl	_ZdlPv
 3798 000e 2046     		mov	r0, r4
 3799 0010 10BD     		pop	{r4, pc}
 3800              		.size	_ZN6uavcan18NodeStatusProviderD0Ev, .-_ZN6uavcan18NodeStatusProviderD0Ev
 3801              		.section	.text._ZN6uavcan13ServiceServerINS_8protocol12GetNodeInfo_ENS_12MethodBinderIPNS_18NodeSt
 3802              		.align	1
 3803              		.weak	_ZN6uavcan13ServiceServerINS_8protocol12GetNodeInfo_ENS_12MethodBinderIPNS_18NodeStatusProvi
 3804              		.thumb
 3805              		.thumb_func
 3806              		.type	_ZN6uavcan13ServiceServerINS_8protocol12GetNodeInfo_ENS_12MethodBinderIPNS_18NodeStatusProvi
 3807              	_ZN6uavcan13ServiceServerINS_8protocol12GetNodeInfo_ENS_12MethodBinderIPNS_18NodeStatusProviderEMS4
 3808              		@ args = 0, pretend = 0, frame = 0
 3809              		@ frame_needed = 0, uses_anonymous_args = 0
 3810 0000 10B5     		push	{r4, lr}
 3811 0002 0446     		mov	r4, r0
 3812 0004 FFF7FEFF 		bl	_ZN6uavcan13ServiceServerINS_8protocol12GetNodeInfo_ENS_12MethodBinderIPNS_18NodeStatusProvider
 3813 0008 2046     		mov	r0, r4
 3814 000a FFF7FEFF 		bl	_ZdlPv
 3815 000e 2046     		mov	r0, r4
 3816 0010 10BD     		pop	{r4, pc}
 3817              		.size	_ZN6uavcan13ServiceServerINS_8protocol12GetNodeInfo_ENS_12MethodBinderIPNS_18NodeStatusProvi
ARM GAS  /tmp/ccFEREDd.s 			page 68


 3818              		.section	.text._ZN6uavcan17GenericSubscriberINS_8protocol12GetNodeInfo_ENS2_8Request_ILi0EEENS_16T
 3819              		.align	1
 3820              		.weak	_ZN6uavcan17GenericSubscriberINS_8protocol12GetNodeInfo_ENS2_8Request_ILi0EEENS_16TransferLi
 3821              		.thumb
 3822              		.thumb_func
 3823              		.type	_ZN6uavcan17GenericSubscriberINS_8protocol12GetNodeInfo_ENS2_8Request_ILi0EEENS_16TransferLi
 3824              	_ZN6uavcan17GenericSubscriberINS_8protocol12GetNodeInfo_ENS2_8Request_ILi0EEENS_16TransferListenerE
 3825              		@ args = 0, pretend = 0, frame = 0
 3826              		@ frame_needed = 0, uses_anonymous_args = 0
 3827 0000 10B5     		push	{r4, lr}
 3828 0002 0446     		mov	r4, r0
 3829 0004 FFF7FEFF 		bl	_ZN6uavcan17GenericSubscriberINS_8protocol12GetNodeInfo_ENS2_8Request_ILi0EEENS_16TransferListe
 3830 0008 2046     		mov	r0, r4
 3831 000a FFF7FEFF 		bl	_ZdlPv
 3832 000e 2046     		mov	r0, r4
 3833 0010 10BD     		pop	{r4, pc}
 3834              		.size	_ZN6uavcan17GenericSubscriberINS_8protocol12GetNodeInfo_ENS2_8Request_ILi0EEENS_16TransferLi
 3835              		.section	.text._ZN6uavcan22GlobalDataTypeRegistry16registerDataTypeINS_8protocol16GetDataTypeInfo_
 3836              		.align	1
 3837              		.weak	_ZN6uavcan22GlobalDataTypeRegistry16registerDataTypeINS_8protocol16GetDataTypeInfo_EEENS0_18
 3838              		.thumb
 3839              		.thumb_func
 3840              		.type	_ZN6uavcan22GlobalDataTypeRegistry16registerDataTypeINS_8protocol16GetDataTypeInfo_EEENS0_18
 3841              	_ZN6uavcan22GlobalDataTypeRegistry16registerDataTypeINS_8protocol16GetDataTypeInfo_EEENS0_18Registr
 3842              		@ args = 0, pretend = 0, frame = 40
 3843              		@ frame_needed = 0, uses_anonymous_args = 0
 3844 0000 F0B5     		push	{r4, r5, r6, r7, lr}
 3845 0002 037A     		ldrb	r3, [r0, #8]	@ zero_extendqisi2
 3846 0004 8BB0     		sub	sp, sp, #44
 3847 0006 0646     		mov	r6, r0
 3848 0008 0F46     		mov	r7, r1
 3849 000a 002B     		cmp	r3, #0
 3850 000c 3DD1     		bne	.L447
 3851 000e 224C     		ldr	r4, .L450+8
 3852 0010 2368     		ldr	r3, [r4]
 3853 0012 DB07     		lsls	r3, r3, #31
 3854 0014 09D4     		bmi	.L446
 3855 0016 2148     		ldr	r0, .L450+12
 3856 0018 FFF7FEFF 		bl	_ZN6uavcan22GlobalDataTypeRegistry5EntryC1Ev
 3857 001c 0123     		movs	r3, #1
 3858 001e 1F48     		ldr	r0, .L450+12
 3859 0020 1F49     		ldr	r1, .L450+16
 3860 0022 204A     		ldr	r2, .L450+20
 3861 0024 2360     		str	r3, [r4]
 3862 0026 FFF7FEFF 		bl	__aeabi_atexit
 3863              	.L446:
 3864 002a 3046     		mov	r0, r6
 3865 002c 1B49     		ldr	r1, .L450+12
 3866 002e FFF7FEFF 		bl	_ZN6uavcan22GlobalDataTypeRegistry6removeEPNS0_5EntryE
 3867 0032 0446     		mov	r4, r0
 3868 0034 50BB     		cbnz	r0, .L445
 3869 0036 16A3     		adr	r3, .L450
 3870 0038 D3E90023 		ldrd	r2, [r3]
 3871 003c 0AAD     		add	r5, sp, #40
 3872 003e 65E90A23 		strd	r2, [r5, #-40]!
 3873 0042 2846     		mov	r0, r5
 3874 0044 FFF7FEFF 		bl	_ZN6uavcan8protocol13DataTypeKind_ILi0EE23extendDataTypeSignatureERNS_17DataTypeSignatureE
ARM GAS  /tmp/ccFEREDd.s 			page 69


 3875 0048 2846     		mov	r0, r5
 3876 004a FFF7FEFF 		bl	_ZN6uavcan8protocol13DataTypeKind_ILi0EE23extendDataTypeSignatureERNS_17DataTypeSignatureE
 3877 004e DDE90023 		ldrd	r2, [sp]
 3878 0052 CDE90423 		strd	r2, [sp, #16]
 3879 0056 144B     		ldr	r3, .L450+24
 3880 0058 8DF81C40 		strb	r4, [sp, #28]
 3881 005c 0294     		str	r4, [sp, #8]
 3882 005e 0F4C     		ldr	r4, .L450+12
 3883 0060 0693     		str	r3, [sp, #24]
 3884 0062 0897     		str	r7, [sp, #32]
 3885 0064 02AD     		add	r5, sp, #8
 3886 0066 0FCD     		ldmia	r5!, {r0, r1, r2, r3}
 3887 0068 0FC4     		stmia	r4!, {r0, r1, r2, r3}
 3888 006a 95E80F00 		ldmia	r5, {r0, r1, r2, r3}
 3889 006e 84E80F00 		stmia	r4, {r0, r1, r2, r3}
 3890 0072 3046     		mov	r0, r6
 3891 0074 A4F11001 		sub	r1, r4, #16
 3892 0078 FFF7FEFF 		bl	_ZN6uavcan22GlobalDataTypeRegistry6removeEPNS0_5EntryE
 3893 007c 30B9     		cbnz	r0, .L445
 3894 007e 3046     		mov	r0, r6
 3895 0080 A4F11001 		sub	r1, r4, #16
 3896 0084 FFF7FEFF 		bl	_ZN6uavcan22GlobalDataTypeRegistry10registImplEPNS0_5EntryE
 3897 0088 00E0     		b	.L445
 3898              	.L447:
 3899 008a 0320     		movs	r0, #3
 3900              	.L445:
 3901 008c 0BB0     		add	sp, sp, #44
 3902              		@ sp needed
 3903 008e F0BD     		pop	{r4, r5, r6, r7, pc}
 3904              	.L451:
 3905              		.align	3
 3906              	.L450:
 3907 0090 FC248DF6 		.word	-158522116
 3908 0094 C93DC988 		.word	-2000077367
 3909 0098 00000000 		.word	_ZGVZN6uavcan22GlobalDataTypeRegistry16registerDataTypeINS_8protocol16GetDataTypeInfo_EEENS0
 3910 009c 00000000 		.word	_ZZN6uavcan22GlobalDataTypeRegistry16registerDataTypeINS_8protocol16GetDataTypeInfo_EEENS0_1
 3911 00a0 00000000 		.word	_ZN6uavcan22GlobalDataTypeRegistry5EntryD1Ev
 3912 00a4 00000000 		.word	__dso_handle
 3913 00a8 C9000000 		.word	.LC8
 3914              		.size	_ZN6uavcan22GlobalDataTypeRegistry16registerDataTypeINS_8protocol16GetDataTypeInfo_EEENS0_18
 3915              		.section	.text._ZN6uavcan5ArrayINS_11IntegerSpecILj8ELNS_10SignednessE0ELNS_8CastModeE0EEELNS_9Arr
 3916              		.align	1
 3917              		.weak	_ZN6uavcan5ArrayINS_11IntegerSpecILj8ELNS_10SignednessE0ELNS_8CastModeE0EEELNS_9ArrayModeE1E
 3918              		.thumb
 3919              		.thumb_func
 3920              		.type	_ZN6uavcan5ArrayINS_11IntegerSpecILj8ELNS_10SignednessE0ELNS_8CastModeE0EEELNS_9ArrayModeE1E
 3921              	_ZN6uavcan5ArrayINS_11IntegerSpecILj8ELNS_10SignednessE0ELNS_8CastModeE0EEELNS_9ArrayModeE1ELj80EE9
 3922              		@ args = 0, pretend = 0, frame = 0
 3923              		@ frame_needed = 0, uses_anonymous_args = 0
 3924 0000 0378     		ldrb	r3, [r0]	@ zero_extendqisi2
 3925 0002 10B5     		push	{r4, lr}
 3926 0004 4F2B     		cmp	r3, #79
 3927 0006 9CBF     		itt	ls
 3928 0008 0133     		addls	r3, r3, #1
 3929 000a 0370     		strbls	r3, [r0]
 3930 000c 0478     		ldrb	r4, [r0]	@ zero_extendqisi2
 3931 000e 621E     		subs	r2, r4, #1
ARM GAS  /tmp/ccFEREDd.s 			page 70


 3932 0010 D3B2     		uxtb	r3, r2
 3933 0012 A342     		cmp	r3, r4
 3934 0014 02D3     		bcc	.L454
 3935 0016 002C     		cmp	r4, #0
 3936 0018 08BF     		it	eq
 3937 001a 0023     		moveq	r3, #0
 3938              	.L454:
 3939 001c 0A78     		ldrb	r2, [r1]	@ zero_extendqisi2
 3940 001e 0344     		add	r3, r3, r0
 3941 0020 5A70     		strb	r2, [r3, #1]
 3942 0022 10BD     		pop	{r4, pc}
 3943              		.size	_ZN6uavcan5ArrayINS_11IntegerSpecILj8ELNS_10SignednessE0ELNS_8CastModeE0EEELNS_9ArrayModeE1E
 3944              		.section	.text._ZN4node12_GLOBAL__N_113configureNodeEv,"ax",%progbits
 3945              		.align	1
 3946              		.thumb
 3947              		.thumb_func
 3948              		.type	_ZN4node12_GLOBAL__N_113configureNodeEv, %function
 3949              	_ZN4node12_GLOBAL__N_113configureNodeEv:
 3950              		@ args = 0, pretend = 0, frame = 296
 3951              		@ frame_needed = 0, uses_anonymous_args = 0
 3952 0000 70B5     		push	{r4, r5, r6, lr}
 3953 0002 CAB0     		sub	sp, sp, #296
 3954 0004 FFF7FEFF 		bl	_ZN4node7getNodeEv
 3955 0008 0546     		mov	r5, r0
 3956 000a 0023     		movs	r3, #0
 3957 000c 2A4E     		ldr	r6, .L462
 3958 000e 8DF81030 		strb	r3, [sp, #16]
 3959              	.L457:
 3960 0012 16F8014F 		ldrb	r4, [r6, #1]!	@ zero_extendqisi2
 3961 0016 34B1     		cbz	r4, .L461
 3962 0018 04A8     		add	r0, sp, #16
 3963 001a 01A9     		add	r1, sp, #4
 3964 001c 8DF80440 		strb	r4, [sp, #4]
 3965 0020 FFF7FEFF 		bl	_ZN6uavcan5ArrayINS_11IntegerSpecILj8ELNS_10SignednessE0ELNS_8CastModeE0EEELNS_9ArrayModeE1ELj8
 3966 0024 F5E7     		b	.L457
 3967              	.L461:
 3968 0026 05F5E955 		add	r5, r5, #7456
 3969 002a 04A9     		add	r1, sp, #16
 3970 002c 2846     		mov	r0, r5
 3971 002e FFF7FEFF 		bl	_ZN6uavcan18NodeStatusProvider7setNameERKNS_5ArrayINS_11IntegerSpecILj8ELNS_10SignednessE0ELNS_
 3972 0032 04A8     		add	r0, sp, #16
 3973 0034 FFF7FEFF 		bl	_ZN20bootloader_interface31makeUavcanSoftwareVersionStructEv
 3974 0038 2846     		mov	r0, r5
 3975 003a 04A9     		add	r1, sp, #16
 3976 003c FFF7FEFF 		bl	_ZN6uavcan18NodeStatusProvider18setSoftwareVersionERKNS_8protocol16SoftwareVersion_ILi0EEE
 3977 0040 0DF11200 		add	r0, sp, #18
 3978 0044 0DF12201 		add	r1, sp, #34
 3979 0048 01AA     		add	r2, sp, #4
 3980 004a 8DF81040 		strb	r4, [sp, #16]
 3981 004e 8DF81140 		strb	r4, [sp, #17]
 3982 0052 8DF80440 		strb	r4, [sp, #4]
 3983 0056 FFF7FEFF 		bl	_ZN6uavcan4fillIPhhEEvT_S2_RKT0_
 3984 005a 0123     		movs	r3, #1
 3985 005c 0C22     		movs	r2, #12
 3986 005e 2146     		mov	r1, r4
 3987 0060 01A8     		add	r0, sp, #4
 3988 0062 8DF81030 		strb	r3, [sp, #16]
ARM GAS  /tmp/ccFEREDd.s 			page 71


 3989 0066 8DF82240 		strb	r4, [sp, #34]
 3990 006a FFF7FEFF 		bl	memset
 3991 006e 01A8     		add	r0, sp, #4
 3992 0070 FFF7FEFF 		bl	_ZN5board12readUniqueIDEPh
 3993 0074 01AB     		add	r3, sp, #4
 3994 0076 03CB     		ldmia	r3!, {r0, r1}
 3995 0078 CDF81200 		str	r0, [sp, #18]	@ unaligned
 3996 007c 1868     		ldr	r0, [r3]	@ unaligned
 3997 007e CDF81610 		str	r1, [sp, #22]	@ unaligned
 3998 0082 CDF81A00 		str	r0, [sp, #26]	@ unaligned
 3999 0086 04A9     		add	r1, sp, #16
 4000 0088 2846     		mov	r0, r5
 4001 008a FFF7FEFF 		bl	_ZN6uavcan18NodeStatusProvider18setHardwareVersionERKNS_8protocol16HardwareVersion_ILi0EEE
 4002 008e 0B48     		ldr	r0, .L462+4
 4003 0090 0B49     		ldr	r1, .L462+8
 4004 0092 FFF7FEFF 		bl	lowsyslog
 4005 0096 0B48     		ldr	r0, .L462+12
 4006 0098 FFF7FEFF 		bl	lowsyslog
 4007              	.L459:
 4008 009c 04AB     		add	r3, sp, #16
 4009 009e 2344     		add	r3, r3, r4
 4010 00a0 0948     		ldr	r0, .L462+16
 4011 00a2 9978     		ldrb	r1, [r3, #2]	@ zero_extendqisi2
 4012 00a4 0134     		adds	r4, r4, #1
 4013 00a6 FFF7FEFF 		bl	lowsyslog
 4014 00aa 102C     		cmp	r4, #16
 4015 00ac F6D1     		bne	.L459
 4016 00ae 0748     		ldr	r0, .L462+20
 4017 00b0 FFF7FEFF 		bl	lowsyslog
 4018 00b4 4AB0     		add	sp, sp, #296
 4019              		@ sp needed
 4020 00b6 70BD     		pop	{r4, r5, r6, pc}
 4021              	.L463:
 4022              		.align	2
 4023              	.L462:
 4024 00b8 FFFFFFFF 		.word	.LC9-1
 4025 00bc F8000000 		.word	.LC10
 4026 00c0 8EBF9A02 		.word	43696014
 4027 00c4 11010000 		.word	.LC11
 4028 00c8 17010000 		.word	.LC12
 4029 00cc 1D010000 		.word	.LC13
 4030              		.size	_ZN4node12_GLOBAL__N_113configureNodeEv, .-_ZN4node12_GLOBAL__N_113configureNodeEv
 4031              		.section	.text._ZN6uavcan20DataTypeInfoProvider28handleGetDataTypeInfoRequestERKNS_8protocol16GetD
 4032              		.align	1
 4033              		.weak	_ZN6uavcan20DataTypeInfoProvider28handleGetDataTypeInfoRequestERKNS_8protocol16GetDataTypeIn
 4034              		.thumb
 4035              		.thumb_func
 4036              		.type	_ZN6uavcan20DataTypeInfoProvider28handleGetDataTypeInfoRequestERKNS_8protocol16GetDataTypeIn
 4037              	_ZN6uavcan20DataTypeInfoProvider28handleGetDataTypeInfoRequestERKNS_8protocol16GetDataTypeInfo_8Req
 4038              		@ args = 0, pretend = 0, frame = 8
 4039              		@ frame_needed = 0, uses_anonymous_args = 0
 4040 0000 2DE9F341 		push	{r0, r1, r4, r5, r6, r7, r8, lr}
 4041 0004 CB78     		ldrb	r3, [r1, #3]	@ zero_extendqisi2
 4042 0006 0746     		mov	r7, r0
 4043 0008 0D46     		mov	r5, r1
 4044 000a 1446     		mov	r4, r2
 4045 000c 6BB9     		cbnz	r3, .L465
ARM GAS  /tmp/ccFEREDd.s 			page 72


 4046 000e 0B88     		ldrh	r3, [r1]
 4047 0010 1381     		strh	r3, [r2, #8]	@ movhi
 4048 0012 8B78     		ldrb	r3, [r1, #2]	@ zero_extendqisi2
 4049 0014 9372     		strb	r3, [r2, #10]
 4050 0016 8B78     		ldrb	r3, [r1, #2]	@ zero_extendqisi2
 4051 0018 012B     		cmp	r3, #1
 4052 001a 58D8     		bhi	.L464
 4053 001c FFF7FEFF 		bl	_ZN6uavcan22GlobalDataTypeRegistry8instanceEv
 4054 0020 A978     		ldrb	r1, [r5, #2]	@ zero_extendqisi2
 4055 0022 2A88     		ldrh	r2, [r5]
 4056 0024 FFF7FEFF 		bl	_ZNK6uavcan22GlobalDataTypeRegistry4findENS_12DataTypeKindENS_10DataTypeIDE
 4057 0028 0EE0     		b	.L487
 4058              	.L465:
 4059 002a 0331     		adds	r1, r1, #3
 4060 002c 02F10C00 		add	r0, r2, #12
 4061 0030 5222     		movs	r2, #82
 4062 0032 FFF7FEFF 		bl	memcpy
 4063 0036 FFF7FEFF 		bl	_ZN6uavcan22GlobalDataTypeRegistry8instanceEv
 4064 003a EB78     		ldrb	r3, [r5, #3]	@ zero_extendqisi2
 4065 003c 0022     		movs	r2, #0
 4066 003e 2B44     		add	r3, r3, r5
 4067 0040 1A71     		strb	r2, [r3, #4]
 4068 0042 291D     		adds	r1, r5, #4
 4069 0044 FFF7FEFF 		bl	_ZNK6uavcan22GlobalDataTypeRegistry4findEPKc
 4070              	.L487:
 4071 0048 0546     		mov	r5, r0
 4072 004a 0028     		cmp	r0, #0
 4073 004c 3FD0     		beq	.L464
 4074 004e D0E90023 		ldrd	r2, [r0]
 4075 0052 C4E90023 		strd	r2, [r4]
 4076 0056 0369     		ldr	r3, [r0, #16]
 4077 0058 04F10C08 		add	r8, r4, #12
 4078 005c 2381     		strh	r3, [r4, #8]	@ movhi
 4079 005e 037B     		ldrb	r3, [r0, #12]	@ zero_extendqisi2
 4080 0060 A372     		strb	r3, [r4, #10]
 4081 0062 0123     		movs	r3, #1
 4082 0064 E372     		strb	r3, [r4, #11]
 4083 0066 8668     		ldr	r6, [r0, #8]
 4084 0068 0023     		movs	r3, #0
 4085 006a 2373     		strb	r3, [r4, #12]
 4086 006c 0EB1     		cbz	r6, .L470
 4087 006e 013E     		subs	r6, r6, #1
 4088 0070 02E0     		b	.L471
 4089              	.L470:
 4090 0072 1848     		ldr	r0, .L490
 4091 0074 FFF7FEFF 		bl	_ZN6uavcan16handleFatalErrorEPKc
 4092              	.L471:
 4093 0078 16F8013F 		ldrb	r3, [r6, #1]!	@ zero_extendqisi2
 4094 007c 33B1     		cbz	r3, .L489
 4095 007e 02A9     		add	r1, sp, #8
 4096 0080 01F8013D 		strb	r3, [r1, #-1]!
 4097 0084 4046     		mov	r0, r8
 4098 0086 FFF7FEFF 		bl	_ZN6uavcan5ArrayINS_11IntegerSpecILj8ELNS_10SignednessE0ELNS_8CastModeE0EEELNS_9ArrayModeE1ELj8
 4099 008a F5E7     		b	.L471
 4100              	.L489:
 4101 008c 7868     		ldr	r0, [r7, #4]
 4102 008e FFF7FEFF 		bl	_ZN6uavcan5INode13getDispatcherEv
ARM GAS  /tmp/ccFEREDd.s 			page 73


 4103 0092 2B7B     		ldrb	r3, [r5, #12]	@ zero_extendqisi2
 4104 0094 0646     		mov	r6, r0
 4105 0096 3BB9     		cbnz	r3, .L473
 4106 0098 298A     		ldrh	r1, [r5, #16]
 4107 009a FFF7FEFF 		bl	_ZNK6uavcan10Dispatcher9hasServerENS_10DataTypeIDE
 4108 009e B0B1     		cbz	r0, .L464
 4109 00a0 E37A     		ldrb	r3, [r4, #11]	@ zero_extendqisi2
 4110 00a2 43F00803 		orr	r3, r3, #8
 4111 00a6 11E0     		b	.L488
 4112              	.L473:
 4113 00a8 012B     		cmp	r3, #1
 4114 00aa 10D1     		bne	.L464
 4115 00ac 298A     		ldrh	r1, [r5, #16]
 4116 00ae FFF7FEFF 		bl	_ZNK6uavcan10Dispatcher13hasSubscriberENS_10DataTypeIDE
 4117 00b2 18B1     		cbz	r0, .L474
 4118 00b4 E37A     		ldrb	r3, [r4, #11]	@ zero_extendqisi2
 4119 00b6 43F00203 		orr	r3, r3, #2
 4120 00ba E372     		strb	r3, [r4, #11]
 4121              	.L474:
 4122 00bc 3046     		mov	r0, r6
 4123 00be 298A     		ldrh	r1, [r5, #16]
 4124 00c0 FFF7FEFF 		bl	_ZNK6uavcan10Dispatcher12hasPublisherENS_10DataTypeIDE
 4125 00c4 18B1     		cbz	r0, .L464
 4126 00c6 E37A     		ldrb	r3, [r4, #11]	@ zero_extendqisi2
 4127 00c8 43F00403 		orr	r3, r3, #4
 4128              	.L488:
 4129 00cc E372     		strb	r3, [r4, #11]
 4130              	.L464:
 4131 00ce 02B0     		add	sp, sp, #8
 4132              		@ sp needed
 4133 00d0 BDE8F081 		pop	{r4, r5, r6, r7, r8, pc}
 4134              	.L491:
 4135              		.align	2
 4136              	.L490:
 4137 00d4 1F010000 		.word	.LC14
 4138              		.size	_ZN6uavcan20DataTypeInfoProvider28handleGetDataTypeInfoRequestERKNS_8protocol16GetDataTypeIn
 4139              		.section	.text._ZN6uavcan17GenericSubscriberINS_8protocol16GetDataTypeInfo_ENS2_8Request_ILi0EEENS
 4140              		.align	1
 4141              		.weak	_ZN6uavcan17GenericSubscriberINS_8protocol16GetDataTypeInfo_ENS2_8Request_ILi0EEENS_16Transf
 4142              		.thumb
 4143              		.thumb_func
 4144              		.type	_ZN6uavcan17GenericSubscriberINS_8protocol16GetDataTypeInfo_ENS2_8Request_ILi0EEENS_16Transf
 4145              	_ZN6uavcan17GenericSubscriberINS_8protocol16GetDataTypeInfo_ENS2_8Request_ILi0EEENS_16TransferListe
 4146              		@ args = 0, pretend = 0, frame = 8
 4147              		@ frame_needed = 0, uses_anonymous_args = 0
 4148 0000 13B5     		push	{r0, r1, r4, lr}
 4149 0002 0446     		mov	r4, r0
 4150 0004 0C4B     		ldr	r3, .L497
 4151 0006 40F8043B 		str	r3, [r0], #4
 4152 000a A16B     		ldr	r1, [r4, #56]
 4153 000c FFF7FEFF 		bl	_ZN6uavcan21GenericSubscriberBase4stopEPNS_16TransferListenerE
 4154 0010 A06B     		ldr	r0, [r4, #56]
 4155 0012 10B1     		cbz	r0, .L493
 4156 0014 0368     		ldr	r3, [r0]
 4157 0016 5B68     		ldr	r3, [r3, #4]
 4158 0018 9847     		blx	r3
 4159              	.L493:
ARM GAS  /tmp/ccFEREDd.s 			page 74


 4160 001a 0023     		movs	r3, #0
 4161 001c 02AA     		add	r2, sp, #8
 4162 001e 04F10C00 		add	r0, r4, #12
 4163 0022 A363     		str	r3, [r4, #56]
 4164 0024 02F8013D 		strb	r3, [r2, #-1]!
 4165 0028 04F13801 		add	r1, r4, #56
 4166 002c FFF7FEFF 		bl	_ZN6uavcan4fillIPhhEEvT_S2_RKT0_
 4167 0030 2046     		mov	r0, r4
 4168 0032 02B0     		add	sp, sp, #8
 4169              		@ sp needed
 4170 0034 10BD     		pop	{r4, pc}
 4171              	.L498:
 4172 0036 00BF     		.align	2
 4173              	.L497:
 4174 0038 08000000 		.word	_ZTVN6uavcan17GenericSubscriberINS_8protocol16GetDataTypeInfo_ENS2_8Request_ILi0EEENS_16Tran
 4175              		.size	_ZN6uavcan17GenericSubscriberINS_8protocol16GetDataTypeInfo_ENS2_8Request_ILi0EEENS_16Transf
 4176              		.weak	_ZN6uavcan17GenericSubscriberINS_8protocol16GetDataTypeInfo_ENS2_8Request_ILi0EEENS_16Transf
 4177              		.thumb_set _ZN6uavcan17GenericSubscriberINS_8protocol16GetDataTypeInfo_ENS2_8Request_ILi0EEENS_16T
 4178              		.section	.text._ZN6uavcan13ServiceServerINS_8protocol16GetDataTypeInfo_ENS_12MethodBinderIPNS_20Da
 4179              		.align	1
 4180              		.weak	_ZN6uavcan13ServiceServerINS_8protocol16GetDataTypeInfo_ENS_12MethodBinderIPNS_20DataTypeInf
 4181              		.thumb
 4182              		.thumb_func
 4183              		.type	_ZN6uavcan13ServiceServerINS_8protocol16GetDataTypeInfo_ENS_12MethodBinderIPNS_20DataTypeInf
 4184              	_ZN6uavcan13ServiceServerINS_8protocol16GetDataTypeInfo_ENS_12MethodBinderIPNS_20DataTypeInfoProvid
 4185              		@ args = 0, pretend = 0, frame = 0
 4186              		@ frame_needed = 0, uses_anonymous_args = 0
 4187 0000 10B5     		push	{r4, lr}
 4188 0002 0446     		mov	r4, r0
 4189 0004 024B     		ldr	r3, .L500
 4190 0006 0360     		str	r3, [r0]
 4191 0008 FFF7FEFF 		bl	_ZN6uavcan17GenericSubscriberINS_8protocol16GetDataTypeInfo_ENS2_8Request_ILi0EEENS_16TransferL
 4192 000c 2046     		mov	r0, r4
 4193 000e 10BD     		pop	{r4, pc}
 4194              	.L501:
 4195              		.align	2
 4196              	.L500:
 4197 0010 08000000 		.word	_ZTVN6uavcan13ServiceServerINS_8protocol16GetDataTypeInfo_ENS_12MethodBinderIPNS_20DataTypeI
 4198              		.size	_ZN6uavcan13ServiceServerINS_8protocol16GetDataTypeInfo_ENS_12MethodBinderIPNS_20DataTypeInf
 4199              		.weak	_ZN6uavcan13ServiceServerINS_8protocol16GetDataTypeInfo_ENS_12MethodBinderIPNS_20DataTypeInf
 4200              		.thumb_set _ZN6uavcan13ServiceServerINS_8protocol16GetDataTypeInfo_ENS_12MethodBinderIPNS_20DataTy
 4201              		.section	.text._ZN6uavcan13ServiceServerINS_8protocol16GetDataTypeInfo_ENS_12MethodBinderIPNS_20Da
 4202              		.align	1
 4203              		.weak	_ZN6uavcan13ServiceServerINS_8protocol16GetDataTypeInfo_ENS_12MethodBinderIPNS_20DataTypeInf
 4204              		.thumb
 4205              		.thumb_func
 4206              		.type	_ZN6uavcan13ServiceServerINS_8protocol16GetDataTypeInfo_ENS_12MethodBinderIPNS_20DataTypeInf
 4207              	_ZN6uavcan13ServiceServerINS_8protocol16GetDataTypeInfo_ENS_12MethodBinderIPNS_20DataTypeInfoProvid
 4208              		@ args = 0, pretend = 0, frame = 0
 4209              		@ frame_needed = 0, uses_anonymous_args = 0
 4210 0000 10B5     		push	{r4, lr}
 4211 0002 0446     		mov	r4, r0
 4212 0004 FFF7FEFF 		bl	_ZN6uavcan13ServiceServerINS_8protocol16GetDataTypeInfo_ENS_12MethodBinderIPNS_20DataTypeInfoPr
 4213 0008 2046     		mov	r0, r4
 4214 000a FFF7FEFF 		bl	_ZdlPv
 4215 000e 2046     		mov	r0, r4
 4216 0010 10BD     		pop	{r4, pc}
ARM GAS  /tmp/ccFEREDd.s 			page 75


 4217              		.size	_ZN6uavcan13ServiceServerINS_8protocol16GetDataTypeInfo_ENS_12MethodBinderIPNS_20DataTypeInf
 4218              		.section	.text._ZN6uavcan17GenericSubscriberINS_8protocol16GetDataTypeInfo_ENS2_8Request_ILi0EEENS
 4219              		.align	1
 4220              		.weak	_ZN6uavcan17GenericSubscriberINS_8protocol16GetDataTypeInfo_ENS2_8Request_ILi0EEENS_16Transf
 4221              		.thumb
 4222              		.thumb_func
 4223              		.type	_ZN6uavcan17GenericSubscriberINS_8protocol16GetDataTypeInfo_ENS2_8Request_ILi0EEENS_16Transf
 4224              	_ZN6uavcan17GenericSubscriberINS_8protocol16GetDataTypeInfo_ENS2_8Request_ILi0EEENS_16TransferListe
 4225              		@ args = 0, pretend = 0, frame = 0
 4226              		@ frame_needed = 0, uses_anonymous_args = 0
 4227 0000 10B5     		push	{r4, lr}
 4228 0002 0446     		mov	r4, r0
 4229 0004 FFF7FEFF 		bl	_ZN6uavcan17GenericSubscriberINS_8protocol16GetDataTypeInfo_ENS2_8Request_ILi0EEENS_16TransferL
 4230 0008 2046     		mov	r0, r4
 4231 000a FFF7FEFF 		bl	_ZdlPv
 4232 000e 2046     		mov	r0, r4
 4233 0010 10BD     		pop	{r4, pc}
 4234              		.size	_ZN6uavcan17GenericSubscriberINS_8protocol16GetDataTypeInfo_ENS2_8Request_ILi0EEENS_16Transf
 4235              		.section	.text._ZN6uavcan22GlobalDataTypeRegistry16registerDataTypeINS_8protocol5debug11LogMessage
 4236              		.align	1
 4237              		.weak	_ZN6uavcan22GlobalDataTypeRegistry16registerDataTypeINS_8protocol5debug11LogMessage_ILi0EEEE
 4238              		.thumb
 4239              		.thumb_func
 4240              		.type	_ZN6uavcan22GlobalDataTypeRegistry16registerDataTypeINS_8protocol5debug11LogMessage_ILi0EEEE
 4241              	_ZN6uavcan22GlobalDataTypeRegistry16registerDataTypeINS_8protocol5debug11LogMessage_ILi0EEEEENS0_18
 4242              		@ args = 0, pretend = 0, frame = 40
 4243              		@ frame_needed = 0, uses_anonymous_args = 0
 4244 0000 70B5     		push	{r4, r5, r6, lr}
 4245 0002 037A     		ldrb	r3, [r0, #8]	@ zero_extendqisi2
 4246 0004 8AB0     		sub	sp, sp, #40
 4247 0006 0646     		mov	r6, r0
 4248 0008 0D46     		mov	r5, r1
 4249 000a 002B     		cmp	r3, #0
 4250 000c 3DD1     		bne	.L507
 4251 000e 244C     		ldr	r4, .L510+16
 4252 0010 2368     		ldr	r3, [r4]
 4253 0012 DB07     		lsls	r3, r3, #31
 4254 0014 09D4     		bmi	.L506
 4255 0016 2348     		ldr	r0, .L510+20
 4256 0018 FFF7FEFF 		bl	_ZN6uavcan22GlobalDataTypeRegistry5EntryC1Ev
 4257 001c 0123     		movs	r3, #1
 4258 001e 2148     		ldr	r0, .L510+20
 4259 0020 2149     		ldr	r1, .L510+24
 4260 0022 224A     		ldr	r2, .L510+28
 4261 0024 2360     		str	r3, [r4]
 4262 0026 FFF7FEFF 		bl	__aeabi_atexit
 4263              	.L506:
 4264 002a 3046     		mov	r0, r6
 4265 002c 1D49     		ldr	r1, .L510+20
 4266 002e FFF7FEFF 		bl	_ZN6uavcan22GlobalDataTypeRegistry6removeEPNS0_5EntryE
 4267 0032 0446     		mov	r4, r0
 4268 0034 50BB     		cbnz	r0, .L505
 4269 0036 16A3     		adr	r3, .L510
 4270 0038 D3E90023 		ldrd	r2, [r3]
 4271 003c 0AA8     		add	r0, sp, #40
 4272 003e 60E90A23 		strd	r2, [r0, #-40]!
 4273 0042 15A3     		adr	r3, .L510+8
ARM GAS  /tmp/ccFEREDd.s 			page 76


 4274 0044 D3E90023 		ldrd	r2, [r3]
 4275 0048 FFF7FEFF 		bl	_ZN6uavcan17DataTypeSignature6extendES0_
 4276 004c DDE90023 		ldrd	r2, [sp]
 4277 0050 CDE90423 		strd	r2, [sp, #16]
 4278 0054 164B     		ldr	r3, .L510+32
 4279 0056 0294     		str	r4, [sp, #8]
 4280 0058 0693     		str	r3, [sp, #24]
 4281 005a 124C     		ldr	r4, .L510+20
 4282 005c 0123     		movs	r3, #1
 4283 005e 0895     		str	r5, [sp, #32]
 4284 0060 8DF81C30 		strb	r3, [sp, #28]
 4285 0064 02AD     		add	r5, sp, #8
 4286 0066 0FCD     		ldmia	r5!, {r0, r1, r2, r3}
 4287 0068 0FC4     		stmia	r4!, {r0, r1, r2, r3}
 4288 006a 95E80F00 		ldmia	r5, {r0, r1, r2, r3}
 4289 006e 84E80F00 		stmia	r4, {r0, r1, r2, r3}
 4290 0072 3046     		mov	r0, r6
 4291 0074 A4F11001 		sub	r1, r4, #16
 4292 0078 FFF7FEFF 		bl	_ZN6uavcan22GlobalDataTypeRegistry6removeEPNS0_5EntryE
 4293 007c 30B9     		cbnz	r0, .L505
 4294 007e 3046     		mov	r0, r6
 4295 0080 A4F11001 		sub	r1, r4, #16
 4296 0084 FFF7FEFF 		bl	_ZN6uavcan22GlobalDataTypeRegistry10registImplEPNS0_5EntryE
 4297 0088 00E0     		b	.L505
 4298              	.L507:
 4299 008a 0320     		movs	r0, #3
 4300              	.L505:
 4301 008c 0AB0     		add	sp, sp, #40
 4302              		@ sp needed
 4303 008e 70BD     		pop	{r4, r5, r6, pc}
 4304              	.L511:
 4305              		.align	3
 4306              	.L510:
 4307 0090 BA6287D3 		.word	-746102086
 4308 0094 782B86E9 		.word	-377083016
 4309 0098 462357AF 		.word	-1353243834
 4310 009c 41F11B71 		.word	1897656641
 4311 00a0 00000000 		.word	_ZGVZN6uavcan22GlobalDataTypeRegistry16registerDataTypeINS_8protocol5debug11LogMessage_ILi0E
 4312 00a4 00000000 		.word	_ZZN6uavcan22GlobalDataTypeRegistry16registerDataTypeINS_8protocol5debug11LogMessage_ILi0EEE
 4313 00a8 00000000 		.word	_ZN6uavcan22GlobalDataTypeRegistry5EntryD1Ev
 4314 00ac 00000000 		.word	__dso_handle
 4315 00b0 3D010000 		.word	.LC15
 4316              		.size	_ZN6uavcan22GlobalDataTypeRegistry16registerDataTypeINS_8protocol5debug11LogMessage_ILi0EEEE
 4317              		.section	.text._ZN6uavcan16GenericPublisherINS_8protocol5debug11LogMessage_ILi0EEES4_E9checkInitEv
 4318              		.align	1
 4319              		.weak	_ZN6uavcan16GenericPublisherINS_8protocol5debug11LogMessage_ILi0EEES4_E9checkInitEv
 4320              		.thumb
 4321              		.thumb_func
 4322              		.type	_ZN6uavcan16GenericPublisherINS_8protocol5debug11LogMessage_ILi0EEES4_E9checkInitEv, %functi
 4323              	_ZN6uavcan16GenericPublisherINS_8protocol5debug11LogMessage_ILi0EEES4_E9checkInitEv:
 4324              		@ args = 0, pretend = 0, frame = 0
 4325              		@ frame_needed = 0, uses_anonymous_args = 0
 4326 0000 10B5     		push	{r4, lr}
 4327 0002 0446     		mov	r4, r0
 4328 0004 FFF7FEFF 		bl	_ZNK6uavcan20GenericPublisherBase8isInitedEv
 4329 0008 0346     		mov	r3, r0
 4330 000a 30B9     		cbnz	r0, .L513
ARM GAS  /tmp/ccFEREDd.s 			page 77


 4331 000c 2046     		mov	r0, r4
 4332 000e BDE81040 		pop	{r4, lr}
 4333 0012 0121     		movs	r1, #1
 4334 0014 024A     		ldr	r2, .L514
 4335 0016 FFF7FEBF 		b	_ZN6uavcan20GenericPublisherBase6doInitENS_12DataTypeKindEPKcNS_10CanTxQueue3QosE
 4336              	.L513:
 4337 001a 0020     		movs	r0, #0
 4338 001c 10BD     		pop	{r4, pc}
 4339              	.L515:
 4340 001e 00BF     		.align	2
 4341              	.L514:
 4342 0020 3D010000 		.word	.LC15
 4343              		.size	_ZN6uavcan16GenericPublisherINS_8protocol5debug11LogMessage_ILi0EEES4_E9checkInitEv, .-_ZN6u
 4344              		.section	.text._ZN6uavcan17GenericSubscriberINS_8protocol12RestartNode_ENS2_8Request_ILi0EEENS_16T
 4345              		.align	1
 4346              		.weak	_ZN6uavcan17GenericSubscriberINS_8protocol12RestartNode_ENS2_8Request_ILi0EEENS_16TransferLi
 4347              		.thumb
 4348              		.thumb_func
 4349              		.type	_ZN6uavcan17GenericSubscriberINS_8protocol12RestartNode_ENS2_8Request_ILi0EEENS_16TransferLi
 4350              	_ZN6uavcan17GenericSubscriberINS_8protocol12RestartNode_ENS2_8Request_ILi0EEENS_16TransferListenerE
 4351              		@ args = 0, pretend = 0, frame = 8
 4352              		@ frame_needed = 0, uses_anonymous_args = 0
 4353 0000 13B5     		push	{r0, r1, r4, lr}
 4354 0002 0446     		mov	r4, r0
 4355 0004 0C4B     		ldr	r3, .L521
 4356 0006 40F8043B 		str	r3, [r0], #4
 4357 000a A16B     		ldr	r1, [r4, #56]
 4358 000c FFF7FEFF 		bl	_ZN6uavcan21GenericSubscriberBase4stopEPNS_16TransferListenerE
 4359 0010 A06B     		ldr	r0, [r4, #56]
 4360 0012 10B1     		cbz	r0, .L517
 4361 0014 0368     		ldr	r3, [r0]
 4362 0016 5B68     		ldr	r3, [r3, #4]
 4363 0018 9847     		blx	r3
 4364              	.L517:
 4365 001a 0023     		movs	r3, #0
 4366 001c 02AA     		add	r2, sp, #8
 4367 001e 04F10C00 		add	r0, r4, #12
 4368 0022 A363     		str	r3, [r4, #56]
 4369 0024 02F8013D 		strb	r3, [r2, #-1]!
 4370 0028 04F13801 		add	r1, r4, #56
 4371 002c FFF7FEFF 		bl	_ZN6uavcan4fillIPhhEEvT_S2_RKT0_
 4372 0030 2046     		mov	r0, r4
 4373 0032 02B0     		add	sp, sp, #8
 4374              		@ sp needed
 4375 0034 10BD     		pop	{r4, pc}
 4376              	.L522:
 4377 0036 00BF     		.align	2
 4378              	.L521:
 4379 0038 08000000 		.word	_ZTVN6uavcan17GenericSubscriberINS_8protocol12RestartNode_ENS2_8Request_ILi0EEENS_16Transfer
 4380              		.size	_ZN6uavcan17GenericSubscriberINS_8protocol12RestartNode_ENS2_8Request_ILi0EEENS_16TransferLi
 4381              		.weak	_ZN6uavcan17GenericSubscriberINS_8protocol12RestartNode_ENS2_8Request_ILi0EEENS_16TransferLi
 4382              		.thumb_set _ZN6uavcan17GenericSubscriberINS_8protocol12RestartNode_ENS2_8Request_ILi0EEENS_16Trans
 4383              		.section	.text._ZN6uavcan13ServiceServerINS_8protocol12RestartNode_ENS_12MethodBinderIPKNS_20Resta
 4384              		.align	1
 4385              		.weak	_ZN6uavcan13ServiceServerINS_8protocol12RestartNode_ENS_12MethodBinderIPKNS_20RestartRequest
 4386              		.thumb
 4387              		.thumb_func
ARM GAS  /tmp/ccFEREDd.s 			page 78


 4388              		.type	_ZN6uavcan13ServiceServerINS_8protocol12RestartNode_ENS_12MethodBinderIPKNS_20RestartRequest
 4389              	_ZN6uavcan13ServiceServerINS_8protocol12RestartNode_ENS_12MethodBinderIPKNS_20RestartRequestServerE
 4390              		@ args = 0, pretend = 0, frame = 0
 4391              		@ frame_needed = 0, uses_anonymous_args = 0
 4392 0000 10B5     		push	{r4, lr}
 4393 0002 0446     		mov	r4, r0
 4394 0004 024B     		ldr	r3, .L524
 4395 0006 0360     		str	r3, [r0]
 4396 0008 FFF7FEFF 		bl	_ZN6uavcan17GenericSubscriberINS_8protocol12RestartNode_ENS2_8Request_ILi0EEENS_16TransferListe
 4397 000c 2046     		mov	r0, r4
 4398 000e 10BD     		pop	{r4, pc}
 4399              	.L525:
 4400              		.align	2
 4401              	.L524:
 4402 0010 08000000 		.word	_ZTVN6uavcan13ServiceServerINS_8protocol12RestartNode_ENS_12MethodBinderIPKNS_20RestartReque
 4403              		.size	_ZN6uavcan13ServiceServerINS_8protocol12RestartNode_ENS_12MethodBinderIPKNS_20RestartRequest
 4404              		.weak	_ZN6uavcan13ServiceServerINS_8protocol12RestartNode_ENS_12MethodBinderIPKNS_20RestartRequest
 4405              		.thumb_set _ZN6uavcan13ServiceServerINS_8protocol12RestartNode_ENS_12MethodBinderIPKNS_20RestartRe
 4406              		.section	.text._ZN6uavcan13ServiceServerINS_8protocol12RestartNode_ENS_12MethodBinderIPKNS_20Resta
 4407              		.align	1
 4408              		.weak	_ZN6uavcan13ServiceServerINS_8protocol12RestartNode_ENS_12MethodBinderIPKNS_20RestartRequest
 4409              		.thumb
 4410              		.thumb_func
 4411              		.type	_ZN6uavcan13ServiceServerINS_8protocol12RestartNode_ENS_12MethodBinderIPKNS_20RestartRequest
 4412              	_ZN6uavcan13ServiceServerINS_8protocol12RestartNode_ENS_12MethodBinderIPKNS_20RestartRequestServerE
 4413              		@ args = 0, pretend = 0, frame = 0
 4414              		@ frame_needed = 0, uses_anonymous_args = 0
 4415 0000 10B5     		push	{r4, lr}
 4416 0002 0446     		mov	r4, r0
 4417 0004 FFF7FEFF 		bl	_ZN6uavcan13ServiceServerINS_8protocol12RestartNode_ENS_12MethodBinderIPKNS_20RestartRequestSer
 4418 0008 2046     		mov	r0, r4
 4419 000a FFF7FEFF 		bl	_ZdlPv
 4420 000e 2046     		mov	r0, r4
 4421 0010 10BD     		pop	{r4, pc}
 4422              		.size	_ZN6uavcan13ServiceServerINS_8protocol12RestartNode_ENS_12MethodBinderIPKNS_20RestartRequest
 4423              		.section	.text._ZN6uavcan17GenericSubscriberINS_8protocol12RestartNode_ENS2_8Request_ILi0EEENS_16T
 4424              		.align	1
 4425              		.weak	_ZN6uavcan17GenericSubscriberINS_8protocol12RestartNode_ENS2_8Request_ILi0EEENS_16TransferLi
 4426              		.thumb
 4427              		.thumb_func
 4428              		.type	_ZN6uavcan17GenericSubscriberINS_8protocol12RestartNode_ENS2_8Request_ILi0EEENS_16TransferLi
 4429              	_ZN6uavcan17GenericSubscriberINS_8protocol12RestartNode_ENS2_8Request_ILi0EEENS_16TransferListenerE
 4430              		@ args = 0, pretend = 0, frame = 0
 4431              		@ frame_needed = 0, uses_anonymous_args = 0
 4432 0000 10B5     		push	{r4, lr}
 4433 0002 0446     		mov	r4, r0
 4434 0004 FFF7FEFF 		bl	_ZN6uavcan17GenericSubscriberINS_8protocol12RestartNode_ENS2_8Request_ILi0EEENS_16TransferListe
 4435 0008 2046     		mov	r0, r4
 4436 000a FFF7FEFF 		bl	_ZdlPv
 4437 000e 2046     		mov	r0, r4
 4438 0010 10BD     		pop	{r4, pc}
 4439              		.size	_ZN6uavcan17GenericSubscriberINS_8protocol12RestartNode_ENS2_8Request_ILi0EEENS_16TransferLi
 4440              		.section	.text._ZN6uavcan22GlobalDataTypeRegistry16registerDataTypeINS_8protocol18GetTransportStat
 4441              		.align	1
 4442              		.weak	_ZN6uavcan22GlobalDataTypeRegistry16registerDataTypeINS_8protocol18GetTransportStats_EEENS0_
 4443              		.thumb
 4444              		.thumb_func
ARM GAS  /tmp/ccFEREDd.s 			page 79


 4445              		.type	_ZN6uavcan22GlobalDataTypeRegistry16registerDataTypeINS_8protocol18GetTransportStats_EEENS0_
 4446              	_ZN6uavcan22GlobalDataTypeRegistry16registerDataTypeINS_8protocol18GetTransportStats_EEENS0_18Regis
 4447              		@ args = 0, pretend = 0, frame = 40
 4448              		@ frame_needed = 0, uses_anonymous_args = 0
 4449 0000 70B5     		push	{r4, r5, r6, lr}
 4450 0002 037A     		ldrb	r3, [r0, #8]	@ zero_extendqisi2
 4451 0004 8AB0     		sub	sp, sp, #40
 4452 0006 0646     		mov	r6, r0
 4453 0008 0D46     		mov	r5, r1
 4454 000a 002B     		cmp	r3, #0
 4455 000c 3CD1     		bne	.L531
 4456 000e 244C     		ldr	r4, .L534+16
 4457 0010 2368     		ldr	r3, [r4]
 4458 0012 DB07     		lsls	r3, r3, #31
 4459 0014 09D4     		bmi	.L530
 4460 0016 2348     		ldr	r0, .L534+20
 4461 0018 FFF7FEFF 		bl	_ZN6uavcan22GlobalDataTypeRegistry5EntryC1Ev
 4462 001c 0123     		movs	r3, #1
 4463 001e 2148     		ldr	r0, .L534+20
 4464 0020 2149     		ldr	r1, .L534+24
 4465 0022 224A     		ldr	r2, .L534+28
 4466 0024 2360     		str	r3, [r4]
 4467 0026 FFF7FEFF 		bl	__aeabi_atexit
 4468              	.L530:
 4469 002a 3046     		mov	r0, r6
 4470 002c 1D49     		ldr	r1, .L534+20
 4471 002e FFF7FEFF 		bl	_ZN6uavcan22GlobalDataTypeRegistry6removeEPNS0_5EntryE
 4472 0032 0446     		mov	r4, r0
 4473 0034 48BB     		cbnz	r0, .L529
 4474 0036 16A3     		adr	r3, .L534
 4475 0038 D3E90023 		ldrd	r2, [r3]
 4476 003c 0AA8     		add	r0, sp, #40
 4477 003e 60E90A23 		strd	r2, [r0, #-40]!
 4478 0042 15A3     		adr	r3, .L534+8
 4479 0044 D3E90023 		ldrd	r2, [r3]
 4480 0048 FFF7FEFF 		bl	_ZN6uavcan17DataTypeSignature6extendES0_
 4481 004c DDE90023 		ldrd	r2, [sp]
 4482 0050 CDE90423 		strd	r2, [sp, #16]
 4483 0054 164B     		ldr	r3, .L534+32
 4484 0056 8DF81C40 		strb	r4, [sp, #28]
 4485 005a 0294     		str	r4, [sp, #8]
 4486 005c 114C     		ldr	r4, .L534+20
 4487 005e 0895     		str	r5, [sp, #32]
 4488 0060 0693     		str	r3, [sp, #24]
 4489 0062 02AD     		add	r5, sp, #8
 4490 0064 0FCD     		ldmia	r5!, {r0, r1, r2, r3}
 4491 0066 0FC4     		stmia	r4!, {r0, r1, r2, r3}
 4492 0068 95E80F00 		ldmia	r5, {r0, r1, r2, r3}
 4493 006c 84E80F00 		stmia	r4, {r0, r1, r2, r3}
 4494 0070 3046     		mov	r0, r6
 4495 0072 A4F11001 		sub	r1, r4, #16
 4496 0076 FFF7FEFF 		bl	_ZN6uavcan22GlobalDataTypeRegistry6removeEPNS0_5EntryE
 4497 007a 30B9     		cbnz	r0, .L529
 4498 007c 3046     		mov	r0, r6
 4499 007e A4F11001 		sub	r1, r4, #16
 4500 0082 FFF7FEFF 		bl	_ZN6uavcan22GlobalDataTypeRegistry10registImplEPNS0_5EntryE
 4501 0086 00E0     		b	.L529
ARM GAS  /tmp/ccFEREDd.s 			page 80


 4502              	.L531:
 4503 0088 0320     		movs	r0, #3
 4504              	.L529:
 4505 008a 0AB0     		add	sp, sp, #40
 4506              		@ sp needed
 4507 008c 70BD     		pop	{r4, r5, r6, pc}
 4508              	.L535:
 4509 008e 00BF     		.align	3
 4510              	.L534:
 4511 0090 B3611B53 		.word	1394303411
 4512 0094 54F6C731 		.word	835188308
 4513 0098 50A34CC4 		.word	-1001610416
 4514 009c F006B113 		.word	330368752
 4515 00a0 00000000 		.word	_ZGVZN6uavcan22GlobalDataTypeRegistry16registerDataTypeINS_8protocol18GetTransportStats_EEEN
 4516 00a4 00000000 		.word	_ZZN6uavcan22GlobalDataTypeRegistry16registerDataTypeINS_8protocol18GetTransportStats_EEENS0
 4517 00a8 00000000 		.word	_ZN6uavcan22GlobalDataTypeRegistry5EntryD1Ev
 4518 00ac 00000000 		.word	__dso_handle
 4519 00b0 5E010000 		.word	.LC16
 4520              		.size	_ZN6uavcan22GlobalDataTypeRegistry16registerDataTypeINS_8protocol18GetTransportStats_EEENS0_
 4521              		.section	.text._ZN6uavcan17GenericSubscriberINS_8protocol18GetTransportStats_ENS2_8Request_ILi0EEE
 4522              		.align	1
 4523              		.weak	_ZN6uavcan17GenericSubscriberINS_8protocol18GetTransportStats_ENS2_8Request_ILi0EEENS_16Tran
 4524              		.thumb
 4525              		.thumb_func
 4526              		.type	_ZN6uavcan17GenericSubscriberINS_8protocol18GetTransportStats_ENS2_8Request_ILi0EEENS_16Tran
 4527              	_ZN6uavcan17GenericSubscriberINS_8protocol18GetTransportStats_ENS2_8Request_ILi0EEENS_16TransferLis
 4528              		@ args = 0, pretend = 0, frame = 8
 4529              		@ frame_needed = 0, uses_anonymous_args = 0
 4530 0000 13B5     		push	{r0, r1, r4, lr}
 4531 0002 0446     		mov	r4, r0
 4532 0004 0C4B     		ldr	r3, .L541
 4533 0006 40F8043B 		str	r3, [r0], #4
 4534 000a A16B     		ldr	r1, [r4, #56]
 4535 000c FFF7FEFF 		bl	_ZN6uavcan21GenericSubscriberBase4stopEPNS_16TransferListenerE
 4536 0010 A06B     		ldr	r0, [r4, #56]
 4537 0012 10B1     		cbz	r0, .L537
 4538 0014 0368     		ldr	r3, [r0]
 4539 0016 5B68     		ldr	r3, [r3, #4]
 4540 0018 9847     		blx	r3
 4541              	.L537:
 4542 001a 0023     		movs	r3, #0
 4543 001c 02AA     		add	r2, sp, #8
 4544 001e 04F10C00 		add	r0, r4, #12
 4545 0022 A363     		str	r3, [r4, #56]
 4546 0024 02F8013D 		strb	r3, [r2, #-1]!
 4547 0028 04F13801 		add	r1, r4, #56
 4548 002c FFF7FEFF 		bl	_ZN6uavcan4fillIPhhEEvT_S2_RKT0_
 4549 0030 2046     		mov	r0, r4
 4550 0032 02B0     		add	sp, sp, #8
 4551              		@ sp needed
 4552 0034 10BD     		pop	{r4, pc}
 4553              	.L542:
 4554 0036 00BF     		.align	2
 4555              	.L541:
 4556 0038 08000000 		.word	_ZTVN6uavcan17GenericSubscriberINS_8protocol18GetTransportStats_ENS2_8Request_ILi0EEENS_16Tr
 4557              		.size	_ZN6uavcan17GenericSubscriberINS_8protocol18GetTransportStats_ENS2_8Request_ILi0EEENS_16Tran
 4558              		.weak	_ZN6uavcan17GenericSubscriberINS_8protocol18GetTransportStats_ENS2_8Request_ILi0EEENS_16Tran
ARM GAS  /tmp/ccFEREDd.s 			page 81


 4559              		.thumb_set _ZN6uavcan17GenericSubscriberINS_8protocol18GetTransportStats_ENS2_8Request_ILi0EEENS_1
 4560              		.section	.text._ZN6uavcan13ServiceServerINS_8protocol18GetTransportStats_ENS_12MethodBinderIPKNS_2
 4561              		.align	1
 4562              		.weak	_ZN6uavcan13ServiceServerINS_8protocol18GetTransportStats_ENS_12MethodBinderIPKNS_22Transpor
 4563              		.thumb
 4564              		.thumb_func
 4565              		.type	_ZN6uavcan13ServiceServerINS_8protocol18GetTransportStats_ENS_12MethodBinderIPKNS_22Transpor
 4566              	_ZN6uavcan13ServiceServerINS_8protocol18GetTransportStats_ENS_12MethodBinderIPKNS_22TransportStatsP
 4567              		@ args = 0, pretend = 0, frame = 0
 4568              		@ frame_needed = 0, uses_anonymous_args = 0
 4569 0000 10B5     		push	{r4, lr}
 4570 0002 0446     		mov	r4, r0
 4571 0004 024B     		ldr	r3, .L544
 4572 0006 0360     		str	r3, [r0]
 4573 0008 FFF7FEFF 		bl	_ZN6uavcan17GenericSubscriberINS_8protocol18GetTransportStats_ENS2_8Request_ILi0EEENS_16Transfe
 4574 000c 2046     		mov	r0, r4
 4575 000e 10BD     		pop	{r4, pc}
 4576              	.L545:
 4577              		.align	2
 4578              	.L544:
 4579 0010 08000000 		.word	_ZTVN6uavcan13ServiceServerINS_8protocol18GetTransportStats_ENS_12MethodBinderIPKNS_22Transp
 4580              		.size	_ZN6uavcan13ServiceServerINS_8protocol18GetTransportStats_ENS_12MethodBinderIPKNS_22Transpor
 4581              		.weak	_ZN6uavcan13ServiceServerINS_8protocol18GetTransportStats_ENS_12MethodBinderIPKNS_22Transpor
 4582              		.thumb_set _ZN6uavcan13ServiceServerINS_8protocol18GetTransportStats_ENS_12MethodBinderIPKNS_22Tra
 4583              		.section	.text._ZN6uavcan13ServiceServerINS_8protocol18GetTransportStats_ENS_12MethodBinderIPKNS_2
 4584              		.align	1
 4585              		.weak	_ZN6uavcan13ServiceServerINS_8protocol18GetTransportStats_ENS_12MethodBinderIPKNS_22Transpor
 4586              		.thumb
 4587              		.thumb_func
 4588              		.type	_ZN6uavcan13ServiceServerINS_8protocol18GetTransportStats_ENS_12MethodBinderIPKNS_22Transpor
 4589              	_ZN6uavcan13ServiceServerINS_8protocol18GetTransportStats_ENS_12MethodBinderIPKNS_22TransportStatsP
 4590              		@ args = 0, pretend = 0, frame = 0
 4591              		@ frame_needed = 0, uses_anonymous_args = 0
 4592 0000 10B5     		push	{r4, lr}
 4593 0002 0446     		mov	r4, r0
 4594 0004 FFF7FEFF 		bl	_ZN6uavcan13ServiceServerINS_8protocol18GetTransportStats_ENS_12MethodBinderIPKNS_22TransportSt
 4595 0008 2046     		mov	r0, r4
 4596 000a FFF7FEFF 		bl	_ZdlPv
 4597 000e 2046     		mov	r0, r4
 4598 0010 10BD     		pop	{r4, pc}
 4599              		.size	_ZN6uavcan13ServiceServerINS_8protocol18GetTransportStats_ENS_12MethodBinderIPKNS_22Transpor
 4600              		.section	.text._ZN6uavcan17GenericSubscriberINS_8protocol18GetTransportStats_ENS2_8Request_ILi0EEE
 4601              		.align	1
 4602              		.weak	_ZN6uavcan17GenericSubscriberINS_8protocol18GetTransportStats_ENS2_8Request_ILi0EEENS_16Tran
 4603              		.thumb
 4604              		.thumb_func
 4605              		.type	_ZN6uavcan17GenericSubscriberINS_8protocol18GetTransportStats_ENS2_8Request_ILi0EEENS_16Tran
 4606              	_ZN6uavcan17GenericSubscriberINS_8protocol18GetTransportStats_ENS2_8Request_ILi0EEENS_16TransferLis
 4607              		@ args = 0, pretend = 0, frame = 0
 4608              		@ frame_needed = 0, uses_anonymous_args = 0
 4609 0000 10B5     		push	{r4, lr}
 4610 0002 0446     		mov	r4, r0
 4611 0004 FFF7FEFF 		bl	_ZN6uavcan17GenericSubscriberINS_8protocol18GetTransportStats_ENS2_8Request_ILi0EEENS_16Transfe
 4612 0008 2046     		mov	r0, r4
 4613 000a FFF7FEFF 		bl	_ZdlPv
 4614 000e 2046     		mov	r0, r4
 4615 0010 10BD     		pop	{r4, pc}
ARM GAS  /tmp/ccFEREDd.s 			page 82


 4616              		.size	_ZN6uavcan17GenericSubscriberINS_8protocol18GetTransportStats_ENS2_8Request_ILi0EEENS_16Tran
 4617              		.section	.text._ZN6uavcan16GenericPublisherINS_8protocol15GlobalTimeSync_ILi0EEES3_E9checkInitEv,"
 4618              		.align	1
 4619              		.weak	_ZN6uavcan16GenericPublisherINS_8protocol15GlobalTimeSync_ILi0EEES3_E9checkInitEv
 4620              		.thumb
 4621              		.thumb_func
 4622              		.type	_ZN6uavcan16GenericPublisherINS_8protocol15GlobalTimeSync_ILi0EEES3_E9checkInitEv, %function
 4623              	_ZN6uavcan16GenericPublisherINS_8protocol15GlobalTimeSync_ILi0EEES3_E9checkInitEv:
 4624              		@ args = 0, pretend = 0, frame = 0
 4625              		@ frame_needed = 0, uses_anonymous_args = 0
 4626 0000 10B5     		push	{r4, lr}
 4627 0002 0446     		mov	r4, r0
 4628 0004 FFF7FEFF 		bl	_ZNK6uavcan20GenericPublisherBase8isInitedEv
 4629 0008 0346     		mov	r3, r0
 4630 000a 30B9     		cbnz	r0, .L549
 4631 000c 2046     		mov	r0, r4
 4632 000e BDE81040 		pop	{r4, lr}
 4633 0012 0121     		movs	r1, #1
 4634 0014 024A     		ldr	r2, .L550
 4635 0016 FFF7FEBF 		b	_ZN6uavcan20GenericPublisherBase6doInitENS_12DataTypeKindEPKcNS_10CanTxQueue3QosE
 4636              	.L549:
 4637 001a 0020     		movs	r0, #0
 4638 001c 10BD     		pop	{r4, pc}
 4639              	.L551:
 4640 001e 00BF     		.align	2
 4641              	.L550:
 4642 0020 80010000 		.word	.LC17
 4643              		.size	_ZN6uavcan16GenericPublisherINS_8protocol15GlobalTimeSync_ILi0EEES3_E9checkInitEv, .-_ZN6uav
 4644              		.section	.text._ZN6uavcan20GlobalTimeSyncMaster4initENS_16TransferPriorityE,"axG",%progbits,_ZN6ua
 4645              		.align	1
 4646              		.weak	_ZN6uavcan20GlobalTimeSyncMaster4initENS_16TransferPriorityE
 4647              		.thumb
 4648              		.thumb_func
 4649              		.type	_ZN6uavcan20GlobalTimeSyncMaster4initENS_16TransferPriorityE, %function
 4650              	_ZN6uavcan20GlobalTimeSyncMaster4initENS_16TransferPriorityE:
 4651              		@ args = 0, pretend = 0, frame = 16
 4652              		@ frame_needed = 0, uses_anonymous_args = 0
 4653 0000 2DE9F043 		push	{r4, r5, r6, r7, r8, r9, lr}
 4654 0004 90F8F460 		ldrb	r6, [r0, #244]	@ zero_extendqisi2
 4655 0008 85B0     		sub	sp, sp, #20
 4656 000a 0746     		mov	r7, r0
 4657 000c 8946     		mov	r9, r1
 4658 000e 002E     		cmp	r6, #0
 4659 0010 4FD1     		bne	.L560
 4660 0012 FFF7FEFF 		bl	_ZN6uavcan22GlobalDataTypeRegistry8instanceEv
 4661 0016 0121     		movs	r1, #1
 4662 0018 294A     		ldr	r2, .L564
 4663 001a FFF7FEFF 		bl	_ZNK6uavcan22GlobalDataTypeRegistry4findENS_12DataTypeKindEPKc
 4664 001e 0028     		cmp	r0, #0
 4665 0020 49D0     		beq	.L561
 4666 0022 0369     		ldr	r3, [r0, #16]
 4667 0024 07F11004 		add	r4, r7, #16
 4668 0028 C7F8F030 		str	r3, [r7, #240]
 4669              	.L558:
 4670 002c 236C     		ldr	r3, [r4, #64]
 4671 002e F5B2     		uxtb	r5, r6
 4672 0030 B3B9     		cbnz	r3, .L554
ARM GAS  /tmp/ccFEREDd.s 			page 83


 4673 0032 244A     		ldr	r2, .L564+4
 4674 0034 0023     		movs	r3, #0
 4675 0036 CDE90223 		strd	r2, [sp, #8]
 4676 003a 234A     		ldr	r2, .L564+8
 4677 003c 0023     		movs	r3, #0
 4678 003e CDE90023 		strd	r2, [sp]
 4679 0042 2046     		mov	r0, r4
 4680 0044 02AA     		add	r2, sp, #8
 4681 0046 6B46     		mov	r3, sp
 4682 0048 F968     		ldr	r1, [r7, #12]
 4683 004a FFF7FEFF 		bl	_ZN6uavcan20GenericPublisherBaseC2ERNS_5INodeENS_17MonotonicDurationES3_
 4684 004e 0022     		movs	r2, #0
 4685 0050 0023     		movs	r3, #0
 4686 0052 C4E90A23 		strd	r2, [r4, #40]
 4687 0056 C4E90C23 		strd	r2, [r4, #48]
 4688 005a 84F83850 		strb	r5, [r4, #56]
 4689 005e 2464     		str	r4, [r4, #64]
 4690              	.L554:
 4691 0060 D4F84080 		ldr	r8, [r4, #64]
 4692 0064 B8F1000F 		cmp	r8, #0
 4693 0068 02D1     		bne	.L555
 4694 006a 1848     		ldr	r0, .L564+12
 4695 006c FFF7FEFF 		bl	_ZN6uavcan16handleFatalErrorEPKc
 4696              	.L555:
 4697 0070 88F80C90 		strb	r9, [r8, #12]
 4698 0074 4046     		mov	r0, r8
 4699 0076 FFF7FEFF 		bl	_ZN6uavcan16GenericPublisherINS_8protocol15GlobalTimeSync_ILi0EEES3_E9checkInitEv
 4700 007a 051E     		subs	r5, r0, #0
 4701 007c 08DA     		bge	.L556
 4702              	.L559:
 4703 007e EB43     		mvns	r3, r5
 4704 0080 DB0F     		lsrs	r3, r3, #31
 4705 0082 87F8F430 		strb	r3, [r7, #244]
 4706 0086 93B1     		cbz	r3, .L563
 4707 0088 3846     		mov	r0, r7
 4708 008a FFF7FEFF 		bl	_ZN6uavcan25LoopbackFrameListenerBase14startListeningEv
 4709 008e 0EE0     		b	.L563
 4710              	.L556:
 4711 0090 0123     		movs	r3, #1
 4712 0092 98F83820 		ldrb	r2, [r8, #56]	@ zero_extendqisi2
 4713 0096 1E44     		add	r6, r6, r3
 4714 0098 03FA02F2 		lsl	r2, r3, r2
 4715 009c 032E     		cmp	r6, #3
 4716 009e 88F81620 		strb	r2, [r8, #22]
 4717 00a2 A8F81430 		strh	r3, [r8, #20]	@ movhi
 4718 00a6 04F14804 		add	r4, r4, #72
 4719 00aa BFD1     		bne	.L558
 4720 00ac E7E7     		b	.L559
 4721              	.L563:
 4722 00ae 2846     		mov	r0, r5
 4723 00b0 03E0     		b	.L553
 4724              	.L560:
 4725 00b2 0020     		movs	r0, #0
 4726 00b4 01E0     		b	.L553
 4727              	.L561:
 4728 00b6 6FF00400 		mvn	r0, #4
 4729              	.L553:
ARM GAS  /tmp/ccFEREDd.s 			page 84


 4730 00ba 05B0     		add	sp, sp, #20
 4731              		@ sp needed
 4732 00bc BDE8F083 		pop	{r4, r5, r6, r7, r8, r9, pc}
 4733              	.L565:
 4734              		.align	2
 4735              	.L564:
 4736 00c0 80010000 		.word	.LC17
 4737 00c4 A0860100 		.word	100000
 4738 00c8 00879303 		.word	60000000
 4739 00cc 1A000000 		.word	.LC2
 4740              		.size	_ZN6uavcan20GlobalTimeSyncMaster4initENS_16TransferPriorityE, .-_ZN6uavcan20GlobalTimeSyncMa
 4741              		.section	.text._ZN6uavcan17GenericSubscriberINS_8protocol15GlobalTimeSync_ILi0EEES3_NS_16TransferL
 4742              		.align	1
 4743              		.weak	_ZN6uavcan17GenericSubscriberINS_8protocol15GlobalTimeSync_ILi0EEES3_NS_16TransferListenerEE
 4744              		.thumb
 4745              		.thumb_func
 4746              		.type	_ZN6uavcan17GenericSubscriberINS_8protocol15GlobalTimeSync_ILi0EEES3_NS_16TransferListenerEE
 4747              	_ZN6uavcan17GenericSubscriberINS_8protocol15GlobalTimeSync_ILi0EEES3_NS_16TransferListenerEED2Ev:
 4748              		@ args = 0, pretend = 0, frame = 8
 4749              		@ frame_needed = 0, uses_anonymous_args = 0
 4750 0000 13B5     		push	{r0, r1, r4, lr}
 4751 0002 0446     		mov	r4, r0
 4752 0004 0C4B     		ldr	r3, .L571
 4753 0006 40F8043B 		str	r3, [r0], #4
 4754 000a A16B     		ldr	r1, [r4, #56]
 4755 000c FFF7FEFF 		bl	_ZN6uavcan21GenericSubscriberBase4stopEPNS_16TransferListenerE
 4756 0010 A06B     		ldr	r0, [r4, #56]
 4757 0012 10B1     		cbz	r0, .L567
 4758 0014 0368     		ldr	r3, [r0]
 4759 0016 5B68     		ldr	r3, [r3, #4]
 4760 0018 9847     		blx	r3
 4761              	.L567:
 4762 001a 0023     		movs	r3, #0
 4763 001c 02AA     		add	r2, sp, #8
 4764 001e 04F10C00 		add	r0, r4, #12
 4765 0022 A363     		str	r3, [r4, #56]
 4766 0024 02F8013D 		strb	r3, [r2, #-1]!
 4767 0028 04F13801 		add	r1, r4, #56
 4768 002c FFF7FEFF 		bl	_ZN6uavcan4fillIPhhEEvT_S2_RKT0_
 4769 0030 2046     		mov	r0, r4
 4770 0032 02B0     		add	sp, sp, #8
 4771              		@ sp needed
 4772 0034 10BD     		pop	{r4, pc}
 4773              	.L572:
 4774 0036 00BF     		.align	2
 4775              	.L571:
 4776 0038 08000000 		.word	_ZTVN6uavcan17GenericSubscriberINS_8protocol15GlobalTimeSync_ILi0EEES3_NS_16TransferListener
 4777              		.size	_ZN6uavcan17GenericSubscriberINS_8protocol15GlobalTimeSync_ILi0EEES3_NS_16TransferListenerEE
 4778              		.weak	_ZN6uavcan17GenericSubscriberINS_8protocol15GlobalTimeSync_ILi0EEES3_NS_16TransferListenerEE
 4779              		.thumb_set _ZN6uavcan17GenericSubscriberINS_8protocol15GlobalTimeSync_ILi0EEES3_NS_16TransferListe
 4780              		.section	.text._ZN6uavcan10SubscriberINS_8protocol15GlobalTimeSync_ILi0EEENS_12MethodBinderIPNS_19
 4781              		.align	1
 4782              		.weak	_ZN6uavcan10SubscriberINS_8protocol15GlobalTimeSync_ILi0EEENS_12MethodBinderIPNS_19GlobalTim
 4783              		.thumb
 4784              		.thumb_func
 4785              		.type	_ZN6uavcan10SubscriberINS_8protocol15GlobalTimeSync_ILi0EEENS_12MethodBinderIPNS_19GlobalTim
 4786              	_ZN6uavcan10SubscriberINS_8protocol15GlobalTimeSync_ILi0EEENS_12MethodBinderIPNS_19GlobalTimeSyncSl
ARM GAS  /tmp/ccFEREDd.s 			page 85


 4787              		@ args = 0, pretend = 0, frame = 0
 4788              		@ frame_needed = 0, uses_anonymous_args = 0
 4789 0000 10B5     		push	{r4, lr}
 4790 0002 0446     		mov	r4, r0
 4791 0004 024B     		ldr	r3, .L574
 4792 0006 0360     		str	r3, [r0]
 4793 0008 FFF7FEFF 		bl	_ZN6uavcan17GenericSubscriberINS_8protocol15GlobalTimeSync_ILi0EEES3_NS_16TransferListenerEED2E
 4794 000c 2046     		mov	r0, r4
 4795 000e 10BD     		pop	{r4, pc}
