ARM GAS  /tmp/ccev9oOe.s 			page 1


   1              		.syntax unified
   2              		.cpu cortex-m3
   3              		.fpu softvfp
   4              		.eabi_attribute 20, 1
   5              		.eabi_attribute 21, 1
   6              		.eabi_attribute 23, 3
   7              		.eabi_attribute 24, 1
   8              		.eabi_attribute 25, 1
   9              		.eabi_attribute 26, 1
  10              		.eabi_attribute 30, 4
  11              		.eabi_attribute 34, 1
  12              		.eabi_attribute 18, 4
  13              		.thumb
  14              		.file	"uc_transfer_buffer.cpp"
  15              		.section	.text._ZN6uavcan24StaticTransferBufferImpl5writeEjPKhj,"ax",%progbits
  16              		.align	1
  17              		.global	_ZN6uavcan24StaticTransferBufferImpl5writeEjPKhj
  18              		.thumb
  19              		.thumb_func
  20              		.type	_ZN6uavcan24StaticTransferBufferImpl5writeEjPKhj, %function
  21              	_ZN6uavcan24StaticTransferBufferImpl5writeEjPKhj:
  22              		@ args = 0, pretend = 0, frame = 0
  23              		@ frame_needed = 0, uses_anonymous_args = 0
  24 0000 70B5     		push	{r4, r5, r6, lr}
  25 0002 CAB1     		cbz	r2, .L6
  26 0004 0489     		ldrh	r4, [r0, #8]
  27 0006 A142     		cmp	r1, r4
  28 0008 19D2     		bcs	.L7
  29 000a CD18     		adds	r5, r1, r3
  30 000c A542     		cmp	r5, r4
  31 000e 88BF     		it	hi
  32 0010 631A     		subhi	r3, r4, r1
  33 0012 4468     		ldr	r4, [r0, #4]
  34 0014 D518     		adds	r5, r2, r3
  35 0016 0C44     		add	r4, r4, r1
  36              	.L4:
  37 0018 AA42     		cmp	r2, r5
  38 001a 04D0     		beq	.L9
  39 001c 12F8016B 		ldrb	r6, [r2], #1	@ zero_extendqisi2
  40 0020 04F8016B 		strb	r6, [r4], #1
  41 0024 F8E7     		b	.L4
  42              	.L9:
  43 0026 4289     		ldrh	r2, [r0, #10]
  44 0028 1944     		add	r1, r1, r3
  45 002a 89B2     		uxth	r1, r1
  46 002c 9142     		cmp	r1, r2
  47 002e 38BF     		it	cc
  48 0030 1146     		movcc	r1, r2
  49 0032 4181     		strh	r1, [r0, #10]	@ movhi
  50 0034 1846     		mov	r0, r3
  51 0036 70BD     		pop	{r4, r5, r6, pc}
  52              	.L6:
  53 0038 6FF00100 		mvn	r0, #1
  54 003c 70BD     		pop	{r4, r5, r6, pc}
  55              	.L7:
  56 003e 0020     		movs	r0, #0
  57 0040 70BD     		pop	{r4, r5, r6, pc}
ARM GAS  /tmp/ccev9oOe.s 			page 2


  58              		.size	_ZN6uavcan24StaticTransferBufferImpl5writeEjPKhj, .-_ZN6uavcan24StaticTransferBufferImpl5wri
  59              		.section	.text._ZNK6uavcan24StaticTransferBufferImpl4readEjPhj,"ax",%progbits
  60              		.align	1
  61              		.global	_ZNK6uavcan24StaticTransferBufferImpl4readEjPhj
  62              		.thumb
  63              		.thumb_func
  64              		.type	_ZNK6uavcan24StaticTransferBufferImpl4readEjPhj, %function
  65              	_ZNK6uavcan24StaticTransferBufferImpl4readEjPhj:
  66              		@ args = 0, pretend = 0, frame = 0
  67              		@ frame_needed = 0, uses_anonymous_args = 0
  68 0000 30B5     		push	{r4, r5, lr}
  69 0002 9AB1     		cbz	r2, .L15
  70 0004 4489     		ldrh	r4, [r0, #10]
  71 0006 A142     		cmp	r1, r4
  72 0008 13D2     		bcs	.L16
  73 000a CD18     		adds	r5, r1, r3
  74 000c A542     		cmp	r5, r4
  75 000e 88BF     		it	hi
  76 0010 631A     		subhi	r3, r4, r1
  77 0012 4468     		ldr	r4, [r0, #4]
  78 0014 6018     		adds	r0, r4, r1
  79 0016 1944     		add	r1, r1, r3
  80 0018 2144     		add	r1, r1, r4
  81              	.L13:
  82 001a 8842     		cmp	r0, r1
  83 001c 04D0     		beq	.L17
  84 001e 10F8014B 		ldrb	r4, [r0], #1	@ zero_extendqisi2
  85 0022 02F8014B 		strb	r4, [r2], #1
  86 0026 F8E7     		b	.L13
  87              	.L17:
  88 0028 1846     		mov	r0, r3
  89 002a 30BD     		pop	{r4, r5, pc}
  90              	.L15:
  91 002c 6FF00100 		mvn	r0, #1
  92 0030 30BD     		pop	{r4, r5, pc}
  93              	.L16:
  94 0032 0020     		movs	r0, #0
  95 0034 30BD     		pop	{r4, r5, pc}
  96              		.size	_ZNK6uavcan24StaticTransferBufferImpl4readEjPhj, .-_ZNK6uavcan24StaticTransferBufferImpl4rea
  97              		.section	.text._ZN6uavcan24StaticTransferBufferImplD2Ev,"axG",%progbits,_ZN6uavcan24StaticTransfer
  98              		.align	1
  99              		.weak	_ZN6uavcan24StaticTransferBufferImplD2Ev
 100              		.thumb
 101              		.thumb_func
 102              		.type	_ZN6uavcan24StaticTransferBufferImplD2Ev, %function
 103              	_ZN6uavcan24StaticTransferBufferImplD2Ev:
 104              		@ args = 0, pretend = 0, frame = 0
 105              		@ frame_needed = 0, uses_anonymous_args = 0
 106              		@ link register save eliminated.
 107 0000 7047     		bx	lr
 108              		.size	_ZN6uavcan24StaticTransferBufferImplD2Ev, .-_ZN6uavcan24StaticTransferBufferImplD2Ev
 109              		.weak	_ZN6uavcan24StaticTransferBufferImplD1Ev
 110              		.thumb_set _ZN6uavcan24StaticTransferBufferImplD1Ev,_ZN6uavcan24StaticTransferBufferImplD2Ev
 111              		.section	.text._ZN6uavcan24StaticTransferBufferImplD0Ev,"axG",%progbits,_ZN6uavcan24StaticTransfer
 112              		.align	1
 113              		.weak	_ZN6uavcan24StaticTransferBufferImplD0Ev
 114              		.thumb
ARM GAS  /tmp/ccev9oOe.s 			page 3


 115              		.thumb_func
 116              		.type	_ZN6uavcan24StaticTransferBufferImplD0Ev, %function
 117              	_ZN6uavcan24StaticTransferBufferImplD0Ev:
 118              		@ args = 0, pretend = 0, frame = 0
 119              		@ frame_needed = 0, uses_anonymous_args = 0
 120 0000 10B5     		push	{r4, lr}
 121 0002 0446     		mov	r4, r0
 122 0004 FFF7FEFF 		bl	_ZdlPv
 123 0008 2046     		mov	r0, r4
 124 000a 10BD     		pop	{r4, pc}
 125              		.size	_ZN6uavcan24StaticTransferBufferImplD0Ev, .-_ZN6uavcan24StaticTransferBufferImplD0Ev
 126              		.section	.text._ZN6uavcan24StaticTransferBufferImpl5resetEv,"ax",%progbits
 127              		.align	1
 128              		.global	_ZN6uavcan24StaticTransferBufferImpl5resetEv
 129              		.thumb
 130              		.thumb_func
 131              		.type	_ZN6uavcan24StaticTransferBufferImpl5resetEv, %function
 132              	_ZN6uavcan24StaticTransferBufferImpl5resetEv:
 133              		@ args = 0, pretend = 0, frame = 0
 134              		@ frame_needed = 0, uses_anonymous_args = 0
 135              		@ link register save eliminated.
 136 0000 0023     		movs	r3, #0
 137 0002 4381     		strh	r3, [r0, #10]	@ movhi
 138 0004 7047     		bx	lr
 139              		.size	_ZN6uavcan24StaticTransferBufferImpl5resetEv, .-_ZN6uavcan24StaticTransferBufferImpl5resetEv
 140              		.section	.text._ZN6uavcan26TransferBufferManagerEntry5Block11instantiateERNS_14IPoolAllocatorE,"ax
 141              		.align	1
 142              		.global	_ZN6uavcan26TransferBufferManagerEntry5Block11instantiateERNS_14IPoolAllocatorE
 143              		.thumb
 144              		.thumb_func
 145              		.type	_ZN6uavcan26TransferBufferManagerEntry5Block11instantiateERNS_14IPoolAllocatorE, %function
 146              	_ZN6uavcan26TransferBufferManagerEntry5Block11instantiateERNS_14IPoolAllocatorE:
 147              		@ args = 0, pretend = 0, frame = 0
 148              		@ frame_needed = 0, uses_anonymous_args = 0
 149 0000 08B5     		push	{r3, lr}
 150 0002 0368     		ldr	r3, [r0]
 151 0004 3821     		movs	r1, #56
 152 0006 9B68     		ldr	r3, [r3, #8]
 153 0008 9847     		blx	r3
 154 000a 08B1     		cbz	r0, .L22
 155 000c 0023     		movs	r3, #0
 156 000e 0360     		str	r3, [r0]
 157              	.L22:
 158 0010 08BD     		pop	{r3, pc}
 159              		.size	_ZN6uavcan26TransferBufferManagerEntry5Block11instantiateERNS_14IPoolAllocatorE, .-_ZN6uavca
 160              		.section	.text._ZN6uavcan26TransferBufferManagerEntry5Block7destroyERPS1_RNS_14IPoolAllocatorE,"ax
 161              		.align	1
 162              		.global	_ZN6uavcan26TransferBufferManagerEntry5Block7destroyERPS1_RNS_14IPoolAllocatorE
 163              		.thumb
 164              		.thumb_func
 165              		.type	_ZN6uavcan26TransferBufferManagerEntry5Block7destroyERPS1_RNS_14IPoolAllocatorE, %function
 166              	_ZN6uavcan26TransferBufferManagerEntry5Block7destroyERPS1_RNS_14IPoolAllocatorE:
 167              		@ args = 0, pretend = 0, frame = 0
 168              		@ frame_needed = 0, uses_anonymous_args = 0
 169 0000 0368     		ldr	r3, [r0]
 170 0002 10B5     		push	{r4, lr}
 171 0004 0446     		mov	r4, r0
ARM GAS  /tmp/ccev9oOe.s 			page 4


 172 0006 33B1     		cbz	r3, .L26
 173 0008 0A68     		ldr	r2, [r1]
 174 000a 0846     		mov	r0, r1
 175 000c D268     		ldr	r2, [r2, #12]
 176 000e 1946     		mov	r1, r3
 177 0010 9047     		blx	r2
 178 0012 0023     		movs	r3, #0
 179 0014 2360     		str	r3, [r4]
 180              	.L26:
 181 0016 10BD     		pop	{r4, pc}
 182              		.size	_ZN6uavcan26TransferBufferManagerEntry5Block7destroyERPS1_RNS_14IPoolAllocatorE, .-_ZN6uavca
 183              		.section	.text._ZN6uavcan26TransferBufferManagerEntry5Block4readERPhjRjS4_,"ax",%progbits
 184              		.align	1
 185              		.global	_ZN6uavcan26TransferBufferManagerEntry5Block4readERPhjRjS4_
 186              		.thumb
 187              		.thumb_func
 188              		.type	_ZN6uavcan26TransferBufferManagerEntry5Block4readERPhjRjS4_, %function
 189              	_ZN6uavcan26TransferBufferManagerEntry5Block4readERPhjRjS4_:
 190              		@ args = 4, pretend = 0, frame = 0
 191              		@ frame_needed = 0, uses_anonymous_args = 0
 192 0000 F0B5     		push	{r4, r5, r6, r7, lr}
 193 0002 059E     		ldr	r6, [sp, #20]
 194 0004 041D     		adds	r4, r0, #4
 195 0006 3830     		adds	r0, r0, #56
 196              	.L32:
 197 0008 3568     		ldr	r5, [r6]
 198 000a 85B1     		cbz	r5, .L31
 199 000c 1D68     		ldr	r5, [r3]
 200 000e 9542     		cmp	r5, r2
 201 0010 07D3     		bcc	.L33
 202 0012 0D68     		ldr	r5, [r1]
 203 0014 6F1C     		adds	r7, r5, #1
 204 0016 0F60     		str	r7, [r1]
 205 0018 2778     		ldrb	r7, [r4]	@ zero_extendqisi2
 206 001a 2F70     		strb	r7, [r5]
 207 001c 3568     		ldr	r5, [r6]
 208 001e 013D     		subs	r5, r5, #1
 209 0020 3560     		str	r5, [r6]
 210              	.L33:
 211 0022 1D68     		ldr	r5, [r3]
 212 0024 0134     		adds	r4, r4, #1
 213 0026 0135     		adds	r5, r5, #1
 214 0028 8442     		cmp	r4, r0
 215 002a 1D60     		str	r5, [r3]
 216 002c ECD1     		bne	.L32
 217              	.L31:
 218 002e F0BD     		pop	{r4, r5, r6, r7, pc}
 219              		.size	_ZN6uavcan26TransferBufferManagerEntry5Block4readERPhjRjS4_, .-_ZN6uavcan26TransferBufferMan
 220              		.section	.text._ZNK6uavcan26TransferBufferManagerEntry4readEjPhj,"ax",%progbits
 221              		.align	1
 222              		.global	_ZNK6uavcan26TransferBufferManagerEntry4readEjPhj
 223              		.thumb
 224              		.thumb_func
 225              		.type	_ZNK6uavcan26TransferBufferManagerEntry4readEjPhj, %function
 226              	_ZNK6uavcan26TransferBufferManagerEntry4readEjPhj:
 227              		@ args = 0, pretend = 0, frame = 16
 228              		@ frame_needed = 0, uses_anonymous_args = 0
ARM GAS  /tmp/ccev9oOe.s 			page 5


 229 0000 70B5     		push	{r4, r5, r6, lr}
 230 0002 0E46     		mov	r6, r1
 231 0004 86B0     		sub	sp, sp, #24
 232 0006 1C46     		mov	r4, r3
 233 0008 D2B1     		cbz	r2, .L44
 234 000a 018A     		ldrh	r1, [r0, #16]
 235 000c 0023     		movs	r3, #0
 236 000e 8E42     		cmp	r6, r1
 237 0010 19D2     		bcs	.L45
 238 0012 3519     		adds	r5, r6, r4
 239 0014 8D42     		cmp	r5, r1
 240 0016 88BF     		it	hi
 241 0018 8C1B     		subhi	r4, r1, r6
 242 001a C568     		ldr	r5, [r0, #12]
 243 001c 0393     		str	r3, [sp, #12]
 244 001e 0494     		str	r4, [sp, #16]
 245 0020 0592     		str	r2, [sp, #20]
 246              	.L40:
 247 0022 4DB1     		cbz	r5, .L43
 248 0024 04AB     		add	r3, sp, #16
 249 0026 0093     		str	r3, [sp]
 250 0028 2846     		mov	r0, r5
 251 002a 03AB     		add	r3, sp, #12
 252 002c 05A9     		add	r1, sp, #20
 253 002e 3246     		mov	r2, r6
 254 0030 FFF7FEFF 		bl	_ZN6uavcan26TransferBufferManagerEntry5Block4readERPhjRjS4_
 255 0034 049B     		ldr	r3, [sp, #16]
 256 0036 0BB9     		cbnz	r3, .L41
 257              	.L43:
 258 0038 2046     		mov	r0, r4
 259 003a 05E0     		b	.L38
 260              	.L41:
 261 003c 2D68     		ldr	r5, [r5]
 262 003e F0E7     		b	.L40
 263              	.L44:
 264 0040 6FF00100 		mvn	r0, #1
 265 0044 00E0     		b	.L38
 266              	.L45:
 267 0046 1846     		mov	r0, r3
 268              	.L38:
 269 0048 06B0     		add	sp, sp, #24
 270              		@ sp needed
 271 004a 70BD     		pop	{r4, r5, r6, pc}
 272              		.size	_ZNK6uavcan26TransferBufferManagerEntry4readEjPhj, .-_ZNK6uavcan26TransferBufferManagerEntry
 273              		.section	.text._ZN6uavcan26TransferBufferManagerEntry5Block5writeERPKhjRjS5_,"ax",%progbits
 274              		.align	1
 275              		.global	_ZN6uavcan26TransferBufferManagerEntry5Block5writeERPKhjRjS5_
 276              		.thumb
 277              		.thumb_func
 278              		.type	_ZN6uavcan26TransferBufferManagerEntry5Block5writeERPKhjRjS5_, %function
 279              	_ZN6uavcan26TransferBufferManagerEntry5Block5writeERPKhjRjS5_:
 280              		@ args = 4, pretend = 0, frame = 0
 281              		@ frame_needed = 0, uses_anonymous_args = 0
 282 0000 F0B5     		push	{r4, r5, r6, r7, lr}
 283 0002 059E     		ldr	r6, [sp, #20]
 284 0004 041D     		adds	r4, r0, #4
 285 0006 3830     		adds	r0, r0, #56
ARM GAS  /tmp/ccev9oOe.s 			page 6


 286              	.L47:
 287 0008 3568     		ldr	r5, [r6]
 288 000a 85B1     		cbz	r5, .L46
 289 000c 1D68     		ldr	r5, [r3]
 290 000e 9542     		cmp	r5, r2
 291 0010 07D3     		bcc	.L48
 292 0012 0D68     		ldr	r5, [r1]
 293 0014 6F1C     		adds	r7, r5, #1
 294 0016 0F60     		str	r7, [r1]
 295 0018 2D78     		ldrb	r5, [r5]	@ zero_extendqisi2
 296 001a 2570     		strb	r5, [r4]
 297 001c 3568     		ldr	r5, [r6]
 298 001e 013D     		subs	r5, r5, #1
 299 0020 3560     		str	r5, [r6]
 300              	.L48:
 301 0022 1D68     		ldr	r5, [r3]
 302 0024 0134     		adds	r4, r4, #1
 303 0026 0135     		adds	r5, r5, #1
 304 0028 8442     		cmp	r4, r0
 305 002a 1D60     		str	r5, [r3]
 306 002c ECD1     		bne	.L47
 307              	.L46:
 308 002e F0BD     		pop	{r4, r5, r6, r7, pc}
 309              		.size	_ZN6uavcan26TransferBufferManagerEntry5Block5writeERPKhjRjS5_, .-_ZN6uavcan26TransferBufferM
 310              		.section	.text._ZN6uavcan26TransferBufferManagerEntry11instantiateERNS_14IPoolAllocatorEt,"ax",%pr
 311              		.align	1
 312              		.global	_ZN6uavcan26TransferBufferManagerEntry11instantiateERNS_14IPoolAllocatorEt
 313              		.thumb
 314              		.thumb_func
 315              		.type	_ZN6uavcan26TransferBufferManagerEntry11instantiateERNS_14IPoolAllocatorEt, %function
 316              	_ZN6uavcan26TransferBufferManagerEntry11instantiateERNS_14IPoolAllocatorEt:
 317              		@ args = 0, pretend = 0, frame = 0
 318              		@ frame_needed = 0, uses_anonymous_args = 0
 319 0000 38B5     		push	{r3, r4, r5, lr}
 320 0002 0368     		ldr	r3, [r0]
 321 0004 0D46     		mov	r5, r1
 322 0006 9B68     		ldr	r3, [r3, #8]
 323 0008 1821     		movs	r1, #24
 324 000a 0446     		mov	r4, r0
 325 000c 9847     		blx	r3
 326 000e 50B1     		cbz	r0, .L53
 327 0010 054A     		ldr	r2, .L57
 328 0012 0023     		movs	r3, #0
 329 0014 0260     		str	r2, [r0]
 330 0016 FF22     		movs	r2, #255
 331 0018 4360     		str	r3, [r0, #4]
 332 001a 8460     		str	r4, [r0, #8]
 333 001c C360     		str	r3, [r0, #12]
 334 001e 0382     		strh	r3, [r0, #16]	@ movhi
 335 0020 4582     		strh	r5, [r0, #18]	@ movhi
 336 0022 0275     		strb	r2, [r0, #20]
 337 0024 4375     		strb	r3, [r0, #21]
 338              	.L53:
 339 0026 38BD     		pop	{r3, r4, r5, pc}
 340              	.L58:
 341              		.align	2
 342              	.L57:
ARM GAS  /tmp/ccev9oOe.s 			page 7


 343 0028 08000000 		.word	.LANCHOR0+8
 344              		.size	_ZN6uavcan26TransferBufferManagerEntry11instantiateERNS_14IPoolAllocatorEt, .-_ZN6uavcan26Tr
 345              		.section	.text._ZN6uavcan26TransferBufferManagerEntry7destroyERPS0_RNS_14IPoolAllocatorE,"ax",%pro
 346              		.align	1
 347              		.global	_ZN6uavcan26TransferBufferManagerEntry7destroyERPS0_RNS_14IPoolAllocatorE
 348              		.thumb
 349              		.thumb_func
 350              		.type	_ZN6uavcan26TransferBufferManagerEntry7destroyERPS0_RNS_14IPoolAllocatorE, %function
 351              	_ZN6uavcan26TransferBufferManagerEntry7destroyERPS0_RNS_14IPoolAllocatorE:
 352              		@ args = 0, pretend = 0, frame = 0
 353              		@ frame_needed = 0, uses_anonymous_args = 0
 354 0000 38B5     		push	{r3, r4, r5, lr}
 355 0002 0446     		mov	r4, r0
 356 0004 0068     		ldr	r0, [r0]
 357 0006 0D46     		mov	r5, r1
 358 0008 48B1     		cbz	r0, .L59
 359 000a 0368     		ldr	r3, [r0]
 360 000c 1B68     		ldr	r3, [r3]
 361 000e 9847     		blx	r3
 362 0010 2B68     		ldr	r3, [r5]
 363 0012 2846     		mov	r0, r5
 364 0014 DB68     		ldr	r3, [r3, #12]
 365 0016 2168     		ldr	r1, [r4]
 366 0018 9847     		blx	r3
 367 001a 0023     		movs	r3, #0
 368 001c 2360     		str	r3, [r4]
 369              	.L59:
 370 001e 38BD     		pop	{r3, r4, r5, pc}
 371              		.size	_ZN6uavcan26TransferBufferManagerEntry7destroyERPS0_RNS_14IPoolAllocatorE, .-_ZN6uavcan26Tra
 372              		.section	.text._ZN6uavcan21TransferBufferManager9findFirstERKNS_24TransferBufferManagerKeyE,"ax",%
 373              		.align	1
 374              		.global	_ZN6uavcan21TransferBufferManager9findFirstERKNS_24TransferBufferManagerKeyE
 375              		.thumb
 376              		.thumb_func
 377              		.type	_ZN6uavcan21TransferBufferManager9findFirstERKNS_24TransferBufferManagerKeyE, %function
 378              	_ZN6uavcan21TransferBufferManager9findFirstERKNS_24TransferBufferManagerKeyE:
 379              		@ args = 0, pretend = 0, frame = 0
 380              		@ frame_needed = 0, uses_anonymous_args = 0
 381              		@ link register save eliminated.
 382 0000 0068     		ldr	r0, [r0]
 383              	.L65:
 384 0002 48B1     		cbz	r0, .L67
 385 0004 027D     		ldrb	r2, [r0, #20]	@ zero_extendqisi2
 386 0006 0B78     		ldrb	r3, [r1]	@ zero_extendqisi2
 387 0008 9A42     		cmp	r2, r3
 388 000a 03D1     		bne	.L66
 389 000c 427D     		ldrb	r2, [r0, #21]	@ zero_extendqisi2
 390 000e 4B78     		ldrb	r3, [r1, #1]	@ zero_extendqisi2
 391 0010 9A42     		cmp	r2, r3
 392 0012 01D0     		beq	.L67
 393              	.L66:
 394 0014 4068     		ldr	r0, [r0, #4]
 395 0016 F4E7     		b	.L65
 396              	.L67:
 397 0018 7047     		bx	lr
 398              		.size	_ZN6uavcan21TransferBufferManager9findFirstERKNS_24TransferBufferManagerKeyE, .-_ZN6uavcan21
 399              		.section	.text._ZN6uavcan21TransferBufferManager6accessERKNS_24TransferBufferManagerKeyE,"ax",%pro
ARM GAS  /tmp/ccev9oOe.s 			page 8


 400              		.align	1
 401              		.global	_ZN6uavcan21TransferBufferManager6accessERKNS_24TransferBufferManagerKeyE
 402              		.thumb
 403              		.thumb_func
 404              		.type	_ZN6uavcan21TransferBufferManager6accessERKNS_24TransferBufferManagerKeyE, %function
 405              	_ZN6uavcan21TransferBufferManager6accessERKNS_24TransferBufferManagerKeyE:
 406              		@ args = 0, pretend = 0, frame = 0
 407              		@ frame_needed = 0, uses_anonymous_args = 0
 408              		@ link register save eliminated.
 409 0000 91F90030 		ldrsb	r3, [r1]
 410 0004 002B     		cmp	r3, #0
 411 0006 01DB     		blt	.L71
 412 0008 FFF7FEBF 		b	_ZN6uavcan21TransferBufferManager9findFirstERKNS_24TransferBufferManagerKeyE
 413              	.L71:
 414 000c 0020     		movs	r0, #0
 415 000e 7047     		bx	lr
 416              		.size	_ZN6uavcan21TransferBufferManager6accessERKNS_24TransferBufferManagerKeyE, .-_ZN6uavcan21Tra
 417              		.section	.text._ZNK6uavcan21TransferBufferManager7isEmptyEv,"ax",%progbits
 418              		.align	1
 419              		.global	_ZNK6uavcan21TransferBufferManager7isEmptyEv
 420              		.thumb
 421              		.thumb_func
 422              		.type	_ZNK6uavcan21TransferBufferManager7isEmptyEv, %function
 423              	_ZNK6uavcan21TransferBufferManager7isEmptyEv:
 424              		@ args = 0, pretend = 0, frame = 0
 425              		@ frame_needed = 0, uses_anonymous_args = 0
 426              		@ link register save eliminated.
 427 0000 0368     		ldr	r3, [r0]
 428 0002 0020     		movs	r0, #0
 429              	.L73:
 430 0004 13B1     		cbz	r3, .L75
 431 0006 0130     		adds	r0, r0, #1
 432 0008 5B68     		ldr	r3, [r3, #4]
 433 000a FBE7     		b	.L73
 434              	.L75:
 435 000c B0FA80F0 		clz	r0, r0
 436 0010 4009     		lsrs	r0, r0, #5
 437 0012 7047     		bx	lr
 438              		.size	_ZNK6uavcan21TransferBufferManager7isEmptyEv, .-_ZNK6uavcan21TransferBufferManager7isEmptyEv
 439              		.section	.text._ZNK6uavcan21TransferBufferManager13getNumBuffersEv,"ax",%progbits
 440              		.align	1
 441              		.global	_ZNK6uavcan21TransferBufferManager13getNumBuffersEv
 442              		.thumb
 443              		.thumb_func
 444              		.type	_ZNK6uavcan21TransferBufferManager13getNumBuffersEv, %function
 445              	_ZNK6uavcan21TransferBufferManager13getNumBuffersEv:
 446              		@ args = 0, pretend = 0, frame = 0
 447              		@ frame_needed = 0, uses_anonymous_args = 0
 448              		@ link register save eliminated.
 449 0000 0368     		ldr	r3, [r0]
 450 0002 0020     		movs	r0, #0
 451              	.L77:
 452 0004 13B1     		cbz	r3, .L79
 453 0006 0130     		adds	r0, r0, #1
 454 0008 5B68     		ldr	r3, [r3, #4]
 455 000a FBE7     		b	.L77
 456              	.L79:
ARM GAS  /tmp/ccev9oOe.s 			page 9


 457 000c 7047     		bx	lr
 458              		.size	_ZNK6uavcan21TransferBufferManager13getNumBuffersEv, .-_ZNK6uavcan21TransferBufferManager13g
 459              		.section	.text._ZN6uavcan14LinkedListRootINS_26TransferBufferManagerEntry5BlockEE6removeEPKS2_,"ax
 460              		.align	1
 461              		.weak	_ZN6uavcan14LinkedListRootINS_26TransferBufferManagerEntry5BlockEE6removeEPKS2_
 462              		.thumb
 463              		.thumb_func
 464              		.type	_ZN6uavcan14LinkedListRootINS_26TransferBufferManagerEntry5BlockEE6removeEPKS2_, %function
 465              	_ZN6uavcan14LinkedListRootINS_26TransferBufferManagerEntry5BlockEE6removeEPKS2_:
 466              		@ args = 0, pretend = 0, frame = 0
 467              		@ frame_needed = 0, uses_anonymous_args = 0
 468              		@ link register save eliminated.
 469 0000 0368     		ldr	r3, [r0]
 470 0002 6BB1     		cbz	r3, .L80
 471 0004 61B1     		cbz	r1, .L80
 472 0006 8B42     		cmp	r3, r1
 473 0008 03D1     		bne	.L83
 474 000a 1B68     		ldr	r3, [r3]
 475 000c 0360     		str	r3, [r0]
 476 000e 7047     		bx	lr
 477              	.L85:
 478 0010 1346     		mov	r3, r2
 479              	.L83:
 480 0012 1A68     		ldr	r2, [r3]
 481 0014 22B1     		cbz	r2, .L80
 482 0016 8A42     		cmp	r2, r1
 483 0018 FAD1     		bne	.L85
 484 001a 0A68     		ldr	r2, [r1]
 485 001c 1A60     		str	r2, [r3]
 486 001e 7047     		bx	lr
 487              	.L80:
 488 0020 7047     		bx	lr
 489              		.size	_ZN6uavcan14LinkedListRootINS_26TransferBufferManagerEntry5BlockEE6removeEPKS2_, .-_ZN6uavca
 490              		.section	.text._ZN6uavcan26TransferBufferManagerEntry5writeEjPKhj,"ax",%progbits
 491              		.align	1
 492              		.global	_ZN6uavcan26TransferBufferManagerEntry5writeEjPKhj
 493              		.thumb
 494              		.thumb_func
 495              		.type	_ZN6uavcan26TransferBufferManagerEntry5writeEjPKhj, %function
 496              	_ZN6uavcan26TransferBufferManagerEntry5writeEjPKhj:
 497              		@ args = 0, pretend = 0, frame = 16
 498              		@ frame_needed = 0, uses_anonymous_args = 0
 499 0000 2DE9F041 		push	{r4, r5, r6, r7, r8, lr}
 500 0004 0646     		mov	r6, r0
 501 0006 86B0     		sub	sp, sp, #24
 502 0008 0C46     		mov	r4, r1
 503 000a 9846     		mov	r8, r3
 504 000c 002A     		cmp	r2, #0
 505 000e 47D0     		beq	.L105
 506 0010 438A     		ldrh	r3, [r0, #18]
 507 0012 0020     		movs	r0, #0
 508 0014 9942     		cmp	r1, r3
 509 0016 45D2     		bcs	.L93
 510 0018 4144     		add	r1, r1, r8
 511 001a 9942     		cmp	r1, r3
 512 001c 88BF     		it	hi
 513 001e C4EB0308 		rsbhi	r8, r4, r3
ARM GAS  /tmp/ccev9oOe.s 			page 10


 514 0022 F568     		ldr	r5, [r6, #12]
 515 0024 0390     		str	r0, [sp, #12]
 516 0026 CDF81080 		str	r8, [sp, #16]
 517 002a 0592     		str	r2, [sp, #20]
 518 002c 0023     		movs	r3, #0
 519              	.L95:
 520 002e 65B1     		cbz	r5, .L107
 521 0030 04AB     		add	r3, sp, #16
 522 0032 0093     		str	r3, [sp]
 523 0034 2846     		mov	r0, r5
 524 0036 03AB     		add	r3, sp, #12
 525 0038 05A9     		add	r1, sp, #20
 526 003a 2246     		mov	r2, r4
 527 003c FFF7FEFF 		bl	_ZN6uavcan26TransferBufferManagerEntry5Block5writeERPKhjRjS5_
 528 0040 049B     		ldr	r3, [sp, #16]
 529 0042 B3B1     		cbz	r3, .L97
 530 0044 2B46     		mov	r3, r5
 531 0046 2D68     		ldr	r5, [r5]
 532 0048 F1E7     		b	.L95
 533              	.L107:
 534 004a 1D46     		mov	r5, r3
 535 004c 11E0     		b	.L97
 536              	.L103:
 537 004e B068     		ldr	r0, [r6, #8]
 538 0050 FFF7FEFF 		bl	_ZN6uavcan26TransferBufferManagerEntry5Block11instantiateERNS_14IPoolAllocatorE
 539 0054 0746     		mov	r7, r0
 540 0056 78B1     		cbz	r0, .L104
 541 0058 CDB1     		cbz	r5, .L101
 542 005a 0023     		movs	r3, #0
 543 005c 2860     		str	r0, [r5]
 544 005e 0360     		str	r3, [r0]
 545              	.L102:
 546 0060 04AB     		add	r3, sp, #16
 547 0062 0093     		str	r3, [sp]
 548 0064 3846     		mov	r0, r7
 549 0066 05A9     		add	r1, sp, #20
 550 0068 2246     		mov	r2, r4
 551 006a 03AB     		add	r3, sp, #12
 552 006c FFF7FEFF 		bl	_ZN6uavcan26TransferBufferManagerEntry5Block5writeERPKhjRjS5_
 553 0070 3D46     		mov	r5, r7
 554              	.L97:
 555 0072 049B     		ldr	r3, [sp, #16]
 556 0074 002B     		cmp	r3, #0
 557 0076 EAD1     		bne	.L103
 558              	.L104:
 559 0078 0498     		ldr	r0, [sp, #16]
 560 007a 338A     		ldrh	r3, [r6, #16]
 561 007c C0EB0800 		rsb	r0, r0, r8
 562 0080 0444     		add	r4, r4, r0
 563 0082 A4B2     		uxth	r4, r4
 564 0084 9C42     		cmp	r4, r3
 565 0086 38BF     		it	cc
 566 0088 1C46     		movcc	r4, r3
 567 008a 3482     		strh	r4, [r6, #16]	@ movhi
 568 008c 0AE0     		b	.L93
 569              	.L101:
 570 008e 06F10C00 		add	r0, r6, #12
ARM GAS  /tmp/ccev9oOe.s 			page 11


 571 0092 3946     		mov	r1, r7
 572 0094 FFF7FEFF 		bl	_ZN6uavcan14LinkedListRootINS_26TransferBufferManagerEntry5BlockEE6removeEPKS2_
 573 0098 F368     		ldr	r3, [r6, #12]
 574 009a 3B60     		str	r3, [r7]
 575 009c F760     		str	r7, [r6, #12]
 576 009e DFE7     		b	.L102
 577              	.L105:
 578 00a0 6FF00100 		mvn	r0, #1
 579              	.L93:
 580 00a4 06B0     		add	sp, sp, #24
 581              		@ sp needed
 582 00a6 BDE8F081 		pop	{r4, r5, r6, r7, r8, pc}
 583              		.size	_ZN6uavcan26TransferBufferManagerEntry5writeEjPKhj, .-_ZN6uavcan26TransferBufferManagerEntry
 584              		.section	.text._ZN6uavcan26TransferBufferManagerEntry5resetERKNS_24TransferBufferManagerKeyE,"ax",
 585              		.align	1
 586              		.global	_ZN6uavcan26TransferBufferManagerEntry5resetERKNS_24TransferBufferManagerKeyE
 587              		.thumb
 588              		.thumb_func
 589              		.type	_ZN6uavcan26TransferBufferManagerEntry5resetERKNS_24TransferBufferManagerKeyE, %function
 590              	_ZN6uavcan26TransferBufferManagerEntry5resetERKNS_24TransferBufferManagerKeyE:
 591              		@ args = 0, pretend = 0, frame = 8
 592              		@ frame_needed = 0, uses_anonymous_args = 0
 593 0000 37B5     		push	{r0, r1, r2, r4, r5, lr}
 594 0002 0446     		mov	r4, r0
 595 0004 0B88     		ldrh	r3, [r1]	@ unaligned
 596 0006 8382     		strh	r3, [r0, #20]	@ unaligned
 597 0008 0023     		movs	r3, #0
 598 000a 0382     		strh	r3, [r0, #16]	@ movhi
 599 000c C368     		ldr	r3, [r0, #12]
 600 000e 0193     		str	r3, [sp, #4]
 601              	.L109:
 602 0010 0199     		ldr	r1, [sp, #4]
 603 0012 51B1     		cbz	r1, .L111
 604 0014 0D68     		ldr	r5, [r1]
 605 0016 04F10C00 		add	r0, r4, #12
 606 001a FFF7FEFF 		bl	_ZN6uavcan14LinkedListRootINS_26TransferBufferManagerEntry5BlockEE6removeEPKS2_
 607 001e 01A8     		add	r0, sp, #4
 608 0020 A168     		ldr	r1, [r4, #8]
 609 0022 FFF7FEFF 		bl	_ZN6uavcan26TransferBufferManagerEntry5Block7destroyERPS1_RNS_14IPoolAllocatorE
 610 0026 0195     		str	r5, [sp, #4]
 611 0028 F2E7     		b	.L109
 612              	.L111:
 613 002a 03B0     		add	sp, sp, #12
 614              		@ sp needed
 615 002c 30BD     		pop	{r4, r5, pc}
 616              		.size	_ZN6uavcan26TransferBufferManagerEntry5resetERKNS_24TransferBufferManagerKeyE, .-_ZN6uavcan2
 617              		.section	.text._ZN6uavcan26TransferBufferManagerEntryD2Ev,"axG",%progbits,_ZN6uavcan26TransferBuff
 618              		.align	1
 619              		.weak	_ZN6uavcan26TransferBufferManagerEntryD2Ev
 620              		.thumb
 621              		.thumb_func
 622              		.type	_ZN6uavcan26TransferBufferManagerEntryD2Ev, %function
 623              	_ZN6uavcan26TransferBufferManagerEntryD2Ev:
 624              		@ args = 0, pretend = 0, frame = 8
 625              		@ frame_needed = 0, uses_anonymous_args = 0
 626 0000 13B5     		push	{r0, r1, r4, lr}
 627 0002 0446     		mov	r4, r0
ARM GAS  /tmp/ccev9oOe.s 			page 12


 628 0004 074B     		ldr	r3, .L113
 629 0006 0DF10601 		add	r1, sp, #6
 630 000a 0360     		str	r3, [r0]
 631 000c FF23     		movs	r3, #255
 632 000e 8DF80630 		strb	r3, [sp, #6]
 633 0012 0023     		movs	r3, #0
 634 0014 8DF80730 		strb	r3, [sp, #7]
 635 0018 FFF7FEFF 		bl	_ZN6uavcan26TransferBufferManagerEntry5resetERKNS_24TransferBufferManagerKeyE
 636 001c 2046     		mov	r0, r4
 637 001e 02B0     		add	sp, sp, #8
 638              		@ sp needed
 639 0020 10BD     		pop	{r4, pc}
 640              	.L114:
 641 0022 00BF     		.align	2
 642              	.L113:
 643 0024 08000000 		.word	.LANCHOR0+8
 644              		.size	_ZN6uavcan26TransferBufferManagerEntryD2Ev, .-_ZN6uavcan26TransferBufferManagerEntryD2Ev
 645              		.weak	_ZN6uavcan26TransferBufferManagerEntryD1Ev
 646              		.thumb_set _ZN6uavcan26TransferBufferManagerEntryD1Ev,_ZN6uavcan26TransferBufferManagerEntryD2Ev
 647              		.section	.text._ZN6uavcan26TransferBufferManagerEntryD0Ev,"axG",%progbits,_ZN6uavcan26TransferBuff
 648              		.align	1
 649              		.weak	_ZN6uavcan26TransferBufferManagerEntryD0Ev
 650              		.thumb
 651              		.thumb_func
 652              		.type	_ZN6uavcan26TransferBufferManagerEntryD0Ev, %function
 653              	_ZN6uavcan26TransferBufferManagerEntryD0Ev:
 654              		@ args = 0, pretend = 0, frame = 0
 655              		@ frame_needed = 0, uses_anonymous_args = 0
 656 0000 10B5     		push	{r4, lr}
 657 0002 0446     		mov	r4, r0
 658 0004 FFF7FEFF 		bl	_ZN6uavcan26TransferBufferManagerEntryD1Ev
 659 0008 2046     		mov	r0, r4
 660 000a FFF7FEFF 		bl	_ZdlPv
 661 000e 2046     		mov	r0, r4
 662 0010 10BD     		pop	{r4, pc}
 663              		.size	_ZN6uavcan26TransferBufferManagerEntryD0Ev, .-_ZN6uavcan26TransferBufferManagerEntryD0Ev
 664              		.section	.text._ZN6uavcan14LinkedListRootINS_26TransferBufferManagerEntryEE6removeEPKS1_,"axG",%pr
 665              		.align	1
 666              		.weak	_ZN6uavcan14LinkedListRootINS_26TransferBufferManagerEntryEE6removeEPKS1_
 667              		.thumb
 668              		.thumb_func
 669              		.type	_ZN6uavcan14LinkedListRootINS_26TransferBufferManagerEntryEE6removeEPKS1_, %function
 670              	_ZN6uavcan14LinkedListRootINS_26TransferBufferManagerEntryEE6removeEPKS1_:
 671              		@ args = 0, pretend = 0, frame = 0
 672              		@ frame_needed = 0, uses_anonymous_args = 0
 673              		@ link register save eliminated.
 674 0000 0368     		ldr	r3, [r0]
 675 0002 6BB1     		cbz	r3, .L116
 676 0004 61B1     		cbz	r1, .L116
 677 0006 8B42     		cmp	r3, r1
 678 0008 03D1     		bne	.L119
 679 000a 5B68     		ldr	r3, [r3, #4]
 680 000c 0360     		str	r3, [r0]
 681 000e 7047     		bx	lr
 682              	.L121:
 683 0010 1346     		mov	r3, r2
 684              	.L119:
ARM GAS  /tmp/ccev9oOe.s 			page 13


 685 0012 5A68     		ldr	r2, [r3, #4]
 686 0014 22B1     		cbz	r2, .L116
 687 0016 8A42     		cmp	r2, r1
 688 0018 FAD1     		bne	.L121
 689 001a 4A68     		ldr	r2, [r1, #4]
 690 001c 5A60     		str	r2, [r3, #4]
 691 001e 7047     		bx	lr
 692              	.L116:
 693 0020 7047     		bx	lr
 694              		.size	_ZN6uavcan14LinkedListRootINS_26TransferBufferManagerEntryEE6removeEPKS1_, .-_ZN6uavcan14Lin
 695              		.section	.text._ZN6uavcan21TransferBufferManagerD2Ev,"ax",%progbits
 696              		.align	1
 697              		.global	_ZN6uavcan21TransferBufferManagerD2Ev
 698              		.thumb
 699              		.thumb_func
 700              		.type	_ZN6uavcan21TransferBufferManagerD2Ev, %function
 701              	_ZN6uavcan21TransferBufferManagerD2Ev:
 702              		@ args = 0, pretend = 0, frame = 8
 703              		@ frame_needed = 0, uses_anonymous_args = 0
 704 0000 37B5     		push	{r0, r1, r2, r4, r5, lr}
 705 0002 0446     		mov	r4, r0
 706 0004 0368     		ldr	r3, [r0]
 707 0006 0193     		str	r3, [sp, #4]
 708              	.L129:
 709 0008 0199     		ldr	r1, [sp, #4]
 710 000a 49B1     		cbz	r1, .L131
 711 000c 4D68     		ldr	r5, [r1, #4]
 712 000e 2046     		mov	r0, r4
 713 0010 FFF7FEFF 		bl	_ZN6uavcan14LinkedListRootINS_26TransferBufferManagerEntryEE6removeEPKS1_
 714 0014 01A8     		add	r0, sp, #4
 715 0016 6168     		ldr	r1, [r4, #4]
 716 0018 FFF7FEFF 		bl	_ZN6uavcan26TransferBufferManagerEntry7destroyERPS0_RNS_14IPoolAllocatorE
 717 001c 0195     		str	r5, [sp, #4]
 718 001e F3E7     		b	.L129
 719              	.L131:
 720 0020 2046     		mov	r0, r4
 721 0022 03B0     		add	sp, sp, #12
 722              		@ sp needed
 723 0024 30BD     		pop	{r4, r5, pc}
 724              		.size	_ZN6uavcan21TransferBufferManagerD2Ev, .-_ZN6uavcan21TransferBufferManagerD2Ev
 725              		.global	_ZN6uavcan21TransferBufferManagerD1Ev
 726              		.thumb_set _ZN6uavcan21TransferBufferManagerD1Ev,_ZN6uavcan21TransferBufferManagerD2Ev
 727              		.section	.text._ZN6uavcan21TransferBufferManager6removeERKNS_24TransferBufferManagerKeyE,"ax",%pro
 728              		.align	1
 729              		.global	_ZN6uavcan21TransferBufferManager6removeERKNS_24TransferBufferManagerKeyE
 730              		.thumb
 731              		.thumb_func
 732              		.type	_ZN6uavcan21TransferBufferManager6removeERKNS_24TransferBufferManagerKeyE, %function
 733              	_ZN6uavcan21TransferBufferManager6removeERKNS_24TransferBufferManagerKeyE:
 734              		@ args = 0, pretend = 0, frame = 8
 735              		@ frame_needed = 0, uses_anonymous_args = 0
 736 0000 13B5     		push	{r0, r1, r4, lr}
 737 0002 0446     		mov	r4, r0
 738 0004 FFF7FEFF 		bl	_ZN6uavcan21TransferBufferManager9findFirstERKNS_24TransferBufferManagerKeyE
 739 0008 0146     		mov	r1, r0
 740 000a 0190     		str	r0, [sp, #4]
 741 000c 30B1     		cbz	r0, .L132
ARM GAS  /tmp/ccev9oOe.s 			page 14


 742 000e 2046     		mov	r0, r4
 743 0010 FFF7FEFF 		bl	_ZN6uavcan14LinkedListRootINS_26TransferBufferManagerEntryEE6removeEPKS1_
 744 0014 01A8     		add	r0, sp, #4
 745 0016 6168     		ldr	r1, [r4, #4]
 746 0018 FFF7FEFF 		bl	_ZN6uavcan26TransferBufferManagerEntry7destroyERPS0_RNS_14IPoolAllocatorE
 747              	.L132:
 748 001c 02B0     		add	sp, sp, #8
 749              		@ sp needed
 750 001e 10BD     		pop	{r4, pc}
 751              		.size	_ZN6uavcan21TransferBufferManager6removeERKNS_24TransferBufferManagerKeyE, .-_ZN6uavcan21Tra
 752              		.section	.text._ZN6uavcan21TransferBufferManager6createERKNS_24TransferBufferManagerKeyE,"ax",%pro
 753              		.align	1
 754              		.global	_ZN6uavcan21TransferBufferManager6createERKNS_24TransferBufferManagerKeyE
 755              		.thumb
 756              		.thumb_func
 757              		.type	_ZN6uavcan21TransferBufferManager6createERKNS_24TransferBufferManagerKeyE, %function
 758              	_ZN6uavcan21TransferBufferManager6createERKNS_24TransferBufferManagerKeyE:
 759              		@ args = 0, pretend = 0, frame = 0
 760              		@ frame_needed = 0, uses_anonymous_args = 0
 761 0000 70B5     		push	{r4, r5, r6, lr}
 762 0002 91F90030 		ldrsb	r3, [r1]
 763 0006 0546     		mov	r5, r0
 764 0008 002B     		cmp	r3, #0
 765 000a 0E46     		mov	r6, r1
 766 000c 13DB     		blt	.L139
 767 000e FFF7FEFF 		bl	_ZN6uavcan21TransferBufferManager6removeERKNS_24TransferBufferManagerKeyE
 768 0012 6868     		ldr	r0, [r5, #4]
 769 0014 2989     		ldrh	r1, [r5, #8]
 770 0016 FFF7FEFF 		bl	_ZN6uavcan26TransferBufferManagerEntry11instantiateERNS_14IPoolAllocatorEt
 771 001a 0446     		mov	r4, r0
 772 001c 68B1     		cbz	r0, .L140
 773 001e 2846     		mov	r0, r5
 774 0020 2146     		mov	r1, r4
 775 0022 FFF7FEFF 		bl	_ZN6uavcan14LinkedListRootINS_26TransferBufferManagerEntryEE6removeEPKS1_
 776 0026 2B68     		ldr	r3, [r5]
 777 0028 2046     		mov	r0, r4
 778 002a 6360     		str	r3, [r4, #4]
 779 002c 3146     		mov	r1, r6
 780 002e 2C60     		str	r4, [r5]
 781 0030 FFF7FEFF 		bl	_ZN6uavcan26TransferBufferManagerEntry5resetERKNS_24TransferBufferManagerKeyE
 782 0034 01E0     		b	.L140
 783              	.L139:
 784 0036 0020     		movs	r0, #0
 785 0038 70BD     		pop	{r4, r5, r6, pc}
 786              	.L140:
 787 003a 2046     		mov	r0, r4
 788 003c 70BD     		pop	{r4, r5, r6, pc}
 789              		.size	_ZN6uavcan21TransferBufferManager6createERKNS_24TransferBufferManagerKeyE, .-_ZN6uavcan21Tra
 790              		.global	_ZTVN6uavcan24StaticTransferBufferImplE
 791              		.global	_ZTVN6uavcan26TransferBufferManagerEntryE
 792              		.section	.rodata._ZTVN6uavcan24StaticTransferBufferImplE,"a",%progbits
 793              		.align	3
 794              		.type	_ZTVN6uavcan24StaticTransferBufferImplE, %object
 795              		.size	_ZTVN6uavcan24StaticTransferBufferImplE, 24
 796              	_ZTVN6uavcan24StaticTransferBufferImplE:
 797 0000 00000000 		.word	0
 798 0004 00000000 		.word	0
ARM GAS  /tmp/ccev9oOe.s 			page 15


 799 0008 00000000 		.word	_ZN6uavcan24StaticTransferBufferImplD1Ev
 800 000c 00000000 		.word	_ZN6uavcan24StaticTransferBufferImplD0Ev
 801 0010 00000000 		.word	_ZNK6uavcan24StaticTransferBufferImpl4readEjPhj
 802 0014 00000000 		.word	_ZN6uavcan24StaticTransferBufferImpl5writeEjPKhj
 803              		.section	.rodata._ZTVN6uavcan26TransferBufferManagerEntryE,"a",%progbits
 804              		.align	3
 805              		.set	.LANCHOR0,. + 0
 806              		.type	_ZTVN6uavcan26TransferBufferManagerEntryE, %object
 807              		.size	_ZTVN6uavcan26TransferBufferManagerEntryE, 24
 808              	_ZTVN6uavcan26TransferBufferManagerEntryE:
 809 0000 00000000 		.word	0
 810 0004 00000000 		.word	0
 811 0008 00000000 		.word	_ZN6uavcan26TransferBufferManagerEntryD1Ev
 812 000c 00000000 		.word	_ZN6uavcan26TransferBufferManagerEntryD0Ev
 813 0010 00000000 		.word	_ZNK6uavcan26TransferBufferManagerEntry4readEjPhj
 814 0014 00000000 		.word	_ZN6uavcan26TransferBufferManagerEntry5writeEjPKhj
 815              		.ident	"GCC: (15:4.9.3+svn231177-1) 4.9.3 20150529 (prerelease)"
ARM GAS  /tmp/ccev9oOe.s 			page 16

